ARM GAS  /tmp/cc5x3zVB.s 			page 1


   1              		.syntax unified
   2              		.cpu cortex-m4
   3              		.eabi_attribute 27, 1
   4              		.eabi_attribute 28, 1
   5              		.fpu fpv4-sp-d16
   6              		.eabi_attribute 20, 1
   7              		.eabi_attribute 21, 1
   8              		.eabi_attribute 23, 3
   9              		.eabi_attribute 24, 1
  10              		.eabi_attribute 25, 1
  11              		.eabi_attribute 26, 1
  12              		.eabi_attribute 30, 1
  13              		.eabi_attribute 34, 1
  14              		.eabi_attribute 18, 4
  15              		.thumb
  16              		.file	"eecs473.c"
  17              		.text
  18              	.Ltext0:
  19              		.cfi_sections	.debug_frame
  20              		.section	.text.eecs_GPIO_Init,"ax",%progbits
  21              		.align	2
  22              		.global	eecs_GPIO_Init
  23              		.thumb
  24              		.thumb_func
  26              	eecs_GPIO_Init:
  27              	.LFB123:
  28              		.file 1 "Src/eecs473.c"
   1:Src/eecs473.c **** #include "eecs473.h"
   2:Src/eecs473.c **** 
   3:Src/eecs473.c **** //Author - Harshavardhan Anne
   4:Src/eecs473.c **** 
   5:Src/eecs473.c **** //GPIO
   6:Src/eecs473.c **** 
   7:Src/eecs473.c **** void eecs_GPIO_Init(GPIO_TypeDef *GPIOx,uint16_t Pins,uint32_t Mode,uint32_t Pull,uint32_t Speed) {
  29              		.loc 1 7 0
  30              		.cfi_startproc
  31              		@ args = 4, pretend = 0, frame = 32
  32              		@ frame_needed = 0, uses_anonymous_args = 0
  33              	.LVL0:
  34 0000 10B5     		push	{r4, lr}
  35              	.LCFI0:
  36              		.cfi_def_cfa_offset 8
  37              		.cfi_offset 4, -8
  38              		.cfi_offset 14, -4
  39 0002 88B0     		sub	sp, sp, #32
  40              	.LCFI1:
  41              		.cfi_def_cfa_offset 40
   8:Src/eecs473.c ****   if (!eecsGPIO.clock_enable) {
  42              		.loc 1 8 0
  43 0004 184A     		ldr	r2, .L4
  44              	.LVL1:
  45 0006 D268     		ldr	r2, [r2, #12]
  46 0008 12BB     		cbnz	r2, .L2
  47              	.LBB2:
   9:Src/eecs473.c ****   	/* GPIO Ports Clock Enable */
  10:Src/eecs473.c ****     __HAL_RCC_GPIOA_CLK_ENABLE();
  48              		.loc 1 10 0
ARM GAS  /tmp/cc5x3zVB.s 			page 2


  49 000a 0020     		movs	r0, #0
  50              	.LVL2:
  51 000c 0090     		str	r0, [sp]
  52 000e 174A     		ldr	r2, .L4+4
  53 0010 146B     		ldr	r4, [r2, #48]
  54 0012 44F00104 		orr	r4, r4, #1
  55 0016 1463     		str	r4, [r2, #48]
  56              	.LVL3:
  57 0018 146B     		ldr	r4, [r2, #48]
  58 001a 04F00104 		and	r4, r4, #1
  59 001e 0094     		str	r4, [sp]
  60 0020 009C     		ldr	r4, [sp]
  61              	.LBE2:
  62              	.LBB3:
  11:Src/eecs473.c ****     __HAL_RCC_GPIOD_CLK_ENABLE();
  63              		.loc 1 11 0
  64 0022 0190     		str	r0, [sp, #4]
  65 0024 146B     		ldr	r4, [r2, #48]
  66 0026 44F00804 		orr	r4, r4, #8
  67 002a 1463     		str	r4, [r2, #48]
  68 002c 146B     		ldr	r4, [r2, #48]
  69 002e 04F00804 		and	r4, r4, #8
  70 0032 0194     		str	r4, [sp, #4]
  71 0034 019C     		ldr	r4, [sp, #4]
  72              	.LBE3:
  73              	.LBB4:
  12:Src/eecs473.c ****     __HAL_RCC_GPIOB_CLK_ENABLE();
  74              		.loc 1 12 0
  75 0036 0290     		str	r0, [sp, #8]
  76 0038 106B     		ldr	r0, [r2, #48]
  77 003a 40F00200 		orr	r0, r0, #2
  78 003e 1063     		str	r0, [r2, #48]
  79 0040 126B     		ldr	r2, [r2, #48]
  80 0042 02F00202 		and	r2, r2, #2
  81 0046 0292     		str	r2, [sp, #8]
  82 0048 029A     		ldr	r2, [sp, #8]
  83              	.LBE4:
  13:Src/eecs473.c ****     eecsGPIO.clock_enable = 1;
  84              		.loc 1 13 0
  85 004a 0120     		movs	r0, #1
  86 004c 064A     		ldr	r2, .L4
  87 004e D060     		str	r0, [r2, #12]
  88              	.L2:
  14:Src/eecs473.c ****   }
  15:Src/eecs473.c **** 
  16:Src/eecs473.c ****   GPIO_InitTypeDef GPIO_InitStruct;
  17:Src/eecs473.c **** 
  18:Src/eecs473.c ****   /*Configure GPIO pins : PD12 PD13 PD14 PD15 */
  19:Src/eecs473.c ****   GPIO_InitStruct.Pin = Pins;
  89              		.loc 1 19 0
  90 0050 0391     		str	r1, [sp, #12]
  20:Src/eecs473.c ****   GPIO_InitStruct.Mode = GPIO_MODE_AF_PP;//Mode;
  91              		.loc 1 20 0
  92 0052 0222     		movs	r2, #2
  93 0054 0492     		str	r2, [sp, #16]
  21:Src/eecs473.c ****   GPIO_InitStruct.Pull = Pull;
  94              		.loc 1 21 0
ARM GAS  /tmp/cc5x3zVB.s 			page 3


  95 0056 0593     		str	r3, [sp, #20]
  22:Src/eecs473.c ****   GPIO_InitStruct.Speed = Speed;
  96              		.loc 1 22 0
  97 0058 0A9B     		ldr	r3, [sp, #40]
  98              	.LVL4:
  99 005a 0693     		str	r3, [sp, #24]
  23:Src/eecs473.c ****   HAL_GPIO_Init(GPIOD, &GPIO_InitStruct);
 100              		.loc 1 23 0
 101 005c 0448     		ldr	r0, .L4+8
 102 005e 03A9     		add	r1, sp, #12
 103              	.LVL5:
 104 0060 FFF7FEFF 		bl	HAL_GPIO_Init
 105              	.LVL6:
  24:Src/eecs473.c **** 
  25:Src/eecs473.c **** 
  26:Src/eecs473.c ****   /*GPIO_InitStruct.Pin = GPIO_PIN_8 | GPIO_PIN_9;
  27:Src/eecs473.c ****   GPIO_InitStruct.Mode = GPIO_MODE_AF_PP;
  28:Src/eecs473.c ****   GPIO_InitStruct.Pull = GPIO_NOPULL;
  29:Src/eecs473.c ****   GPIO_InitStruct.Speed = GPIO_SPEED_FREQ_VERY_HIGH;
  30:Src/eecs473.c ****   HAL_GPIO_Init(GPIOB, &GPIO_InitStruct);
  31:Src/eecs473.c **** 
  32:Src/eecs473.c ****   GPIO_InitStruct.Pin = GPIO_PIN_4;
  33:Src/eecs473.c ****   GPIO_InitStruct.Mode = GPIO_MODE_OUTPUT_PP;
  34:Src/eecs473.c ****   GPIO_InitStruct.Pull = GPIO_NOPULL;
  35:Src/eecs473.c ****   GPIO_InitStruct.Speed = GPIO_SPEED_FREQ_LOW;
  36:Src/eecs473.c ****   HAL_GPIO_Init(GPIOA, &GPIO_InitStruct);
  37:Src/eecs473.c ****   HAL_GPIO_WritePin(GPIOA, GPIO_PIN_4, GPIO_PIN_SET);*/
  38:Src/eecs473.c **** }
 106              		.loc 1 38 0
 107 0064 08B0     		add	sp, sp, #32
 108              	.LCFI2:
 109              		.cfi_def_cfa_offset 8
 110              		@ sp needed
 111 0066 10BD     		pop	{r4, pc}
 112              	.L5:
 113              		.align	2
 114              	.L4:
 115 0068 00000000 		.word	eecsGPIO
 116 006c 00380240 		.word	1073887232
 117 0070 000C0240 		.word	1073875968
 118              		.cfi_endproc
 119              	.LFE123:
 121              		.section	.text.eecs_GPIO_Write,"ax",%progbits
 122              		.align	2
 123              		.global	eecs_GPIO_Write
 124              		.thumb
 125              		.thumb_func
 127              	eecs_GPIO_Write:
 128              	.LFB124:
  39:Src/eecs473.c **** 
  40:Src/eecs473.c **** void eecs_GPIO_Write(GPIO_TypeDef *GPIOx,uint16_t Pin, GPIO_PinState PinState) {
 129              		.loc 1 40 0
 130              		.cfi_startproc
 131              		@ args = 0, pretend = 0, frame = 0
 132              		@ frame_needed = 0, uses_anonymous_args = 0
 133              	.LVL7:
 134 0000 08B5     		push	{r3, lr}
ARM GAS  /tmp/cc5x3zVB.s 			page 4


 135              	.LCFI3:
 136              		.cfi_def_cfa_offset 8
 137              		.cfi_offset 3, -8
 138              		.cfi_offset 14, -4
  41:Src/eecs473.c ****   HAL_GPIO_WritePin(GPIOx,Pin,PinState);
 139              		.loc 1 41 0
 140 0002 FFF7FEFF 		bl	HAL_GPIO_WritePin
 141              	.LVL8:
 142 0006 08BD     		pop	{r3, pc}
 143              		.cfi_endproc
 144              	.LFE124:
 146              		.section	.text.eecs_GPIO_Toggle,"ax",%progbits
 147              		.align	2
 148              		.global	eecs_GPIO_Toggle
 149              		.thumb
 150              		.thumb_func
 152              	eecs_GPIO_Toggle:
 153              	.LFB125:
  42:Src/eecs473.c **** }
  43:Src/eecs473.c **** 
  44:Src/eecs473.c **** void eecs_GPIO_Toggle(GPIO_TypeDef *GPIOx, uint16_t Pin) {
 154              		.loc 1 44 0
 155              		.cfi_startproc
 156              		@ args = 0, pretend = 0, frame = 0
 157              		@ frame_needed = 0, uses_anonymous_args = 0
 158              	.LVL9:
 159 0000 08B5     		push	{r3, lr}
 160              	.LCFI4:
 161              		.cfi_def_cfa_offset 8
 162              		.cfi_offset 3, -8
 163              		.cfi_offset 14, -4
  45:Src/eecs473.c ****   HAL_GPIO_TogglePin(GPIOx,Pin);
 164              		.loc 1 45 0
 165 0002 FFF7FEFF 		bl	HAL_GPIO_TogglePin
 166              	.LVL10:
 167 0006 08BD     		pop	{r3, pc}
 168              		.cfi_endproc
 169              	.LFE125:
 171              		.section	.text.eecs_Error_Handler,"ax",%progbits
 172              		.align	2
 173              		.global	eecs_Error_Handler
 174              		.thumb
 175              		.thumb_func
 177              	eecs_Error_Handler:
 178              	.LFB126:
  46:Src/eecs473.c **** }
  47:Src/eecs473.c **** 
  48:Src/eecs473.c **** 
  49:Src/eecs473.c **** void eecs_Error_Handler() {
 179              		.loc 1 49 0
 180              		.cfi_startproc
 181              		@ Volatile: function does not return.
 182              		@ args = 0, pretend = 0, frame = 0
 183              		@ frame_needed = 0, uses_anonymous_args = 0
 184              		@ link register save eliminated.
 185              	.L11:
  50:Src/eecs473.c **** 	while (1) {
ARM GAS  /tmp/cc5x3zVB.s 			page 5


  51:Src/eecs473.c **** 
  52:Src/eecs473.c **** 	}
 186              		.loc 1 52 0 discriminator 1
 187 0000 FEE7     		b	.L11
 188              		.cfi_endproc
 189              	.LFE126:
 191 0002 00BF     		.text
 192              	.Letext0:
 193              		.file 2 "/usr/include/newlib/machine/_default_types.h"
 194              		.file 3 "/usr/include/newlib/sys/_stdint.h"
 195              		.file 4 "Drivers/CMSIS/Device/ST/STM32F4xx/Include/stm32f407xx.h"
 196              		.file 5 "Drivers/STM32F4xx_HAL_Driver/Inc/stm32f4xx_hal_gpio.h"
 197              		.file 6 "Inc/eecs473.h"
 198              		.file 7 "Drivers/CMSIS/Include/core_cm4.h"
ARM GAS  /tmp/cc5x3zVB.s 			page 6


DEFINED SYMBOLS
                            *ABS*:0000000000000000 eecs473.c
     /tmp/cc5x3zVB.s:21     .text.eecs_GPIO_Init:0000000000000000 $t
     /tmp/cc5x3zVB.s:26     .text.eecs_GPIO_Init:0000000000000000 eecs_GPIO_Init
     /tmp/cc5x3zVB.s:115    .text.eecs_GPIO_Init:0000000000000068 $d
     /tmp/cc5x3zVB.s:122    .text.eecs_GPIO_Write:0000000000000000 $t
     /tmp/cc5x3zVB.s:127    .text.eecs_GPIO_Write:0000000000000000 eecs_GPIO_Write
     /tmp/cc5x3zVB.s:147    .text.eecs_GPIO_Toggle:0000000000000000 $t
     /tmp/cc5x3zVB.s:152    .text.eecs_GPIO_Toggle:0000000000000000 eecs_GPIO_Toggle
     /tmp/cc5x3zVB.s:172    .text.eecs_Error_Handler:0000000000000000 $t
     /tmp/cc5x3zVB.s:177    .text.eecs_Error_Handler:0000000000000000 eecs_Error_Handler
                     .debug_frame:0000000000000010 $d

UNDEFINED SYMBOLS
HAL_GPIO_Init
eecsGPIO
HAL_GPIO_WritePin
HAL_GPIO_TogglePin
