ARM GAS  /tmp/ccVQttFk.s 			page 1


   1              		.syntax unified
   2              		.cpu cortex-m4
   3              		.eabi_attribute 27, 1
   4              		.eabi_attribute 28, 1
   5              		.fpu fpv4-sp-d16
   6              		.eabi_attribute 20, 1
   7              		.eabi_attribute 21, 1
   8              		.eabi_attribute 23, 3
   9              		.eabi_attribute 24, 1
  10              		.eabi_attribute 25, 1
  11              		.eabi_attribute 26, 1
  12              		.eabi_attribute 30, 6
  13              		.eabi_attribute 34, 1
  14              		.eabi_attribute 18, 4
  15              		.thumb
  16              		.file	"cmsis_os.c"
  17              		.text
  18              	.Ltext0:
  19              		.cfi_sections	.debug_frame
  20              		.section	.text.makeFreeRtosPriority,"ax",%progbits
  21              		.align	2
  22              		.thumb
  23              		.thumb_func
  25              	makeFreeRtosPriority:
  26              	.LFB30:
  27              		.file 1 "Middlewares/Third_Party/FreeRTOS/Source/CMSIS_RTOS/cmsis_os.c"
   1:Middlewares/Third_Party/FreeRTOS/Source/CMSIS_RTOS/cmsis_os.c **** /* ----------------------------------------------------------------------
   2:Middlewares/Third_Party/FreeRTOS/Source/CMSIS_RTOS/cmsis_os.c ****  * $Date:        5. February 2013
   3:Middlewares/Third_Party/FreeRTOS/Source/CMSIS_RTOS/cmsis_os.c ****  * $Revision:    V1.02
   4:Middlewares/Third_Party/FreeRTOS/Source/CMSIS_RTOS/cmsis_os.c ****  *
   5:Middlewares/Third_Party/FreeRTOS/Source/CMSIS_RTOS/cmsis_os.c ****  * Project:      CMSIS-RTOS API
   6:Middlewares/Third_Party/FreeRTOS/Source/CMSIS_RTOS/cmsis_os.c ****  * Title:        cmsis_os.c
   7:Middlewares/Third_Party/FreeRTOS/Source/CMSIS_RTOS/cmsis_os.c ****  *
   8:Middlewares/Third_Party/FreeRTOS/Source/CMSIS_RTOS/cmsis_os.c ****  * Version 0.02
   9:Middlewares/Third_Party/FreeRTOS/Source/CMSIS_RTOS/cmsis_os.c ****  *    Initial Proposal Phase
  10:Middlewares/Third_Party/FreeRTOS/Source/CMSIS_RTOS/cmsis_os.c ****  * Version 0.03
  11:Middlewares/Third_Party/FreeRTOS/Source/CMSIS_RTOS/cmsis_os.c ****  *    osKernelStart added, optional feature: main started as thread
  12:Middlewares/Third_Party/FreeRTOS/Source/CMSIS_RTOS/cmsis_os.c ****  *    osSemaphores have standard behavior
  13:Middlewares/Third_Party/FreeRTOS/Source/CMSIS_RTOS/cmsis_os.c ****  *    osTimerCreate does not start the timer, added osTimerStart
  14:Middlewares/Third_Party/FreeRTOS/Source/CMSIS_RTOS/cmsis_os.c ****  *    osThreadPass is renamed to osThreadYield
  15:Middlewares/Third_Party/FreeRTOS/Source/CMSIS_RTOS/cmsis_os.c ****  * Version 1.01
  16:Middlewares/Third_Party/FreeRTOS/Source/CMSIS_RTOS/cmsis_os.c ****  *    Support for C++ interface
  17:Middlewares/Third_Party/FreeRTOS/Source/CMSIS_RTOS/cmsis_os.c ****  *     - const attribute removed from the osXxxxDef_t typedef's
  18:Middlewares/Third_Party/FreeRTOS/Source/CMSIS_RTOS/cmsis_os.c ****  *     - const attribute added to the osXxxxDef macros
  19:Middlewares/Third_Party/FreeRTOS/Source/CMSIS_RTOS/cmsis_os.c ****  *    Added: osTimerDelete, osMutexDelete, osSemaphoreDelete
  20:Middlewares/Third_Party/FreeRTOS/Source/CMSIS_RTOS/cmsis_os.c ****  *    Added: osKernelInitialize
  21:Middlewares/Third_Party/FreeRTOS/Source/CMSIS_RTOS/cmsis_os.c ****  * Version 1.02
  22:Middlewares/Third_Party/FreeRTOS/Source/CMSIS_RTOS/cmsis_os.c ****  *    Control functions for short timeouts in microsecond resolution:
  23:Middlewares/Third_Party/FreeRTOS/Source/CMSIS_RTOS/cmsis_os.c ****  *    Added: osKernelSysTick, osKernelSysTickFrequency, osKernelSysTickMicroSec
  24:Middlewares/Third_Party/FreeRTOS/Source/CMSIS_RTOS/cmsis_os.c ****  *    Removed: osSignalGet 
  25:Middlewares/Third_Party/FreeRTOS/Source/CMSIS_RTOS/cmsis_os.c ****  *    
  26:Middlewares/Third_Party/FreeRTOS/Source/CMSIS_RTOS/cmsis_os.c ****  *  
  27:Middlewares/Third_Party/FreeRTOS/Source/CMSIS_RTOS/cmsis_os.c ****  *----------------------------------------------------------------------------
  28:Middlewares/Third_Party/FreeRTOS/Source/CMSIS_RTOS/cmsis_os.c ****  *
  29:Middlewares/Third_Party/FreeRTOS/Source/CMSIS_RTOS/cmsis_os.c ****  * Portions Copyright © 2016 STMicroelectronics International N.V. All rights reserved.
  30:Middlewares/Third_Party/FreeRTOS/Source/CMSIS_RTOS/cmsis_os.c ****  * Portions Copyright (c) 2013 ARM LIMITED
  31:Middlewares/Third_Party/FreeRTOS/Source/CMSIS_RTOS/cmsis_os.c ****  * All rights reserved.
ARM GAS  /tmp/ccVQttFk.s 			page 2


  32:Middlewares/Third_Party/FreeRTOS/Source/CMSIS_RTOS/cmsis_os.c ****  * Redistribution and use in source and binary forms, with or without
  33:Middlewares/Third_Party/FreeRTOS/Source/CMSIS_RTOS/cmsis_os.c ****  * modification, are permitted provided that the following conditions are met:
  34:Middlewares/Third_Party/FreeRTOS/Source/CMSIS_RTOS/cmsis_os.c ****  *  - Redistributions of source code must retain the above copyright
  35:Middlewares/Third_Party/FreeRTOS/Source/CMSIS_RTOS/cmsis_os.c ****  *    notice, this list of conditions and the following disclaimer.
  36:Middlewares/Third_Party/FreeRTOS/Source/CMSIS_RTOS/cmsis_os.c ****  *  - Redistributions in binary form must reproduce the above copyright
  37:Middlewares/Third_Party/FreeRTOS/Source/CMSIS_RTOS/cmsis_os.c ****  *    notice, this list of conditions and the following disclaimer in the
  38:Middlewares/Third_Party/FreeRTOS/Source/CMSIS_RTOS/cmsis_os.c ****  *    documentation and/or other materials provided with the distribution.
  39:Middlewares/Third_Party/FreeRTOS/Source/CMSIS_RTOS/cmsis_os.c ****  *  - Neither the name of ARM  nor the names of its contributors may be used
  40:Middlewares/Third_Party/FreeRTOS/Source/CMSIS_RTOS/cmsis_os.c ****  *    to endorse or promote products derived from this software without
  41:Middlewares/Third_Party/FreeRTOS/Source/CMSIS_RTOS/cmsis_os.c ****  *    specific prior written permission.
  42:Middlewares/Third_Party/FreeRTOS/Source/CMSIS_RTOS/cmsis_os.c ****  *
  43:Middlewares/Third_Party/FreeRTOS/Source/CMSIS_RTOS/cmsis_os.c ****  * THIS SOFTWARE IS PROVIDED BY THE COPYRIGHT HOLDERS AND CONTRIBUTORS "AS IS"
  44:Middlewares/Third_Party/FreeRTOS/Source/CMSIS_RTOS/cmsis_os.c ****  * AND ANY EXPRESS OR IMPLIED WARRANTIES, INCLUDING, BUT NOT LIMITED TO, THE
  45:Middlewares/Third_Party/FreeRTOS/Source/CMSIS_RTOS/cmsis_os.c ****  * IMPLIED WARRANTIES OF MERCHANTABILITY AND FITNESS FOR A PARTICULAR PURPOSE
  46:Middlewares/Third_Party/FreeRTOS/Source/CMSIS_RTOS/cmsis_os.c ****  * ARE DISCLAIMED. IN NO EVENT SHALL COPYRIGHT HOLDERS AND CONTRIBUTORS BE
  47:Middlewares/Third_Party/FreeRTOS/Source/CMSIS_RTOS/cmsis_os.c ****  * LIABLE FOR ANY DIRECT, INDIRECT, INCIDENTAL, SPECIAL, EXEMPLARY, OR
  48:Middlewares/Third_Party/FreeRTOS/Source/CMSIS_RTOS/cmsis_os.c ****  * CONSEQUENTIAL DAMAGES (INCLUDING, BUT NOT LIMITED TO, PROCUREMENT OF
  49:Middlewares/Third_Party/FreeRTOS/Source/CMSIS_RTOS/cmsis_os.c ****  * SUBSTITUTE GOODS OR SERVICES; LOSS OF USE, DATA, OR PROFITS; OR BUSINESS
  50:Middlewares/Third_Party/FreeRTOS/Source/CMSIS_RTOS/cmsis_os.c ****  * INTERRUPTION) HOWEVER CAUSED AND ON ANY THEORY OF LIABILITY, WHETHER IN
  51:Middlewares/Third_Party/FreeRTOS/Source/CMSIS_RTOS/cmsis_os.c ****  * CONTRACT, STRICT LIABILITY, OR TORT (INCLUDING NEGLIGENCE OR OTHERWISE)
  52:Middlewares/Third_Party/FreeRTOS/Source/CMSIS_RTOS/cmsis_os.c ****  * ARISING IN ANY WAY OUT OF THE USE OF THIS SOFTWARE, EVEN IF ADVISED OF THE
  53:Middlewares/Third_Party/FreeRTOS/Source/CMSIS_RTOS/cmsis_os.c ****  * POSSIBILITY OF SUCH DAMAGE.
  54:Middlewares/Third_Party/FreeRTOS/Source/CMSIS_RTOS/cmsis_os.c ****  *---------------------------------------------------------------------------*/
  55:Middlewares/Third_Party/FreeRTOS/Source/CMSIS_RTOS/cmsis_os.c **** 
  56:Middlewares/Third_Party/FreeRTOS/Source/CMSIS_RTOS/cmsis_os.c ****  /**
  57:Middlewares/Third_Party/FreeRTOS/Source/CMSIS_RTOS/cmsis_os.c ****   ******************************************************************************
  58:Middlewares/Third_Party/FreeRTOS/Source/CMSIS_RTOS/cmsis_os.c ****   * @file    cmsis_os.c
  59:Middlewares/Third_Party/FreeRTOS/Source/CMSIS_RTOS/cmsis_os.c ****   * @author  MCD Application Team
  60:Middlewares/Third_Party/FreeRTOS/Source/CMSIS_RTOS/cmsis_os.c ****   * @date    13-July-2017
  61:Middlewares/Third_Party/FreeRTOS/Source/CMSIS_RTOS/cmsis_os.c ****   * @brief   CMSIS-RTOS API implementation for FreeRTOS V9.0.0
  62:Middlewares/Third_Party/FreeRTOS/Source/CMSIS_RTOS/cmsis_os.c ****   ******************************************************************************
  63:Middlewares/Third_Party/FreeRTOS/Source/CMSIS_RTOS/cmsis_os.c ****   * @attention
  64:Middlewares/Third_Party/FreeRTOS/Source/CMSIS_RTOS/cmsis_os.c ****   *
  65:Middlewares/Third_Party/FreeRTOS/Source/CMSIS_RTOS/cmsis_os.c ****   * Redistribution and use in source and binary forms, with or without 
  66:Middlewares/Third_Party/FreeRTOS/Source/CMSIS_RTOS/cmsis_os.c ****   * modification, are permitted, provided that the following conditions are met:
  67:Middlewares/Third_Party/FreeRTOS/Source/CMSIS_RTOS/cmsis_os.c ****   *
  68:Middlewares/Third_Party/FreeRTOS/Source/CMSIS_RTOS/cmsis_os.c ****   * 1. Redistribution of source code must retain the above copyright notice, 
  69:Middlewares/Third_Party/FreeRTOS/Source/CMSIS_RTOS/cmsis_os.c ****   *    this list of conditions and the following disclaimer.
  70:Middlewares/Third_Party/FreeRTOS/Source/CMSIS_RTOS/cmsis_os.c ****   * 2. Redistributions in binary form must reproduce the above copyright notice,
  71:Middlewares/Third_Party/FreeRTOS/Source/CMSIS_RTOS/cmsis_os.c ****   *    this list of conditions and the following disclaimer in the documentation
  72:Middlewares/Third_Party/FreeRTOS/Source/CMSIS_RTOS/cmsis_os.c ****   *    and/or other materials provided with the distribution.
  73:Middlewares/Third_Party/FreeRTOS/Source/CMSIS_RTOS/cmsis_os.c ****   * 3. Neither the name of STMicroelectronics nor the names of other 
  74:Middlewares/Third_Party/FreeRTOS/Source/CMSIS_RTOS/cmsis_os.c ****   *    contributors to this software may be used to endorse or promote products 
  75:Middlewares/Third_Party/FreeRTOS/Source/CMSIS_RTOS/cmsis_os.c ****   *    derived from this software without specific written permission.
  76:Middlewares/Third_Party/FreeRTOS/Source/CMSIS_RTOS/cmsis_os.c ****   * 4. This software, including modifications and/or derivative works of this 
  77:Middlewares/Third_Party/FreeRTOS/Source/CMSIS_RTOS/cmsis_os.c ****   *    software, must execute solely and exclusively on microcontroller or
  78:Middlewares/Third_Party/FreeRTOS/Source/CMSIS_RTOS/cmsis_os.c ****   *    microprocessor devices manufactured by or for STMicroelectronics.
  79:Middlewares/Third_Party/FreeRTOS/Source/CMSIS_RTOS/cmsis_os.c ****   * 5. Redistribution and use of this software other than as permitted under 
  80:Middlewares/Third_Party/FreeRTOS/Source/CMSIS_RTOS/cmsis_os.c ****   *    this license is void and will automatically terminate your rights under 
  81:Middlewares/Third_Party/FreeRTOS/Source/CMSIS_RTOS/cmsis_os.c ****   *    this license. 
  82:Middlewares/Third_Party/FreeRTOS/Source/CMSIS_RTOS/cmsis_os.c ****   *
  83:Middlewares/Third_Party/FreeRTOS/Source/CMSIS_RTOS/cmsis_os.c ****   * THIS SOFTWARE IS PROVIDED BY STMICROELECTRONICS AND CONTRIBUTORS "AS IS" 
  84:Middlewares/Third_Party/FreeRTOS/Source/CMSIS_RTOS/cmsis_os.c ****   * AND ANY EXPRESS, IMPLIED OR STATUTORY WARRANTIES, INCLUDING, BUT NOT 
  85:Middlewares/Third_Party/FreeRTOS/Source/CMSIS_RTOS/cmsis_os.c ****   * LIMITED TO, THE IMPLIED WARRANTIES OF MERCHANTABILITY, FITNESS FOR A 
  86:Middlewares/Third_Party/FreeRTOS/Source/CMSIS_RTOS/cmsis_os.c ****   * PARTICULAR PURPOSE AND NON-INFRINGEMENT OF THIRD PARTY INTELLECTUAL PROPERTY
  87:Middlewares/Third_Party/FreeRTOS/Source/CMSIS_RTOS/cmsis_os.c ****   * RIGHTS ARE DISCLAIMED TO THE FULLEST EXTENT PERMITTED BY LAW. IN NO EVENT 
  88:Middlewares/Third_Party/FreeRTOS/Source/CMSIS_RTOS/cmsis_os.c ****   * SHALL STMICROELECTRONICS OR CONTRIBUTORS BE LIABLE FOR ANY DIRECT, INDIRECT,
ARM GAS  /tmp/ccVQttFk.s 			page 3


  89:Middlewares/Third_Party/FreeRTOS/Source/CMSIS_RTOS/cmsis_os.c ****   * INCIDENTAL, SPECIAL, EXEMPLARY, OR CONSEQUENTIAL DAMAGES (INCLUDING, BUT NOT
  90:Middlewares/Third_Party/FreeRTOS/Source/CMSIS_RTOS/cmsis_os.c ****   * LIMITED TO, PROCUREMENT OF SUBSTITUTE GOODS OR SERVICES; LOSS OF USE, DATA, 
  91:Middlewares/Third_Party/FreeRTOS/Source/CMSIS_RTOS/cmsis_os.c ****   * OR PROFITS; OR BUSINESS INTERRUPTION) HOWEVER CAUSED AND ON ANY THEORY OF 
  92:Middlewares/Third_Party/FreeRTOS/Source/CMSIS_RTOS/cmsis_os.c ****   * LIABILITY, WHETHER IN CONTRACT, STRICT LIABILITY, OR TORT (INCLUDING 
  93:Middlewares/Third_Party/FreeRTOS/Source/CMSIS_RTOS/cmsis_os.c ****   * NEGLIGENCE OR OTHERWISE) ARISING IN ANY WAY OUT OF THE USE OF THIS SOFTWARE,
  94:Middlewares/Third_Party/FreeRTOS/Source/CMSIS_RTOS/cmsis_os.c ****   * EVEN IF ADVISED OF THE POSSIBILITY OF SUCH DAMAGE.
  95:Middlewares/Third_Party/FreeRTOS/Source/CMSIS_RTOS/cmsis_os.c ****   *
  96:Middlewares/Third_Party/FreeRTOS/Source/CMSIS_RTOS/cmsis_os.c ****   ******************************************************************************
  97:Middlewares/Third_Party/FreeRTOS/Source/CMSIS_RTOS/cmsis_os.c ****   */ 
  98:Middlewares/Third_Party/FreeRTOS/Source/CMSIS_RTOS/cmsis_os.c **** 
  99:Middlewares/Third_Party/FreeRTOS/Source/CMSIS_RTOS/cmsis_os.c **** #include <string.h>
 100:Middlewares/Third_Party/FreeRTOS/Source/CMSIS_RTOS/cmsis_os.c **** #include "cmsis_os.h"
 101:Middlewares/Third_Party/FreeRTOS/Source/CMSIS_RTOS/cmsis_os.c **** 
 102:Middlewares/Third_Party/FreeRTOS/Source/CMSIS_RTOS/cmsis_os.c **** /*
 103:Middlewares/Third_Party/FreeRTOS/Source/CMSIS_RTOS/cmsis_os.c ****  * ARM Compiler 4/5
 104:Middlewares/Third_Party/FreeRTOS/Source/CMSIS_RTOS/cmsis_os.c ****  */
 105:Middlewares/Third_Party/FreeRTOS/Source/CMSIS_RTOS/cmsis_os.c **** #if   defined ( __CC_ARM )
 106:Middlewares/Third_Party/FreeRTOS/Source/CMSIS_RTOS/cmsis_os.c **** 
 107:Middlewares/Third_Party/FreeRTOS/Source/CMSIS_RTOS/cmsis_os.c ****   #define __ASM            __asm                                      
 108:Middlewares/Third_Party/FreeRTOS/Source/CMSIS_RTOS/cmsis_os.c ****   #define __INLINE         __inline                                     
 109:Middlewares/Third_Party/FreeRTOS/Source/CMSIS_RTOS/cmsis_os.c ****   #define __STATIC_INLINE  static __inline
 110:Middlewares/Third_Party/FreeRTOS/Source/CMSIS_RTOS/cmsis_os.c **** 
 111:Middlewares/Third_Party/FreeRTOS/Source/CMSIS_RTOS/cmsis_os.c ****   #include "cmsis_armcc.h"
 112:Middlewares/Third_Party/FreeRTOS/Source/CMSIS_RTOS/cmsis_os.c **** 
 113:Middlewares/Third_Party/FreeRTOS/Source/CMSIS_RTOS/cmsis_os.c **** /*
 114:Middlewares/Third_Party/FreeRTOS/Source/CMSIS_RTOS/cmsis_os.c ****  * GNU Compiler
 115:Middlewares/Third_Party/FreeRTOS/Source/CMSIS_RTOS/cmsis_os.c ****  */
 116:Middlewares/Third_Party/FreeRTOS/Source/CMSIS_RTOS/cmsis_os.c **** #elif defined ( __GNUC__ )
 117:Middlewares/Third_Party/FreeRTOS/Source/CMSIS_RTOS/cmsis_os.c **** 
 118:Middlewares/Third_Party/FreeRTOS/Source/CMSIS_RTOS/cmsis_os.c ****   #define __ASM            __asm                                      /*!< asm keyword for GNU Comp
 119:Middlewares/Third_Party/FreeRTOS/Source/CMSIS_RTOS/cmsis_os.c ****   #define __INLINE         inline                                     /*!< inline keyword for GNU C
 120:Middlewares/Third_Party/FreeRTOS/Source/CMSIS_RTOS/cmsis_os.c ****   #define __STATIC_INLINE  static inline
 121:Middlewares/Third_Party/FreeRTOS/Source/CMSIS_RTOS/cmsis_os.c **** 
 122:Middlewares/Third_Party/FreeRTOS/Source/CMSIS_RTOS/cmsis_os.c ****   #include "cmsis_gcc.h"
 123:Middlewares/Third_Party/FreeRTOS/Source/CMSIS_RTOS/cmsis_os.c **** 
 124:Middlewares/Third_Party/FreeRTOS/Source/CMSIS_RTOS/cmsis_os.c **** 
 125:Middlewares/Third_Party/FreeRTOS/Source/CMSIS_RTOS/cmsis_os.c **** /*
 126:Middlewares/Third_Party/FreeRTOS/Source/CMSIS_RTOS/cmsis_os.c ****  * IAR Compiler
 127:Middlewares/Third_Party/FreeRTOS/Source/CMSIS_RTOS/cmsis_os.c ****  */
 128:Middlewares/Third_Party/FreeRTOS/Source/CMSIS_RTOS/cmsis_os.c **** #elif defined ( __ICCARM__ )
 129:Middlewares/Third_Party/FreeRTOS/Source/CMSIS_RTOS/cmsis_os.c **** 
 130:Middlewares/Third_Party/FreeRTOS/Source/CMSIS_RTOS/cmsis_os.c ****   #ifndef   __ASM
 131:Middlewares/Third_Party/FreeRTOS/Source/CMSIS_RTOS/cmsis_os.c ****     #define __ASM                     __asm
 132:Middlewares/Third_Party/FreeRTOS/Source/CMSIS_RTOS/cmsis_os.c ****   #endif
 133:Middlewares/Third_Party/FreeRTOS/Source/CMSIS_RTOS/cmsis_os.c ****   #ifndef   __INLINE
 134:Middlewares/Third_Party/FreeRTOS/Source/CMSIS_RTOS/cmsis_os.c ****     #define __INLINE                  inline
 135:Middlewares/Third_Party/FreeRTOS/Source/CMSIS_RTOS/cmsis_os.c ****   #endif
 136:Middlewares/Third_Party/FreeRTOS/Source/CMSIS_RTOS/cmsis_os.c ****   #ifndef   __STATIC_INLINE
 137:Middlewares/Third_Party/FreeRTOS/Source/CMSIS_RTOS/cmsis_os.c ****     #define __STATIC_INLINE           static inline
 138:Middlewares/Third_Party/FreeRTOS/Source/CMSIS_RTOS/cmsis_os.c ****   #endif
 139:Middlewares/Third_Party/FreeRTOS/Source/CMSIS_RTOS/cmsis_os.c **** 
 140:Middlewares/Third_Party/FreeRTOS/Source/CMSIS_RTOS/cmsis_os.c ****   #include <cmsis_iar.h>
 141:Middlewares/Third_Party/FreeRTOS/Source/CMSIS_RTOS/cmsis_os.c **** #endif
 142:Middlewares/Third_Party/FreeRTOS/Source/CMSIS_RTOS/cmsis_os.c **** 
 143:Middlewares/Third_Party/FreeRTOS/Source/CMSIS_RTOS/cmsis_os.c **** extern void xPortSysTickHandler(void);
 144:Middlewares/Third_Party/FreeRTOS/Source/CMSIS_RTOS/cmsis_os.c **** 
 145:Middlewares/Third_Party/FreeRTOS/Source/CMSIS_RTOS/cmsis_os.c **** /* Convert from CMSIS type osPriority to FreeRTOS priority number */
ARM GAS  /tmp/ccVQttFk.s 			page 4


 146:Middlewares/Third_Party/FreeRTOS/Source/CMSIS_RTOS/cmsis_os.c **** static unsigned portBASE_TYPE makeFreeRtosPriority (osPriority priority)
 147:Middlewares/Third_Party/FreeRTOS/Source/CMSIS_RTOS/cmsis_os.c **** {
  28              		.loc 1 147 0
  29              		.cfi_startproc
  30              		@ args = 0, pretend = 0, frame = 16
  31              		@ frame_needed = 1, uses_anonymous_args = 0
  32              		@ link register save eliminated.
  33 0000 80B4     		push	{r7}
  34              	.LCFI0:
  35              		.cfi_def_cfa_offset 4
  36              		.cfi_offset 7, -4
  37 0002 85B0     		sub	sp, sp, #20
  38              	.LCFI1:
  39              		.cfi_def_cfa_offset 24
  40 0004 00AF     		add	r7, sp, #0
  41              	.LCFI2:
  42              		.cfi_def_cfa_register 7
  43 0006 0346     		mov	r3, r0
  44 0008 FB80     		strh	r3, [r7, #6]	@ movhi
 148:Middlewares/Third_Party/FreeRTOS/Source/CMSIS_RTOS/cmsis_os.c ****   unsigned portBASE_TYPE fpriority = tskIDLE_PRIORITY;
  45              		.loc 1 148 0
  46 000a 0023     		movs	r3, #0
  47 000c FB60     		str	r3, [r7, #12]
 149:Middlewares/Third_Party/FreeRTOS/Source/CMSIS_RTOS/cmsis_os.c ****   
 150:Middlewares/Third_Party/FreeRTOS/Source/CMSIS_RTOS/cmsis_os.c ****   if (priority != osPriorityError) {
  48              		.loc 1 150 0
  49 000e B7F90630 		ldrsh	r3, [r7, #6]
  50 0012 842B     		cmp	r3, #132
  51 0014 05D0     		beq	.L2
 151:Middlewares/Third_Party/FreeRTOS/Source/CMSIS_RTOS/cmsis_os.c ****     fpriority += (priority - osPriorityIdle);
  52              		.loc 1 151 0
  53 0016 B7F90620 		ldrsh	r2, [r7, #6]
  54 001a FB68     		ldr	r3, [r7, #12]
  55 001c 1344     		add	r3, r3, r2
  56 001e 0333     		adds	r3, r3, #3
  57 0020 FB60     		str	r3, [r7, #12]
  58              	.L2:
 152:Middlewares/Third_Party/FreeRTOS/Source/CMSIS_RTOS/cmsis_os.c ****   }
 153:Middlewares/Third_Party/FreeRTOS/Source/CMSIS_RTOS/cmsis_os.c ****   
 154:Middlewares/Third_Party/FreeRTOS/Source/CMSIS_RTOS/cmsis_os.c ****   return fpriority;
  59              		.loc 1 154 0
  60 0022 FB68     		ldr	r3, [r7, #12]
 155:Middlewares/Third_Party/FreeRTOS/Source/CMSIS_RTOS/cmsis_os.c **** }
  61              		.loc 1 155 0
  62 0024 1846     		mov	r0, r3
  63 0026 1437     		adds	r7, r7, #20
  64              	.LCFI3:
  65              		.cfi_def_cfa_offset 4
  66 0028 BD46     		mov	sp, r7
  67              	.LCFI4:
  68              		.cfi_def_cfa_register 13
  69              		@ sp needed
  70 002a 5DF8047B 		ldr	r7, [sp], #4
  71              	.LCFI5:
  72              		.cfi_restore 7
  73              		.cfi_def_cfa_offset 0
  74 002e 7047     		bx	lr
ARM GAS  /tmp/ccVQttFk.s 			page 5


  75              		.cfi_endproc
  76              	.LFE30:
  78              		.section	.text.makeCmsisPriority,"ax",%progbits
  79              		.align	2
  80              		.thumb
  81              		.thumb_func
  83              	makeCmsisPriority:
  84              	.LFB31:
 156:Middlewares/Third_Party/FreeRTOS/Source/CMSIS_RTOS/cmsis_os.c **** 
 157:Middlewares/Third_Party/FreeRTOS/Source/CMSIS_RTOS/cmsis_os.c **** #if (INCLUDE_uxTaskPriorityGet == 1)
 158:Middlewares/Third_Party/FreeRTOS/Source/CMSIS_RTOS/cmsis_os.c **** /* Convert from FreeRTOS priority number to CMSIS type osPriority */
 159:Middlewares/Third_Party/FreeRTOS/Source/CMSIS_RTOS/cmsis_os.c **** static osPriority makeCmsisPriority (unsigned portBASE_TYPE fpriority)
 160:Middlewares/Third_Party/FreeRTOS/Source/CMSIS_RTOS/cmsis_os.c **** {
  85              		.loc 1 160 0
  86              		.cfi_startproc
  87              		@ args = 0, pretend = 0, frame = 16
  88              		@ frame_needed = 1, uses_anonymous_args = 0
  89              		@ link register save eliminated.
  90 0000 80B4     		push	{r7}
  91              	.LCFI6:
  92              		.cfi_def_cfa_offset 4
  93              		.cfi_offset 7, -4
  94 0002 85B0     		sub	sp, sp, #20
  95              	.LCFI7:
  96              		.cfi_def_cfa_offset 24
  97 0004 00AF     		add	r7, sp, #0
  98              	.LCFI8:
  99              		.cfi_def_cfa_register 7
 100 0006 7860     		str	r0, [r7, #4]
 161:Middlewares/Third_Party/FreeRTOS/Source/CMSIS_RTOS/cmsis_os.c ****   osPriority priority = osPriorityError;
 101              		.loc 1 161 0
 102 0008 8423     		movs	r3, #132
 103 000a FB81     		strh	r3, [r7, #14]	@ movhi
 162:Middlewares/Third_Party/FreeRTOS/Source/CMSIS_RTOS/cmsis_os.c ****   
 163:Middlewares/Third_Party/FreeRTOS/Source/CMSIS_RTOS/cmsis_os.c ****   if ((fpriority - tskIDLE_PRIORITY) <= (osPriorityRealtime - osPriorityIdle)) {
 104              		.loc 1 163 0
 105 000c 7B68     		ldr	r3, [r7, #4]
 106 000e 062B     		cmp	r3, #6
 107 0010 04D8     		bhi	.L5
 164:Middlewares/Third_Party/FreeRTOS/Source/CMSIS_RTOS/cmsis_os.c ****     priority = (osPriority)((int)osPriorityIdle + (int)(fpriority - tskIDLE_PRIORITY));
 108              		.loc 1 164 0
 109 0012 7B68     		ldr	r3, [r7, #4]
 110 0014 9BB2     		uxth	r3, r3
 111 0016 033B     		subs	r3, r3, #3
 112 0018 9BB2     		uxth	r3, r3
 113 001a FB81     		strh	r3, [r7, #14]	@ movhi
 114              	.L5:
 165:Middlewares/Third_Party/FreeRTOS/Source/CMSIS_RTOS/cmsis_os.c ****   }
 166:Middlewares/Third_Party/FreeRTOS/Source/CMSIS_RTOS/cmsis_os.c ****   
 167:Middlewares/Third_Party/FreeRTOS/Source/CMSIS_RTOS/cmsis_os.c ****   return priority;
 115              		.loc 1 167 0
 116 001c FB89     		ldrh	r3, [r7, #14]
 117 001e 1BB2     		sxth	r3, r3
 168:Middlewares/Third_Party/FreeRTOS/Source/CMSIS_RTOS/cmsis_os.c **** }
 118              		.loc 1 168 0
 119 0020 1846     		mov	r0, r3
 120 0022 1437     		adds	r7, r7, #20
ARM GAS  /tmp/ccVQttFk.s 			page 6


 121              	.LCFI9:
 122              		.cfi_def_cfa_offset 4
 123 0024 BD46     		mov	sp, r7
 124              	.LCFI10:
 125              		.cfi_def_cfa_register 13
 126              		@ sp needed
 127 0026 5DF8047B 		ldr	r7, [sp], #4
 128              	.LCFI11:
 129              		.cfi_restore 7
 130              		.cfi_def_cfa_offset 0
 131 002a 7047     		bx	lr
 132              		.cfi_endproc
 133              	.LFE31:
 135              		.section	.text.inHandlerMode,"ax",%progbits
 136              		.align	2
 137              		.thumb
 138              		.thumb_func
 140              	inHandlerMode:
 141              	.LFB32:
 169:Middlewares/Third_Party/FreeRTOS/Source/CMSIS_RTOS/cmsis_os.c **** #endif
 170:Middlewares/Third_Party/FreeRTOS/Source/CMSIS_RTOS/cmsis_os.c **** 
 171:Middlewares/Third_Party/FreeRTOS/Source/CMSIS_RTOS/cmsis_os.c **** 
 172:Middlewares/Third_Party/FreeRTOS/Source/CMSIS_RTOS/cmsis_os.c **** /* Determine whether we are in thread mode or handler mode. */
 173:Middlewares/Third_Party/FreeRTOS/Source/CMSIS_RTOS/cmsis_os.c **** static int inHandlerMode (void)
 174:Middlewares/Third_Party/FreeRTOS/Source/CMSIS_RTOS/cmsis_os.c **** {
 142              		.loc 1 174 0
 143              		.cfi_startproc
 144              		@ args = 0, pretend = 0, frame = 8
 145              		@ frame_needed = 1, uses_anonymous_args = 0
 146              		@ link register save eliminated.
 147 0000 80B4     		push	{r7}
 148              	.LCFI12:
 149              		.cfi_def_cfa_offset 4
 150              		.cfi_offset 7, -4
 151 0002 83B0     		sub	sp, sp, #12
 152              	.LCFI13:
 153              		.cfi_def_cfa_offset 16
 154 0004 00AF     		add	r7, sp, #0
 155              	.LCFI14:
 156              		.cfi_def_cfa_register 7
 157              	.LBB8:
 158              	.LBB9:
 159              		.file 2 "Drivers/CMSIS/Include/cmsis_gcc.h"
   1:Drivers/CMSIS/Include/cmsis_gcc.h **** /**************************************************************************//**
   2:Drivers/CMSIS/Include/cmsis_gcc.h ****  * @file     cmsis_gcc.h
   3:Drivers/CMSIS/Include/cmsis_gcc.h ****  * @brief    CMSIS Cortex-M Core Function/Instruction Header File
   4:Drivers/CMSIS/Include/cmsis_gcc.h ****  * @version  V4.30
   5:Drivers/CMSIS/Include/cmsis_gcc.h ****  * @date     20. October 2015
   6:Drivers/CMSIS/Include/cmsis_gcc.h ****  ******************************************************************************/
   7:Drivers/CMSIS/Include/cmsis_gcc.h **** /* Copyright (c) 2009 - 2015 ARM LIMITED
   8:Drivers/CMSIS/Include/cmsis_gcc.h **** 
   9:Drivers/CMSIS/Include/cmsis_gcc.h ****    All rights reserved.
  10:Drivers/CMSIS/Include/cmsis_gcc.h ****    Redistribution and use in source and binary forms, with or without
  11:Drivers/CMSIS/Include/cmsis_gcc.h ****    modification, are permitted provided that the following conditions are met:
  12:Drivers/CMSIS/Include/cmsis_gcc.h ****    - Redistributions of source code must retain the above copyright
  13:Drivers/CMSIS/Include/cmsis_gcc.h ****      notice, this list of conditions and the following disclaimer.
  14:Drivers/CMSIS/Include/cmsis_gcc.h ****    - Redistributions in binary form must reproduce the above copyright
ARM GAS  /tmp/ccVQttFk.s 			page 7


  15:Drivers/CMSIS/Include/cmsis_gcc.h ****      notice, this list of conditions and the following disclaimer in the
  16:Drivers/CMSIS/Include/cmsis_gcc.h ****      documentation and/or other materials provided with the distribution.
  17:Drivers/CMSIS/Include/cmsis_gcc.h ****    - Neither the name of ARM nor the names of its contributors may be used
  18:Drivers/CMSIS/Include/cmsis_gcc.h ****      to endorse or promote products derived from this software without
  19:Drivers/CMSIS/Include/cmsis_gcc.h ****      specific prior written permission.
  20:Drivers/CMSIS/Include/cmsis_gcc.h ****    *
  21:Drivers/CMSIS/Include/cmsis_gcc.h ****    THIS SOFTWARE IS PROVIDED BY THE COPYRIGHT HOLDERS AND CONTRIBUTORS "AS IS"
  22:Drivers/CMSIS/Include/cmsis_gcc.h ****    AND ANY EXPRESS OR IMPLIED WARRANTIES, INCLUDING, BUT NOT LIMITED TO, THE
  23:Drivers/CMSIS/Include/cmsis_gcc.h ****    IMPLIED WARRANTIES OF MERCHANTABILITY AND FITNESS FOR A PARTICULAR PURPOSE
  24:Drivers/CMSIS/Include/cmsis_gcc.h ****    ARE DISCLAIMED. IN NO EVENT SHALL COPYRIGHT HOLDERS AND CONTRIBUTORS BE
  25:Drivers/CMSIS/Include/cmsis_gcc.h ****    LIABLE FOR ANY DIRECT, INDIRECT, INCIDENTAL, SPECIAL, EXEMPLARY, OR
  26:Drivers/CMSIS/Include/cmsis_gcc.h ****    CONSEQUENTIAL DAMAGES (INCLUDING, BUT NOT LIMITED TO, PROCUREMENT OF
  27:Drivers/CMSIS/Include/cmsis_gcc.h ****    SUBSTITUTE GOODS OR SERVICES; LOSS OF USE, DATA, OR PROFITS; OR BUSINESS
  28:Drivers/CMSIS/Include/cmsis_gcc.h ****    INTERRUPTION) HOWEVER CAUSED AND ON ANY THEORY OF LIABILITY, WHETHER IN
  29:Drivers/CMSIS/Include/cmsis_gcc.h ****    CONTRACT, STRICT LIABILITY, OR TORT (INCLUDING NEGLIGENCE OR OTHERWISE)
  30:Drivers/CMSIS/Include/cmsis_gcc.h ****    ARISING IN ANY WAY OUT OF THE USE OF THIS SOFTWARE, EVEN IF ADVISED OF THE
  31:Drivers/CMSIS/Include/cmsis_gcc.h ****    POSSIBILITY OF SUCH DAMAGE.
  32:Drivers/CMSIS/Include/cmsis_gcc.h ****    ---------------------------------------------------------------------------*/
  33:Drivers/CMSIS/Include/cmsis_gcc.h **** 
  34:Drivers/CMSIS/Include/cmsis_gcc.h **** 
  35:Drivers/CMSIS/Include/cmsis_gcc.h **** #ifndef __CMSIS_GCC_H
  36:Drivers/CMSIS/Include/cmsis_gcc.h **** #define __CMSIS_GCC_H
  37:Drivers/CMSIS/Include/cmsis_gcc.h **** 
  38:Drivers/CMSIS/Include/cmsis_gcc.h **** /* ignore some GCC warnings */
  39:Drivers/CMSIS/Include/cmsis_gcc.h **** #if defined ( __GNUC__ )
  40:Drivers/CMSIS/Include/cmsis_gcc.h **** #pragma GCC diagnostic push
  41:Drivers/CMSIS/Include/cmsis_gcc.h **** #pragma GCC diagnostic ignored "-Wsign-conversion"
  42:Drivers/CMSIS/Include/cmsis_gcc.h **** #pragma GCC diagnostic ignored "-Wconversion"
  43:Drivers/CMSIS/Include/cmsis_gcc.h **** #pragma GCC diagnostic ignored "-Wunused-parameter"
  44:Drivers/CMSIS/Include/cmsis_gcc.h **** #endif
  45:Drivers/CMSIS/Include/cmsis_gcc.h **** 
  46:Drivers/CMSIS/Include/cmsis_gcc.h **** 
  47:Drivers/CMSIS/Include/cmsis_gcc.h **** /* ###########################  Core Function Access  ########################### */
  48:Drivers/CMSIS/Include/cmsis_gcc.h **** /** \ingroup  CMSIS_Core_FunctionInterface
  49:Drivers/CMSIS/Include/cmsis_gcc.h ****     \defgroup CMSIS_Core_RegAccFunctions CMSIS Core Register Access Functions
  50:Drivers/CMSIS/Include/cmsis_gcc.h ****   @{
  51:Drivers/CMSIS/Include/cmsis_gcc.h ****  */
  52:Drivers/CMSIS/Include/cmsis_gcc.h **** 
  53:Drivers/CMSIS/Include/cmsis_gcc.h **** /**
  54:Drivers/CMSIS/Include/cmsis_gcc.h ****   \brief   Enable IRQ Interrupts
  55:Drivers/CMSIS/Include/cmsis_gcc.h ****   \details Enables IRQ interrupts by clearing the I-bit in the CPSR.
  56:Drivers/CMSIS/Include/cmsis_gcc.h ****            Can only be executed in Privileged modes.
  57:Drivers/CMSIS/Include/cmsis_gcc.h ****  */
  58:Drivers/CMSIS/Include/cmsis_gcc.h **** __attribute__( ( always_inline ) ) __STATIC_INLINE void __enable_irq(void)
  59:Drivers/CMSIS/Include/cmsis_gcc.h **** {
  60:Drivers/CMSIS/Include/cmsis_gcc.h ****   __ASM volatile ("cpsie i" : : : "memory");
  61:Drivers/CMSIS/Include/cmsis_gcc.h **** }
  62:Drivers/CMSIS/Include/cmsis_gcc.h **** 
  63:Drivers/CMSIS/Include/cmsis_gcc.h **** 
  64:Drivers/CMSIS/Include/cmsis_gcc.h **** /**
  65:Drivers/CMSIS/Include/cmsis_gcc.h ****   \brief   Disable IRQ Interrupts
  66:Drivers/CMSIS/Include/cmsis_gcc.h ****   \details Disables IRQ interrupts by setting the I-bit in the CPSR.
  67:Drivers/CMSIS/Include/cmsis_gcc.h ****   Can only be executed in Privileged modes.
  68:Drivers/CMSIS/Include/cmsis_gcc.h ****  */
  69:Drivers/CMSIS/Include/cmsis_gcc.h **** __attribute__( ( always_inline ) ) __STATIC_INLINE void __disable_irq(void)
  70:Drivers/CMSIS/Include/cmsis_gcc.h **** {
  71:Drivers/CMSIS/Include/cmsis_gcc.h ****   __ASM volatile ("cpsid i" : : : "memory");
ARM GAS  /tmp/ccVQttFk.s 			page 8


  72:Drivers/CMSIS/Include/cmsis_gcc.h **** }
  73:Drivers/CMSIS/Include/cmsis_gcc.h **** 
  74:Drivers/CMSIS/Include/cmsis_gcc.h **** 
  75:Drivers/CMSIS/Include/cmsis_gcc.h **** /**
  76:Drivers/CMSIS/Include/cmsis_gcc.h ****   \brief   Get Control Register
  77:Drivers/CMSIS/Include/cmsis_gcc.h ****   \details Returns the content of the Control Register.
  78:Drivers/CMSIS/Include/cmsis_gcc.h ****   \return               Control Register value
  79:Drivers/CMSIS/Include/cmsis_gcc.h ****  */
  80:Drivers/CMSIS/Include/cmsis_gcc.h **** __attribute__( ( always_inline ) ) __STATIC_INLINE uint32_t __get_CONTROL(void)
  81:Drivers/CMSIS/Include/cmsis_gcc.h **** {
  82:Drivers/CMSIS/Include/cmsis_gcc.h ****   uint32_t result;
  83:Drivers/CMSIS/Include/cmsis_gcc.h **** 
  84:Drivers/CMSIS/Include/cmsis_gcc.h ****   __ASM volatile ("MRS %0, control" : "=r" (result) );
  85:Drivers/CMSIS/Include/cmsis_gcc.h ****   return(result);
  86:Drivers/CMSIS/Include/cmsis_gcc.h **** }
  87:Drivers/CMSIS/Include/cmsis_gcc.h **** 
  88:Drivers/CMSIS/Include/cmsis_gcc.h **** 
  89:Drivers/CMSIS/Include/cmsis_gcc.h **** /**
  90:Drivers/CMSIS/Include/cmsis_gcc.h ****   \brief   Set Control Register
  91:Drivers/CMSIS/Include/cmsis_gcc.h ****   \details Writes the given value to the Control Register.
  92:Drivers/CMSIS/Include/cmsis_gcc.h ****   \param [in]    control  Control Register value to set
  93:Drivers/CMSIS/Include/cmsis_gcc.h ****  */
  94:Drivers/CMSIS/Include/cmsis_gcc.h **** __attribute__( ( always_inline ) ) __STATIC_INLINE void __set_CONTROL(uint32_t control)
  95:Drivers/CMSIS/Include/cmsis_gcc.h **** {
  96:Drivers/CMSIS/Include/cmsis_gcc.h ****   __ASM volatile ("MSR control, %0" : : "r" (control) : "memory");
  97:Drivers/CMSIS/Include/cmsis_gcc.h **** }
  98:Drivers/CMSIS/Include/cmsis_gcc.h **** 
  99:Drivers/CMSIS/Include/cmsis_gcc.h **** 
 100:Drivers/CMSIS/Include/cmsis_gcc.h **** /**
 101:Drivers/CMSIS/Include/cmsis_gcc.h ****   \brief   Get IPSR Register
 102:Drivers/CMSIS/Include/cmsis_gcc.h ****   \details Returns the content of the IPSR Register.
 103:Drivers/CMSIS/Include/cmsis_gcc.h ****   \return               IPSR Register value
 104:Drivers/CMSIS/Include/cmsis_gcc.h ****  */
 105:Drivers/CMSIS/Include/cmsis_gcc.h **** __attribute__( ( always_inline ) ) __STATIC_INLINE uint32_t __get_IPSR(void)
 106:Drivers/CMSIS/Include/cmsis_gcc.h **** {
 107:Drivers/CMSIS/Include/cmsis_gcc.h ****   uint32_t result;
 108:Drivers/CMSIS/Include/cmsis_gcc.h **** 
 109:Drivers/CMSIS/Include/cmsis_gcc.h ****   __ASM volatile ("MRS %0, ipsr" : "=r" (result) );
 160              		.loc 2 109 0
 161              	@ 109 "Drivers/CMSIS/Include/cmsis_gcc.h" 1
 162 0006 EFF30583 		MRS r3, ipsr
 163              	@ 0 "" 2
 164              		.thumb
 165 000a 7B60     		str	r3, [r7, #4]
 110:Drivers/CMSIS/Include/cmsis_gcc.h ****   return(result);
 166              		.loc 2 110 0
 167 000c 7B68     		ldr	r3, [r7, #4]
 168              	.LBE9:
 169              	.LBE8:
 175:Middlewares/Third_Party/FreeRTOS/Source/CMSIS_RTOS/cmsis_os.c ****   return __get_IPSR() != 0;
 170              		.loc 1 175 0
 171 000e 002B     		cmp	r3, #0
 172 0010 14BF     		ite	ne
 173 0012 0123     		movne	r3, #1
 174 0014 0023     		moveq	r3, #0
 175 0016 DBB2     		uxtb	r3, r3
 176:Middlewares/Third_Party/FreeRTOS/Source/CMSIS_RTOS/cmsis_os.c **** }
ARM GAS  /tmp/ccVQttFk.s 			page 9


 176              		.loc 1 176 0
 177 0018 1846     		mov	r0, r3
 178 001a 0C37     		adds	r7, r7, #12
 179              	.LCFI15:
 180              		.cfi_def_cfa_offset 4
 181 001c BD46     		mov	sp, r7
 182              	.LCFI16:
 183              		.cfi_def_cfa_register 13
 184              		@ sp needed
 185 001e 5DF8047B 		ldr	r7, [sp], #4
 186              	.LCFI17:
 187              		.cfi_restore 7
 188              		.cfi_def_cfa_offset 0
 189 0022 7047     		bx	lr
 190              		.cfi_endproc
 191              	.LFE32:
 193              		.section	.text.osKernelStart,"ax",%progbits
 194              		.align	2
 195              		.global	osKernelStart
 196              		.thumb
 197              		.thumb_func
 199              	osKernelStart:
 200              	.LFB33:
 177:Middlewares/Third_Party/FreeRTOS/Source/CMSIS_RTOS/cmsis_os.c **** 
 178:Middlewares/Third_Party/FreeRTOS/Source/CMSIS_RTOS/cmsis_os.c **** /*********************** Kernel Control Functions *****************************/
 179:Middlewares/Third_Party/FreeRTOS/Source/CMSIS_RTOS/cmsis_os.c **** /**
 180:Middlewares/Third_Party/FreeRTOS/Source/CMSIS_RTOS/cmsis_os.c **** * @brief  Initialize the RTOS Kernel for creating objects.
 181:Middlewares/Third_Party/FreeRTOS/Source/CMSIS_RTOS/cmsis_os.c **** * @retval status code that indicates the execution status of the function.
 182:Middlewares/Third_Party/FreeRTOS/Source/CMSIS_RTOS/cmsis_os.c **** * @note   MUST REMAIN UNCHANGED: \b osKernelInitialize shall be consistent in every CMSIS-RTOS.
 183:Middlewares/Third_Party/FreeRTOS/Source/CMSIS_RTOS/cmsis_os.c **** */
 184:Middlewares/Third_Party/FreeRTOS/Source/CMSIS_RTOS/cmsis_os.c **** osStatus osKernelInitialize (void);
 185:Middlewares/Third_Party/FreeRTOS/Source/CMSIS_RTOS/cmsis_os.c **** 
 186:Middlewares/Third_Party/FreeRTOS/Source/CMSIS_RTOS/cmsis_os.c **** /**
 187:Middlewares/Third_Party/FreeRTOS/Source/CMSIS_RTOS/cmsis_os.c **** * @brief  Start the RTOS Kernel with executing the specified thread.
 188:Middlewares/Third_Party/FreeRTOS/Source/CMSIS_RTOS/cmsis_os.c **** * @param  thread_def    thread definition referenced with \ref osThread.
 189:Middlewares/Third_Party/FreeRTOS/Source/CMSIS_RTOS/cmsis_os.c **** * @param  argument      pointer that is passed to the thread function as start argument.
 190:Middlewares/Third_Party/FreeRTOS/Source/CMSIS_RTOS/cmsis_os.c **** * @retval status code that indicates the execution status of the function
 191:Middlewares/Third_Party/FreeRTOS/Source/CMSIS_RTOS/cmsis_os.c **** * @note   MUST REMAIN UNCHANGED: \b osKernelStart shall be consistent in every CMSIS-RTOS.
 192:Middlewares/Third_Party/FreeRTOS/Source/CMSIS_RTOS/cmsis_os.c **** */
 193:Middlewares/Third_Party/FreeRTOS/Source/CMSIS_RTOS/cmsis_os.c **** osStatus osKernelStart (void)
 194:Middlewares/Third_Party/FreeRTOS/Source/CMSIS_RTOS/cmsis_os.c **** {
 201              		.loc 1 194 0
 202              		.cfi_startproc
 203              		@ args = 0, pretend = 0, frame = 0
 204              		@ frame_needed = 1, uses_anonymous_args = 0
 205 0000 80B5     		push	{r7, lr}
 206              	.LCFI18:
 207              		.cfi_def_cfa_offset 8
 208              		.cfi_offset 7, -8
 209              		.cfi_offset 14, -4
 210 0002 00AF     		add	r7, sp, #0
 211              	.LCFI19:
 212              		.cfi_def_cfa_register 7
 195:Middlewares/Third_Party/FreeRTOS/Source/CMSIS_RTOS/cmsis_os.c ****   vTaskStartScheduler();
 213              		.loc 1 195 0
 214 0004 FFF7FEFF 		bl	vTaskStartScheduler
 196:Middlewares/Third_Party/FreeRTOS/Source/CMSIS_RTOS/cmsis_os.c ****   
ARM GAS  /tmp/ccVQttFk.s 			page 10


 197:Middlewares/Third_Party/FreeRTOS/Source/CMSIS_RTOS/cmsis_os.c ****   return osOK;
 215              		.loc 1 197 0
 216 0008 0023     		movs	r3, #0
 198:Middlewares/Third_Party/FreeRTOS/Source/CMSIS_RTOS/cmsis_os.c **** }
 217              		.loc 1 198 0
 218 000a 1846     		mov	r0, r3
 219 000c 80BD     		pop	{r7, pc}
 220              		.cfi_endproc
 221              	.LFE33:
 223 000e 00BF     		.section	.text.osKernelRunning,"ax",%progbits
 224              		.align	2
 225              		.global	osKernelRunning
 226              		.thumb
 227              		.thumb_func
 229              	osKernelRunning:
 230              	.LFB34:
 199:Middlewares/Third_Party/FreeRTOS/Source/CMSIS_RTOS/cmsis_os.c **** 
 200:Middlewares/Third_Party/FreeRTOS/Source/CMSIS_RTOS/cmsis_os.c **** /**
 201:Middlewares/Third_Party/FreeRTOS/Source/CMSIS_RTOS/cmsis_os.c **** * @brief  Check if the RTOS kernel is already started
 202:Middlewares/Third_Party/FreeRTOS/Source/CMSIS_RTOS/cmsis_os.c **** * @param  None
 203:Middlewares/Third_Party/FreeRTOS/Source/CMSIS_RTOS/cmsis_os.c **** * @retval (0) RTOS is not started
 204:Middlewares/Third_Party/FreeRTOS/Source/CMSIS_RTOS/cmsis_os.c **** *         (1) RTOS is started
 205:Middlewares/Third_Party/FreeRTOS/Source/CMSIS_RTOS/cmsis_os.c **** *         (-1) if this feature is disabled in FreeRTOSConfig.h 
 206:Middlewares/Third_Party/FreeRTOS/Source/CMSIS_RTOS/cmsis_os.c **** * @note  MUST REMAIN UNCHANGED: \b osKernelRunning shall be consistent in every CMSIS-RTOS.
 207:Middlewares/Third_Party/FreeRTOS/Source/CMSIS_RTOS/cmsis_os.c **** */
 208:Middlewares/Third_Party/FreeRTOS/Source/CMSIS_RTOS/cmsis_os.c **** int32_t osKernelRunning(void)
 209:Middlewares/Third_Party/FreeRTOS/Source/CMSIS_RTOS/cmsis_os.c **** {
 231              		.loc 1 209 0
 232              		.cfi_startproc
 233              		@ args = 0, pretend = 0, frame = 0
 234              		@ frame_needed = 1, uses_anonymous_args = 0
 235 0000 80B5     		push	{r7, lr}
 236              	.LCFI20:
 237              		.cfi_def_cfa_offset 8
 238              		.cfi_offset 7, -8
 239              		.cfi_offset 14, -4
 240 0002 00AF     		add	r7, sp, #0
 241              	.LCFI21:
 242              		.cfi_def_cfa_register 7
 210:Middlewares/Third_Party/FreeRTOS/Source/CMSIS_RTOS/cmsis_os.c **** #if ( ( INCLUDE_xTaskGetSchedulerState == 1 ) || ( configUSE_TIMERS == 1 ) )
 211:Middlewares/Third_Party/FreeRTOS/Source/CMSIS_RTOS/cmsis_os.c ****   if (xTaskGetSchedulerState() == taskSCHEDULER_NOT_STARTED)
 243              		.loc 1 211 0
 244 0004 FFF7FEFF 		bl	xTaskGetSchedulerState
 245 0008 0346     		mov	r3, r0
 246 000a 012B     		cmp	r3, #1
 247 000c 01D1     		bne	.L13
 212:Middlewares/Third_Party/FreeRTOS/Source/CMSIS_RTOS/cmsis_os.c ****     return 0;
 248              		.loc 1 212 0
 249 000e 0023     		movs	r3, #0
 250 0010 00E0     		b	.L14
 251              	.L13:
 213:Middlewares/Third_Party/FreeRTOS/Source/CMSIS_RTOS/cmsis_os.c ****   else
 214:Middlewares/Third_Party/FreeRTOS/Source/CMSIS_RTOS/cmsis_os.c ****     return 1;
 252              		.loc 1 214 0
 253 0012 0123     		movs	r3, #1
 254              	.L14:
 215:Middlewares/Third_Party/FreeRTOS/Source/CMSIS_RTOS/cmsis_os.c **** #else
ARM GAS  /tmp/ccVQttFk.s 			page 11


 216:Middlewares/Third_Party/FreeRTOS/Source/CMSIS_RTOS/cmsis_os.c **** 	return (-1);
 217:Middlewares/Third_Party/FreeRTOS/Source/CMSIS_RTOS/cmsis_os.c **** #endif	
 218:Middlewares/Third_Party/FreeRTOS/Source/CMSIS_RTOS/cmsis_os.c **** }
 255              		.loc 1 218 0
 256 0014 1846     		mov	r0, r3
 257 0016 80BD     		pop	{r7, pc}
 258              		.cfi_endproc
 259              	.LFE34:
 261              		.section	.text.osKernelSysTick,"ax",%progbits
 262              		.align	2
 263              		.global	osKernelSysTick
 264              		.thumb
 265              		.thumb_func
 267              	osKernelSysTick:
 268              	.LFB35:
 219:Middlewares/Third_Party/FreeRTOS/Source/CMSIS_RTOS/cmsis_os.c **** 
 220:Middlewares/Third_Party/FreeRTOS/Source/CMSIS_RTOS/cmsis_os.c **** #if (defined (osFeature_SysTick)  &&  (osFeature_SysTick != 0))     // System Timer available
 221:Middlewares/Third_Party/FreeRTOS/Source/CMSIS_RTOS/cmsis_os.c **** /**
 222:Middlewares/Third_Party/FreeRTOS/Source/CMSIS_RTOS/cmsis_os.c **** * @brief  Get the value of the Kernel SysTick timer
 223:Middlewares/Third_Party/FreeRTOS/Source/CMSIS_RTOS/cmsis_os.c **** * @param  None
 224:Middlewares/Third_Party/FreeRTOS/Source/CMSIS_RTOS/cmsis_os.c **** * @retval None
 225:Middlewares/Third_Party/FreeRTOS/Source/CMSIS_RTOS/cmsis_os.c **** * @note   MUST REMAIN UNCHANGED: \b osKernelSysTick shall be consistent in every CMSIS-RTOS.
 226:Middlewares/Third_Party/FreeRTOS/Source/CMSIS_RTOS/cmsis_os.c **** */
 227:Middlewares/Third_Party/FreeRTOS/Source/CMSIS_RTOS/cmsis_os.c **** uint32_t osKernelSysTick(void)
 228:Middlewares/Third_Party/FreeRTOS/Source/CMSIS_RTOS/cmsis_os.c **** {
 269              		.loc 1 228 0
 270              		.cfi_startproc
 271              		@ args = 0, pretend = 0, frame = 0
 272              		@ frame_needed = 1, uses_anonymous_args = 0
 273 0000 80B5     		push	{r7, lr}
 274              	.LCFI22:
 275              		.cfi_def_cfa_offset 8
 276              		.cfi_offset 7, -8
 277              		.cfi_offset 14, -4
 278 0002 00AF     		add	r7, sp, #0
 279              	.LCFI23:
 280              		.cfi_def_cfa_register 7
 229:Middlewares/Third_Party/FreeRTOS/Source/CMSIS_RTOS/cmsis_os.c ****   if (inHandlerMode()) {
 281              		.loc 1 229 0
 282 0004 FFF7FEFF 		bl	inHandlerMode
 283 0008 0346     		mov	r3, r0
 284 000a 002B     		cmp	r3, #0
 285 000c 03D0     		beq	.L16
 230:Middlewares/Third_Party/FreeRTOS/Source/CMSIS_RTOS/cmsis_os.c ****     return xTaskGetTickCountFromISR();
 286              		.loc 1 230 0
 287 000e FFF7FEFF 		bl	xTaskGetTickCountFromISR
 288 0012 0346     		mov	r3, r0
 289 0014 02E0     		b	.L17
 290              	.L16:
 231:Middlewares/Third_Party/FreeRTOS/Source/CMSIS_RTOS/cmsis_os.c ****   }
 232:Middlewares/Third_Party/FreeRTOS/Source/CMSIS_RTOS/cmsis_os.c ****   else {
 233:Middlewares/Third_Party/FreeRTOS/Source/CMSIS_RTOS/cmsis_os.c ****     return xTaskGetTickCount();
 291              		.loc 1 233 0
 292 0016 FFF7FEFF 		bl	xTaskGetTickCount
 293 001a 0346     		mov	r3, r0
 294              	.L17:
 234:Middlewares/Third_Party/FreeRTOS/Source/CMSIS_RTOS/cmsis_os.c ****   }
ARM GAS  /tmp/ccVQttFk.s 			page 12


 235:Middlewares/Third_Party/FreeRTOS/Source/CMSIS_RTOS/cmsis_os.c **** }
 295              		.loc 1 235 0
 296 001c 1846     		mov	r0, r3
 297 001e 80BD     		pop	{r7, pc}
 298              		.cfi_endproc
 299              	.LFE35:
 301              		.section	.text.osThreadCreate,"ax",%progbits
 302              		.align	2
 303              		.global	osThreadCreate
 304              		.thumb
 305              		.thumb_func
 307              	osThreadCreate:
 308              	.LFB36:
 236:Middlewares/Third_Party/FreeRTOS/Source/CMSIS_RTOS/cmsis_os.c **** #endif    // System Timer available
 237:Middlewares/Third_Party/FreeRTOS/Source/CMSIS_RTOS/cmsis_os.c **** /*********************** Thread Management *****************************/
 238:Middlewares/Third_Party/FreeRTOS/Source/CMSIS_RTOS/cmsis_os.c **** /**
 239:Middlewares/Third_Party/FreeRTOS/Source/CMSIS_RTOS/cmsis_os.c **** * @brief  Create a thread and add it to Active Threads and set it to state READY.
 240:Middlewares/Third_Party/FreeRTOS/Source/CMSIS_RTOS/cmsis_os.c **** * @param  thread_def    thread definition referenced with \ref osThread.
 241:Middlewares/Third_Party/FreeRTOS/Source/CMSIS_RTOS/cmsis_os.c **** * @param  argument      pointer that is passed to the thread function as start argument.
 242:Middlewares/Third_Party/FreeRTOS/Source/CMSIS_RTOS/cmsis_os.c **** * @retval thread ID for reference by other functions or NULL in case of error.
 243:Middlewares/Third_Party/FreeRTOS/Source/CMSIS_RTOS/cmsis_os.c **** * @note   MUST REMAIN UNCHANGED: \b osThreadCreate shall be consistent in every CMSIS-RTOS.
 244:Middlewares/Third_Party/FreeRTOS/Source/CMSIS_RTOS/cmsis_os.c **** */
 245:Middlewares/Third_Party/FreeRTOS/Source/CMSIS_RTOS/cmsis_os.c **** osThreadId osThreadCreate (const osThreadDef_t *thread_def, void *argument)
 246:Middlewares/Third_Party/FreeRTOS/Source/CMSIS_RTOS/cmsis_os.c **** {
 309              		.loc 1 246 0
 310              		.cfi_startproc
 311              		@ args = 0, pretend = 0, frame = 16
 312              		@ frame_needed = 1, uses_anonymous_args = 0
 313 0000 F0B5     		push	{r4, r5, r6, r7, lr}
 314              	.LCFI24:
 315              		.cfi_def_cfa_offset 20
 316              		.cfi_offset 4, -20
 317              		.cfi_offset 5, -16
 318              		.cfi_offset 6, -12
 319              		.cfi_offset 7, -8
 320              		.cfi_offset 14, -4
 321 0002 87B0     		sub	sp, sp, #28
 322              	.LCFI25:
 323              		.cfi_def_cfa_offset 48
 324 0004 02AF     		add	r7, sp, #8
 325              	.LCFI26:
 326              		.cfi_def_cfa 7, 40
 327 0006 7860     		str	r0, [r7, #4]
 328 0008 3960     		str	r1, [r7]
 247:Middlewares/Third_Party/FreeRTOS/Source/CMSIS_RTOS/cmsis_os.c ****   TaskHandle_t handle;
 248:Middlewares/Third_Party/FreeRTOS/Source/CMSIS_RTOS/cmsis_os.c ****   
 249:Middlewares/Third_Party/FreeRTOS/Source/CMSIS_RTOS/cmsis_os.c **** #if( configSUPPORT_STATIC_ALLOCATION == 1 ) &&  ( configSUPPORT_DYNAMIC_ALLOCATION == 1 )
 250:Middlewares/Third_Party/FreeRTOS/Source/CMSIS_RTOS/cmsis_os.c ****   if((thread_def->buffer != NULL) && (thread_def->controlblock != NULL)) {
 251:Middlewares/Third_Party/FreeRTOS/Source/CMSIS_RTOS/cmsis_os.c ****     handle = xTaskCreateStatic((TaskFunction_t)thread_def->pthread,(const portCHAR *)thread_def->na
 252:Middlewares/Third_Party/FreeRTOS/Source/CMSIS_RTOS/cmsis_os.c ****               thread_def->stacksize, argument, makeFreeRtosPriority(thread_def->tpriority),
 253:Middlewares/Third_Party/FreeRTOS/Source/CMSIS_RTOS/cmsis_os.c ****               thread_def->buffer, thread_def->controlblock);
 254:Middlewares/Third_Party/FreeRTOS/Source/CMSIS_RTOS/cmsis_os.c ****   }
 255:Middlewares/Third_Party/FreeRTOS/Source/CMSIS_RTOS/cmsis_os.c ****   else {
 256:Middlewares/Third_Party/FreeRTOS/Source/CMSIS_RTOS/cmsis_os.c ****     if (xTaskCreate((TaskFunction_t)thread_def->pthread,(const portCHAR *)thread_def->name,
 257:Middlewares/Third_Party/FreeRTOS/Source/CMSIS_RTOS/cmsis_os.c ****               thread_def->stacksize, argument, makeFreeRtosPriority(thread_def->tpriority),
 258:Middlewares/Third_Party/FreeRTOS/Source/CMSIS_RTOS/cmsis_os.c ****               &handle) != pdPASS)  {
 259:Middlewares/Third_Party/FreeRTOS/Source/CMSIS_RTOS/cmsis_os.c ****       return NULL;
ARM GAS  /tmp/ccVQttFk.s 			page 13


 260:Middlewares/Third_Party/FreeRTOS/Source/CMSIS_RTOS/cmsis_os.c ****     } 
 261:Middlewares/Third_Party/FreeRTOS/Source/CMSIS_RTOS/cmsis_os.c ****   }
 262:Middlewares/Third_Party/FreeRTOS/Source/CMSIS_RTOS/cmsis_os.c **** #elif( configSUPPORT_STATIC_ALLOCATION == 1 )
 263:Middlewares/Third_Party/FreeRTOS/Source/CMSIS_RTOS/cmsis_os.c **** 
 264:Middlewares/Third_Party/FreeRTOS/Source/CMSIS_RTOS/cmsis_os.c ****     handle = xTaskCreateStatic((TaskFunction_t)thread_def->pthread,(const portCHAR *)thread_def->na
 265:Middlewares/Third_Party/FreeRTOS/Source/CMSIS_RTOS/cmsis_os.c ****               thread_def->stacksize, argument, makeFreeRtosPriority(thread_def->tpriority),
 266:Middlewares/Third_Party/FreeRTOS/Source/CMSIS_RTOS/cmsis_os.c ****               thread_def->buffer, thread_def->controlblock);
 267:Middlewares/Third_Party/FreeRTOS/Source/CMSIS_RTOS/cmsis_os.c **** #else
 268:Middlewares/Third_Party/FreeRTOS/Source/CMSIS_RTOS/cmsis_os.c ****   if (xTaskCreate((TaskFunction_t)thread_def->pthread,(const portCHAR *)thread_def->name,
 329              		.loc 1 268 0
 330 000a 7B68     		ldr	r3, [r7, #4]
 331 000c 5E68     		ldr	r6, [r3, #4]
 332 000e 7B68     		ldr	r3, [r7, #4]
 333 0010 1D68     		ldr	r5, [r3]
 269:Middlewares/Third_Party/FreeRTOS/Source/CMSIS_RTOS/cmsis_os.c ****                    thread_def->stacksize, argument, makeFreeRtosPriority(thread_def->tpriority),
 334              		.loc 1 269 0
 335 0012 7B68     		ldr	r3, [r7, #4]
 336 0014 1B69     		ldr	r3, [r3, #16]
 268:Middlewares/Third_Party/FreeRTOS/Source/CMSIS_RTOS/cmsis_os.c ****                    thread_def->stacksize, argument, makeFreeRtosPriority(thread_def->tpriority),
 337              		.loc 1 268 0
 338 0016 9CB2     		uxth	r4, r3
 339 0018 7B68     		ldr	r3, [r7, #4]
 340 001a 1B89     		ldrh	r3, [r3, #8]
 341 001c 1BB2     		sxth	r3, r3
 342 001e 1846     		mov	r0, r3
 343 0020 FFF7FEFF 		bl	makeFreeRtosPriority
 344 0024 0346     		mov	r3, r0
 345 0026 0093     		str	r3, [sp]
 346 0028 07F10C03 		add	r3, r7, #12
 347 002c 0193     		str	r3, [sp, #4]
 348 002e 3046     		mov	r0, r6
 349 0030 2946     		mov	r1, r5
 350 0032 2246     		mov	r2, r4
 351 0034 3B68     		ldr	r3, [r7]
 352 0036 FFF7FEFF 		bl	xTaskCreate
 353 003a 0346     		mov	r3, r0
 354 003c 012B     		cmp	r3, #1
 355 003e 01D0     		beq	.L19
 270:Middlewares/Third_Party/FreeRTOS/Source/CMSIS_RTOS/cmsis_os.c ****                    &handle) != pdPASS)  {
 271:Middlewares/Third_Party/FreeRTOS/Source/CMSIS_RTOS/cmsis_os.c ****     return NULL;
 356              		.loc 1 271 0
 357 0040 0023     		movs	r3, #0
 358 0042 00E0     		b	.L21
 359              	.L19:
 272:Middlewares/Third_Party/FreeRTOS/Source/CMSIS_RTOS/cmsis_os.c ****   }     
 273:Middlewares/Third_Party/FreeRTOS/Source/CMSIS_RTOS/cmsis_os.c **** #endif
 274:Middlewares/Third_Party/FreeRTOS/Source/CMSIS_RTOS/cmsis_os.c ****   
 275:Middlewares/Third_Party/FreeRTOS/Source/CMSIS_RTOS/cmsis_os.c ****   return handle;
 360              		.loc 1 275 0
 361 0044 FB68     		ldr	r3, [r7, #12]
 362              	.L21:
 276:Middlewares/Third_Party/FreeRTOS/Source/CMSIS_RTOS/cmsis_os.c **** }
 363              		.loc 1 276 0 discriminator 1
 364 0046 1846     		mov	r0, r3
 365 0048 1437     		adds	r7, r7, #20
 366              	.LCFI27:
 367              		.cfi_def_cfa_offset 20
ARM GAS  /tmp/ccVQttFk.s 			page 14


 368 004a BD46     		mov	sp, r7
 369              	.LCFI28:
 370              		.cfi_def_cfa_register 13
 371              		@ sp needed
 372 004c F0BD     		pop	{r4, r5, r6, r7, pc}
 373              		.cfi_endproc
 374              	.LFE36:
 376 004e 00BF     		.section	.text.osThreadGetId,"ax",%progbits
 377              		.align	2
 378              		.global	osThreadGetId
 379              		.thumb
 380              		.thumb_func
 382              	osThreadGetId:
 383              	.LFB37:
 277:Middlewares/Third_Party/FreeRTOS/Source/CMSIS_RTOS/cmsis_os.c **** 
 278:Middlewares/Third_Party/FreeRTOS/Source/CMSIS_RTOS/cmsis_os.c **** /**
 279:Middlewares/Third_Party/FreeRTOS/Source/CMSIS_RTOS/cmsis_os.c **** * @brief  Return the thread ID of the current running thread.
 280:Middlewares/Third_Party/FreeRTOS/Source/CMSIS_RTOS/cmsis_os.c **** * @retval thread ID for reference by other functions or NULL in case of error.
 281:Middlewares/Third_Party/FreeRTOS/Source/CMSIS_RTOS/cmsis_os.c **** * @note   MUST REMAIN UNCHANGED: \b osThreadGetId shall be consistent in every CMSIS-RTOS.
 282:Middlewares/Third_Party/FreeRTOS/Source/CMSIS_RTOS/cmsis_os.c **** */
 283:Middlewares/Third_Party/FreeRTOS/Source/CMSIS_RTOS/cmsis_os.c **** osThreadId osThreadGetId (void)
 284:Middlewares/Third_Party/FreeRTOS/Source/CMSIS_RTOS/cmsis_os.c **** {
 384              		.loc 1 284 0
 385              		.cfi_startproc
 386              		@ args = 0, pretend = 0, frame = 0
 387              		@ frame_needed = 1, uses_anonymous_args = 0
 388 0000 80B5     		push	{r7, lr}
 389              	.LCFI29:
 390              		.cfi_def_cfa_offset 8
 391              		.cfi_offset 7, -8
 392              		.cfi_offset 14, -4
 393 0002 00AF     		add	r7, sp, #0
 394              	.LCFI30:
 395              		.cfi_def_cfa_register 7
 285:Middlewares/Third_Party/FreeRTOS/Source/CMSIS_RTOS/cmsis_os.c **** #if ( ( INCLUDE_xTaskGetCurrentTaskHandle == 1 ) || ( configUSE_MUTEXES == 1 ) )
 286:Middlewares/Third_Party/FreeRTOS/Source/CMSIS_RTOS/cmsis_os.c ****   return xTaskGetCurrentTaskHandle();
 396              		.loc 1 286 0
 397 0004 FFF7FEFF 		bl	xTaskGetCurrentTaskHandle
 398 0008 0346     		mov	r3, r0
 287:Middlewares/Third_Party/FreeRTOS/Source/CMSIS_RTOS/cmsis_os.c **** #else
 288:Middlewares/Third_Party/FreeRTOS/Source/CMSIS_RTOS/cmsis_os.c **** 	return NULL;
 289:Middlewares/Third_Party/FreeRTOS/Source/CMSIS_RTOS/cmsis_os.c **** #endif
 290:Middlewares/Third_Party/FreeRTOS/Source/CMSIS_RTOS/cmsis_os.c **** }
 399              		.loc 1 290 0
 400 000a 1846     		mov	r0, r3
 401 000c 80BD     		pop	{r7, pc}
 402              		.cfi_endproc
 403              	.LFE37:
 405 000e 00BF     		.section	.text.osThreadTerminate,"ax",%progbits
 406              		.align	2
 407              		.global	osThreadTerminate
 408              		.thumb
 409              		.thumb_func
 411              	osThreadTerminate:
 412              	.LFB38:
 291:Middlewares/Third_Party/FreeRTOS/Source/CMSIS_RTOS/cmsis_os.c **** 
 292:Middlewares/Third_Party/FreeRTOS/Source/CMSIS_RTOS/cmsis_os.c **** /**
ARM GAS  /tmp/ccVQttFk.s 			page 15


 293:Middlewares/Third_Party/FreeRTOS/Source/CMSIS_RTOS/cmsis_os.c **** * @brief  Terminate execution of a thread and remove it from Active Threads.
 294:Middlewares/Third_Party/FreeRTOS/Source/CMSIS_RTOS/cmsis_os.c **** * @param   thread_id   thread ID obtained by \ref osThreadCreate or \ref osThreadGetId.
 295:Middlewares/Third_Party/FreeRTOS/Source/CMSIS_RTOS/cmsis_os.c **** * @retval  status code that indicates the execution status of the function.
 296:Middlewares/Third_Party/FreeRTOS/Source/CMSIS_RTOS/cmsis_os.c **** * @note   MUST REMAIN UNCHANGED: \b osThreadTerminate shall be consistent in every CMSIS-RTOS.
 297:Middlewares/Third_Party/FreeRTOS/Source/CMSIS_RTOS/cmsis_os.c **** */
 298:Middlewares/Third_Party/FreeRTOS/Source/CMSIS_RTOS/cmsis_os.c **** osStatus osThreadTerminate (osThreadId thread_id)
 299:Middlewares/Third_Party/FreeRTOS/Source/CMSIS_RTOS/cmsis_os.c **** {
 413              		.loc 1 299 0
 414              		.cfi_startproc
 415              		@ args = 0, pretend = 0, frame = 8
 416              		@ frame_needed = 1, uses_anonymous_args = 0
 417 0000 80B5     		push	{r7, lr}
 418              	.LCFI31:
 419              		.cfi_def_cfa_offset 8
 420              		.cfi_offset 7, -8
 421              		.cfi_offset 14, -4
 422 0002 82B0     		sub	sp, sp, #8
 423              	.LCFI32:
 424              		.cfi_def_cfa_offset 16
 425 0004 00AF     		add	r7, sp, #0
 426              	.LCFI33:
 427              		.cfi_def_cfa_register 7
 428 0006 7860     		str	r0, [r7, #4]
 300:Middlewares/Third_Party/FreeRTOS/Source/CMSIS_RTOS/cmsis_os.c **** #if (INCLUDE_vTaskDelete == 1)
 301:Middlewares/Third_Party/FreeRTOS/Source/CMSIS_RTOS/cmsis_os.c ****   vTaskDelete(thread_id);
 429              		.loc 1 301 0
 430 0008 7868     		ldr	r0, [r7, #4]
 431 000a FFF7FEFF 		bl	vTaskDelete
 302:Middlewares/Third_Party/FreeRTOS/Source/CMSIS_RTOS/cmsis_os.c ****   return osOK;
 432              		.loc 1 302 0
 433 000e 0023     		movs	r3, #0
 303:Middlewares/Third_Party/FreeRTOS/Source/CMSIS_RTOS/cmsis_os.c **** #else
 304:Middlewares/Third_Party/FreeRTOS/Source/CMSIS_RTOS/cmsis_os.c ****   return osErrorOS;
 305:Middlewares/Third_Party/FreeRTOS/Source/CMSIS_RTOS/cmsis_os.c **** #endif
 306:Middlewares/Third_Party/FreeRTOS/Source/CMSIS_RTOS/cmsis_os.c **** }
 434              		.loc 1 306 0
 435 0010 1846     		mov	r0, r3
 436 0012 0837     		adds	r7, r7, #8
 437              	.LCFI34:
 438              		.cfi_def_cfa_offset 8
 439 0014 BD46     		mov	sp, r7
 440              	.LCFI35:
 441              		.cfi_def_cfa_register 13
 442              		@ sp needed
 443 0016 80BD     		pop	{r7, pc}
 444              		.cfi_endproc
 445              	.LFE38:
 447              		.section	.text.osThreadYield,"ax",%progbits
 448              		.align	2
 449              		.global	osThreadYield
 450              		.thumb
 451              		.thumb_func
 453              	osThreadYield:
 454              	.LFB39:
 307:Middlewares/Third_Party/FreeRTOS/Source/CMSIS_RTOS/cmsis_os.c **** 
 308:Middlewares/Third_Party/FreeRTOS/Source/CMSIS_RTOS/cmsis_os.c **** /**
 309:Middlewares/Third_Party/FreeRTOS/Source/CMSIS_RTOS/cmsis_os.c **** * @brief  Pass control to next thread that is in state \b READY.
ARM GAS  /tmp/ccVQttFk.s 			page 16


 310:Middlewares/Third_Party/FreeRTOS/Source/CMSIS_RTOS/cmsis_os.c **** * @retval status code that indicates the execution status of the function.
 311:Middlewares/Third_Party/FreeRTOS/Source/CMSIS_RTOS/cmsis_os.c **** * @note   MUST REMAIN UNCHANGED: \b osThreadYield shall be consistent in every CMSIS-RTOS.
 312:Middlewares/Third_Party/FreeRTOS/Source/CMSIS_RTOS/cmsis_os.c **** */
 313:Middlewares/Third_Party/FreeRTOS/Source/CMSIS_RTOS/cmsis_os.c **** osStatus osThreadYield (void)
 314:Middlewares/Third_Party/FreeRTOS/Source/CMSIS_RTOS/cmsis_os.c **** {
 455              		.loc 1 314 0
 456              		.cfi_startproc
 457              		@ args = 0, pretend = 0, frame = 0
 458              		@ frame_needed = 1, uses_anonymous_args = 0
 459              		@ link register save eliminated.
 460 0000 80B4     		push	{r7}
 461              	.LCFI36:
 462              		.cfi_def_cfa_offset 4
 463              		.cfi_offset 7, -4
 464 0002 00AF     		add	r7, sp, #0
 465              	.LCFI37:
 466              		.cfi_def_cfa_register 7
 315:Middlewares/Third_Party/FreeRTOS/Source/CMSIS_RTOS/cmsis_os.c ****   taskYIELD();
 467              		.loc 1 315 0
 468 0004 064B     		ldr	r3, .L28
 469 0006 4FF08052 		mov	r2, #268435456
 470 000a 1A60     		str	r2, [r3]
 471              	@ 315 "Middlewares/Third_Party/FreeRTOS/Source/CMSIS_RTOS/cmsis_os.c" 1
 472 000c BFF34F8F 		dsb
 473              	@ 0 "" 2
 474              	@ 315 "Middlewares/Third_Party/FreeRTOS/Source/CMSIS_RTOS/cmsis_os.c" 1
 475 0010 BFF36F8F 		isb
 476              	@ 0 "" 2
 316:Middlewares/Third_Party/FreeRTOS/Source/CMSIS_RTOS/cmsis_os.c ****   
 317:Middlewares/Third_Party/FreeRTOS/Source/CMSIS_RTOS/cmsis_os.c ****   return osOK;
 477              		.loc 1 317 0
 478              		.thumb
 479 0014 0023     		movs	r3, #0
 318:Middlewares/Third_Party/FreeRTOS/Source/CMSIS_RTOS/cmsis_os.c **** }
 480              		.loc 1 318 0
 481 0016 1846     		mov	r0, r3
 482 0018 BD46     		mov	sp, r7
 483              	.LCFI38:
 484              		.cfi_def_cfa_register 13
 485              		@ sp needed
 486 001a 5DF8047B 		ldr	r7, [sp], #4
 487              	.LCFI39:
 488              		.cfi_restore 7
 489              		.cfi_def_cfa_offset 0
 490 001e 7047     		bx	lr
 491              	.L29:
 492              		.align	2
 493              	.L28:
 494 0020 04ED00E0 		.word	-536810236
 495              		.cfi_endproc
 496              	.LFE39:
 498              		.section	.text.osThreadSetPriority,"ax",%progbits
 499              		.align	2
 500              		.global	osThreadSetPriority
 501              		.thumb
 502              		.thumb_func
 504              	osThreadSetPriority:
ARM GAS  /tmp/ccVQttFk.s 			page 17


 505              	.LFB40:
 319:Middlewares/Third_Party/FreeRTOS/Source/CMSIS_RTOS/cmsis_os.c **** 
 320:Middlewares/Third_Party/FreeRTOS/Source/CMSIS_RTOS/cmsis_os.c **** /**
 321:Middlewares/Third_Party/FreeRTOS/Source/CMSIS_RTOS/cmsis_os.c **** * @brief   Change priority of an active thread.
 322:Middlewares/Third_Party/FreeRTOS/Source/CMSIS_RTOS/cmsis_os.c **** * @param   thread_id     thread ID obtained by \ref osThreadCreate or \ref osThreadGetId.
 323:Middlewares/Third_Party/FreeRTOS/Source/CMSIS_RTOS/cmsis_os.c **** * @param   priority      new priority value for the thread function.
 324:Middlewares/Third_Party/FreeRTOS/Source/CMSIS_RTOS/cmsis_os.c **** * @retval  status code that indicates the execution status of the function.
 325:Middlewares/Third_Party/FreeRTOS/Source/CMSIS_RTOS/cmsis_os.c **** * @note   MUST REMAIN UNCHANGED: \b osThreadSetPriority shall be consistent in every CMSIS-RTOS.
 326:Middlewares/Third_Party/FreeRTOS/Source/CMSIS_RTOS/cmsis_os.c **** */
 327:Middlewares/Third_Party/FreeRTOS/Source/CMSIS_RTOS/cmsis_os.c **** osStatus osThreadSetPriority (osThreadId thread_id, osPriority priority)
 328:Middlewares/Third_Party/FreeRTOS/Source/CMSIS_RTOS/cmsis_os.c **** {
 506              		.loc 1 328 0
 507              		.cfi_startproc
 508              		@ args = 0, pretend = 0, frame = 8
 509              		@ frame_needed = 1, uses_anonymous_args = 0
 510 0000 80B5     		push	{r7, lr}
 511              	.LCFI40:
 512              		.cfi_def_cfa_offset 8
 513              		.cfi_offset 7, -8
 514              		.cfi_offset 14, -4
 515 0002 82B0     		sub	sp, sp, #8
 516              	.LCFI41:
 517              		.cfi_def_cfa_offset 16
 518 0004 00AF     		add	r7, sp, #0
 519              	.LCFI42:
 520              		.cfi_def_cfa_register 7
 521 0006 7860     		str	r0, [r7, #4]
 522 0008 0B46     		mov	r3, r1
 523 000a 7B80     		strh	r3, [r7, #2]	@ movhi
 329:Middlewares/Third_Party/FreeRTOS/Source/CMSIS_RTOS/cmsis_os.c **** #if (INCLUDE_vTaskPrioritySet == 1)
 330:Middlewares/Third_Party/FreeRTOS/Source/CMSIS_RTOS/cmsis_os.c ****   vTaskPrioritySet(thread_id, makeFreeRtosPriority(priority));
 524              		.loc 1 330 0
 525 000c B7F90230 		ldrsh	r3, [r7, #2]
 526 0010 1846     		mov	r0, r3
 527 0012 FFF7FEFF 		bl	makeFreeRtosPriority
 528 0016 0346     		mov	r3, r0
 529 0018 7868     		ldr	r0, [r7, #4]
 530 001a 1946     		mov	r1, r3
 531 001c FFF7FEFF 		bl	vTaskPrioritySet
 331:Middlewares/Third_Party/FreeRTOS/Source/CMSIS_RTOS/cmsis_os.c ****   return osOK;
 532              		.loc 1 331 0
 533 0020 0023     		movs	r3, #0
 332:Middlewares/Third_Party/FreeRTOS/Source/CMSIS_RTOS/cmsis_os.c **** #else
 333:Middlewares/Third_Party/FreeRTOS/Source/CMSIS_RTOS/cmsis_os.c ****   return osErrorOS;
 334:Middlewares/Third_Party/FreeRTOS/Source/CMSIS_RTOS/cmsis_os.c **** #endif
 335:Middlewares/Third_Party/FreeRTOS/Source/CMSIS_RTOS/cmsis_os.c **** }
 534              		.loc 1 335 0
 535 0022 1846     		mov	r0, r3
 536 0024 0837     		adds	r7, r7, #8
 537              	.LCFI43:
 538              		.cfi_def_cfa_offset 8
 539 0026 BD46     		mov	sp, r7
 540              	.LCFI44:
 541              		.cfi_def_cfa_register 13
 542              		@ sp needed
 543 0028 80BD     		pop	{r7, pc}
 544              		.cfi_endproc
ARM GAS  /tmp/ccVQttFk.s 			page 18


 545              	.LFE40:
 547 002a 00BF     		.section	.text.osThreadGetPriority,"ax",%progbits
 548              		.align	2
 549              		.global	osThreadGetPriority
 550              		.thumb
 551              		.thumb_func
 553              	osThreadGetPriority:
 554              	.LFB41:
 336:Middlewares/Third_Party/FreeRTOS/Source/CMSIS_RTOS/cmsis_os.c **** 
 337:Middlewares/Third_Party/FreeRTOS/Source/CMSIS_RTOS/cmsis_os.c **** /**
 338:Middlewares/Third_Party/FreeRTOS/Source/CMSIS_RTOS/cmsis_os.c **** * @brief   Get current priority of an active thread.
 339:Middlewares/Third_Party/FreeRTOS/Source/CMSIS_RTOS/cmsis_os.c **** * @param   thread_id     thread ID obtained by \ref osThreadCreate or \ref osThreadGetId.
 340:Middlewares/Third_Party/FreeRTOS/Source/CMSIS_RTOS/cmsis_os.c **** * @retval  current priority value of the thread function.
 341:Middlewares/Third_Party/FreeRTOS/Source/CMSIS_RTOS/cmsis_os.c **** * @note   MUST REMAIN UNCHANGED: \b osThreadGetPriority shall be consistent in every CMSIS-RTOS.
 342:Middlewares/Third_Party/FreeRTOS/Source/CMSIS_RTOS/cmsis_os.c **** */
 343:Middlewares/Third_Party/FreeRTOS/Source/CMSIS_RTOS/cmsis_os.c **** osPriority osThreadGetPriority (osThreadId thread_id)
 344:Middlewares/Third_Party/FreeRTOS/Source/CMSIS_RTOS/cmsis_os.c **** {
 555              		.loc 1 344 0
 556              		.cfi_startproc
 557              		@ args = 0, pretend = 0, frame = 8
 558              		@ frame_needed = 1, uses_anonymous_args = 0
 559 0000 80B5     		push	{r7, lr}
 560              	.LCFI45:
 561              		.cfi_def_cfa_offset 8
 562              		.cfi_offset 7, -8
 563              		.cfi_offset 14, -4
 564 0002 82B0     		sub	sp, sp, #8
 565              	.LCFI46:
 566              		.cfi_def_cfa_offset 16
 567 0004 00AF     		add	r7, sp, #0
 568              	.LCFI47:
 569              		.cfi_def_cfa_register 7
 570 0006 7860     		str	r0, [r7, #4]
 345:Middlewares/Third_Party/FreeRTOS/Source/CMSIS_RTOS/cmsis_os.c **** #if (INCLUDE_uxTaskPriorityGet == 1)
 346:Middlewares/Third_Party/FreeRTOS/Source/CMSIS_RTOS/cmsis_os.c ****   if (inHandlerMode())
 571              		.loc 1 346 0
 572 0008 FFF7FEFF 		bl	inHandlerMode
 573 000c 0346     		mov	r3, r0
 574 000e 002B     		cmp	r3, #0
 575 0010 08D0     		beq	.L33
 347:Middlewares/Third_Party/FreeRTOS/Source/CMSIS_RTOS/cmsis_os.c ****   {
 348:Middlewares/Third_Party/FreeRTOS/Source/CMSIS_RTOS/cmsis_os.c ****     return makeCmsisPriority(uxTaskPriorityGetFromISR(thread_id));  
 576              		.loc 1 348 0
 577 0012 7868     		ldr	r0, [r7, #4]
 578 0014 FFF7FEFF 		bl	uxTaskPriorityGetFromISR
 579 0018 0346     		mov	r3, r0
 580 001a 1846     		mov	r0, r3
 581 001c FFF7FEFF 		bl	makeCmsisPriority
 582 0020 0346     		mov	r3, r0
 583 0022 07E0     		b	.L34
 584              	.L33:
 349:Middlewares/Third_Party/FreeRTOS/Source/CMSIS_RTOS/cmsis_os.c ****   }
 350:Middlewares/Third_Party/FreeRTOS/Source/CMSIS_RTOS/cmsis_os.c ****   else
 351:Middlewares/Third_Party/FreeRTOS/Source/CMSIS_RTOS/cmsis_os.c ****   {  
 352:Middlewares/Third_Party/FreeRTOS/Source/CMSIS_RTOS/cmsis_os.c ****     return makeCmsisPriority(uxTaskPriorityGet(thread_id));
 585              		.loc 1 352 0
 586 0024 7868     		ldr	r0, [r7, #4]
ARM GAS  /tmp/ccVQttFk.s 			page 19


 587 0026 FFF7FEFF 		bl	uxTaskPriorityGet
 588 002a 0346     		mov	r3, r0
 589 002c 1846     		mov	r0, r3
 590 002e FFF7FEFF 		bl	makeCmsisPriority
 591 0032 0346     		mov	r3, r0
 592              	.L34:
 593 0034 1BB2     		sxth	r3, r3
 353:Middlewares/Third_Party/FreeRTOS/Source/CMSIS_RTOS/cmsis_os.c ****   }
 354:Middlewares/Third_Party/FreeRTOS/Source/CMSIS_RTOS/cmsis_os.c **** #else
 355:Middlewares/Third_Party/FreeRTOS/Source/CMSIS_RTOS/cmsis_os.c ****   return osPriorityError;
 356:Middlewares/Third_Party/FreeRTOS/Source/CMSIS_RTOS/cmsis_os.c **** #endif
 357:Middlewares/Third_Party/FreeRTOS/Source/CMSIS_RTOS/cmsis_os.c **** }
 594              		.loc 1 357 0
 595 0036 1846     		mov	r0, r3
 596 0038 0837     		adds	r7, r7, #8
 597              	.LCFI48:
 598              		.cfi_def_cfa_offset 8
 599 003a BD46     		mov	sp, r7
 600              	.LCFI49:
 601              		.cfi_def_cfa_register 13
 602              		@ sp needed
 603 003c 80BD     		pop	{r7, pc}
 604              		.cfi_endproc
 605              	.LFE41:
 607 003e 00BF     		.section	.text.osDelay,"ax",%progbits
 608              		.align	2
 609              		.global	osDelay
 610              		.thumb
 611              		.thumb_func
 613              	osDelay:
 614              	.LFB42:
 358:Middlewares/Third_Party/FreeRTOS/Source/CMSIS_RTOS/cmsis_os.c **** 
 359:Middlewares/Third_Party/FreeRTOS/Source/CMSIS_RTOS/cmsis_os.c **** /*********************** Generic Wait Functions *******************************/
 360:Middlewares/Third_Party/FreeRTOS/Source/CMSIS_RTOS/cmsis_os.c **** /**
 361:Middlewares/Third_Party/FreeRTOS/Source/CMSIS_RTOS/cmsis_os.c **** * @brief   Wait for Timeout (Time Delay)
 362:Middlewares/Third_Party/FreeRTOS/Source/CMSIS_RTOS/cmsis_os.c **** * @param   millisec      time delay value
 363:Middlewares/Third_Party/FreeRTOS/Source/CMSIS_RTOS/cmsis_os.c **** * @retval  status code that indicates the execution status of the function.
 364:Middlewares/Third_Party/FreeRTOS/Source/CMSIS_RTOS/cmsis_os.c **** */
 365:Middlewares/Third_Party/FreeRTOS/Source/CMSIS_RTOS/cmsis_os.c **** osStatus osDelay (uint32_t millisec)
 366:Middlewares/Third_Party/FreeRTOS/Source/CMSIS_RTOS/cmsis_os.c **** {
 615              		.loc 1 366 0
 616              		.cfi_startproc
 617              		@ args = 0, pretend = 0, frame = 16
 618              		@ frame_needed = 1, uses_anonymous_args = 0
 619 0000 80B5     		push	{r7, lr}
 620              	.LCFI50:
 621              		.cfi_def_cfa_offset 8
 622              		.cfi_offset 7, -8
 623              		.cfi_offset 14, -4
 624 0002 84B0     		sub	sp, sp, #16
 625              	.LCFI51:
 626              		.cfi_def_cfa_offset 24
 627 0004 00AF     		add	r7, sp, #0
 628              	.LCFI52:
 629              		.cfi_def_cfa_register 7
 630 0006 7860     		str	r0, [r7, #4]
 367:Middlewares/Third_Party/FreeRTOS/Source/CMSIS_RTOS/cmsis_os.c **** #if INCLUDE_vTaskDelay
ARM GAS  /tmp/ccVQttFk.s 			page 20


 368:Middlewares/Third_Party/FreeRTOS/Source/CMSIS_RTOS/cmsis_os.c ****   TickType_t ticks = millisec / portTICK_PERIOD_MS;
 631              		.loc 1 368 0
 632 0008 7B68     		ldr	r3, [r7, #4]
 633 000a FB60     		str	r3, [r7, #12]
 369:Middlewares/Third_Party/FreeRTOS/Source/CMSIS_RTOS/cmsis_os.c ****   
 370:Middlewares/Third_Party/FreeRTOS/Source/CMSIS_RTOS/cmsis_os.c ****   vTaskDelay(ticks ? ticks : 1);          /* Minimum delay = 1 tick */
 634              		.loc 1 370 0
 635 000c FB68     		ldr	r3, [r7, #12]
 636 000e 002B     		cmp	r3, #0
 637 0010 01D0     		beq	.L36
 638              		.loc 1 370 0 is_stmt 0 discriminator 1
 639 0012 FB68     		ldr	r3, [r7, #12]
 640 0014 00E0     		b	.L37
 641              	.L36:
 642              		.loc 1 370 0 discriminator 2
 643 0016 0123     		movs	r3, #1
 644              	.L37:
 645              		.loc 1 370 0 discriminator 4
 646 0018 1846     		mov	r0, r3
 647 001a FFF7FEFF 		bl	vTaskDelay
 371:Middlewares/Third_Party/FreeRTOS/Source/CMSIS_RTOS/cmsis_os.c ****   
 372:Middlewares/Third_Party/FreeRTOS/Source/CMSIS_RTOS/cmsis_os.c ****   return osOK;
 648              		.loc 1 372 0 is_stmt 1 discriminator 4
 649 001e 0023     		movs	r3, #0
 373:Middlewares/Third_Party/FreeRTOS/Source/CMSIS_RTOS/cmsis_os.c **** #else
 374:Middlewares/Third_Party/FreeRTOS/Source/CMSIS_RTOS/cmsis_os.c ****   (void) millisec;
 375:Middlewares/Third_Party/FreeRTOS/Source/CMSIS_RTOS/cmsis_os.c ****   
 376:Middlewares/Third_Party/FreeRTOS/Source/CMSIS_RTOS/cmsis_os.c ****   return osErrorResource;
 377:Middlewares/Third_Party/FreeRTOS/Source/CMSIS_RTOS/cmsis_os.c **** #endif
 378:Middlewares/Third_Party/FreeRTOS/Source/CMSIS_RTOS/cmsis_os.c **** }
 650              		.loc 1 378 0 discriminator 4
 651 0020 1846     		mov	r0, r3
 652 0022 1037     		adds	r7, r7, #16
 653              	.LCFI53:
 654              		.cfi_def_cfa_offset 8
 655 0024 BD46     		mov	sp, r7
 656              	.LCFI54:
 657              		.cfi_def_cfa_register 13
 658              		@ sp needed
 659 0026 80BD     		pop	{r7, pc}
 660              		.cfi_endproc
 661              	.LFE42:
 663              		.section	.text.osTimerCreate,"ax",%progbits
 664              		.align	2
 665              		.global	osTimerCreate
 666              		.thumb
 667              		.thumb_func
 669              	osTimerCreate:
 670              	.LFB43:
 379:Middlewares/Third_Party/FreeRTOS/Source/CMSIS_RTOS/cmsis_os.c **** 
 380:Middlewares/Third_Party/FreeRTOS/Source/CMSIS_RTOS/cmsis_os.c **** #if (defined (osFeature_Wait)  &&  (osFeature_Wait != 0)) /* Generic Wait available */
 381:Middlewares/Third_Party/FreeRTOS/Source/CMSIS_RTOS/cmsis_os.c **** /**
 382:Middlewares/Third_Party/FreeRTOS/Source/CMSIS_RTOS/cmsis_os.c **** * @brief  Wait for Signal, Message, Mail, or Timeout
 383:Middlewares/Third_Party/FreeRTOS/Source/CMSIS_RTOS/cmsis_os.c **** * @param   millisec  timeout value or 0 in case of no time-out
 384:Middlewares/Third_Party/FreeRTOS/Source/CMSIS_RTOS/cmsis_os.c **** * @retval  event that contains signal, message, or mail information or error code.
 385:Middlewares/Third_Party/FreeRTOS/Source/CMSIS_RTOS/cmsis_os.c **** * @note   MUST REMAIN UNCHANGED: \b osWait shall be consistent in every CMSIS-RTOS.
 386:Middlewares/Third_Party/FreeRTOS/Source/CMSIS_RTOS/cmsis_os.c **** */
ARM GAS  /tmp/ccVQttFk.s 			page 21


 387:Middlewares/Third_Party/FreeRTOS/Source/CMSIS_RTOS/cmsis_os.c **** osEvent osWait (uint32_t millisec);
 388:Middlewares/Third_Party/FreeRTOS/Source/CMSIS_RTOS/cmsis_os.c **** 
 389:Middlewares/Third_Party/FreeRTOS/Source/CMSIS_RTOS/cmsis_os.c **** #endif  /* Generic Wait available */
 390:Middlewares/Third_Party/FreeRTOS/Source/CMSIS_RTOS/cmsis_os.c **** 
 391:Middlewares/Third_Party/FreeRTOS/Source/CMSIS_RTOS/cmsis_os.c **** /***********************  Timer Management Functions ***************************/
 392:Middlewares/Third_Party/FreeRTOS/Source/CMSIS_RTOS/cmsis_os.c **** /**
 393:Middlewares/Third_Party/FreeRTOS/Source/CMSIS_RTOS/cmsis_os.c **** * @brief  Create a timer.
 394:Middlewares/Third_Party/FreeRTOS/Source/CMSIS_RTOS/cmsis_os.c **** * @param  timer_def     timer object referenced with \ref osTimer.
 395:Middlewares/Third_Party/FreeRTOS/Source/CMSIS_RTOS/cmsis_os.c **** * @param  type          osTimerOnce for one-shot or osTimerPeriodic for periodic behavior.
 396:Middlewares/Third_Party/FreeRTOS/Source/CMSIS_RTOS/cmsis_os.c **** * @param  argument      argument to the timer call back function.
 397:Middlewares/Third_Party/FreeRTOS/Source/CMSIS_RTOS/cmsis_os.c **** * @retval  timer ID for reference by other functions or NULL in case of error.
 398:Middlewares/Third_Party/FreeRTOS/Source/CMSIS_RTOS/cmsis_os.c **** * @note   MUST REMAIN UNCHANGED: \b osTimerCreate shall be consistent in every CMSIS-RTOS.
 399:Middlewares/Third_Party/FreeRTOS/Source/CMSIS_RTOS/cmsis_os.c **** */
 400:Middlewares/Third_Party/FreeRTOS/Source/CMSIS_RTOS/cmsis_os.c **** osTimerId osTimerCreate (const osTimerDef_t *timer_def, os_timer_type type, void *argument)
 401:Middlewares/Third_Party/FreeRTOS/Source/CMSIS_RTOS/cmsis_os.c **** {
 671              		.loc 1 401 0
 672              		.cfi_startproc
 673              		@ args = 0, pretend = 0, frame = 16
 674              		@ frame_needed = 1, uses_anonymous_args = 0
 675              		@ link register save eliminated.
 676 0000 80B4     		push	{r7}
 677              	.LCFI55:
 678              		.cfi_def_cfa_offset 4
 679              		.cfi_offset 7, -4
 680 0002 85B0     		sub	sp, sp, #20
 681              	.LCFI56:
 682              		.cfi_def_cfa_offset 24
 683 0004 00AF     		add	r7, sp, #0
 684              	.LCFI57:
 685              		.cfi_def_cfa_register 7
 686 0006 F860     		str	r0, [r7, #12]
 687 0008 0B46     		mov	r3, r1
 688 000a 7A60     		str	r2, [r7, #4]
 689 000c FB72     		strb	r3, [r7, #11]
 402:Middlewares/Third_Party/FreeRTOS/Source/CMSIS_RTOS/cmsis_os.c **** #if (configUSE_TIMERS == 1)
 403:Middlewares/Third_Party/FreeRTOS/Source/CMSIS_RTOS/cmsis_os.c **** 
 404:Middlewares/Third_Party/FreeRTOS/Source/CMSIS_RTOS/cmsis_os.c **** #if( ( configSUPPORT_STATIC_ALLOCATION == 1 ) && ( configSUPPORT_DYNAMIC_ALLOCATION == 1 ) ) 
 405:Middlewares/Third_Party/FreeRTOS/Source/CMSIS_RTOS/cmsis_os.c ****   if(timer_def->controlblock != NULL) {
 406:Middlewares/Third_Party/FreeRTOS/Source/CMSIS_RTOS/cmsis_os.c ****     return xTimerCreateStatic((const char *)"",
 407:Middlewares/Third_Party/FreeRTOS/Source/CMSIS_RTOS/cmsis_os.c ****                       1, // period should be filled when starting the Timer using osTimerStart
 408:Middlewares/Third_Party/FreeRTOS/Source/CMSIS_RTOS/cmsis_os.c ****                       (type == osTimerPeriodic) ? pdTRUE : pdFALSE,
 409:Middlewares/Third_Party/FreeRTOS/Source/CMSIS_RTOS/cmsis_os.c ****                       (void *) argument,
 410:Middlewares/Third_Party/FreeRTOS/Source/CMSIS_RTOS/cmsis_os.c ****                       (TaskFunction_t)timer_def->ptimer,
 411:Middlewares/Third_Party/FreeRTOS/Source/CMSIS_RTOS/cmsis_os.c ****                       (StaticTimer_t *)timer_def->controlblock);
 412:Middlewares/Third_Party/FreeRTOS/Source/CMSIS_RTOS/cmsis_os.c ****   }
 413:Middlewares/Third_Party/FreeRTOS/Source/CMSIS_RTOS/cmsis_os.c ****   else {
 414:Middlewares/Third_Party/FreeRTOS/Source/CMSIS_RTOS/cmsis_os.c ****     return xTimerCreate((const char *)"",
 415:Middlewares/Third_Party/FreeRTOS/Source/CMSIS_RTOS/cmsis_os.c ****                       1, // period should be filled when starting the Timer using osTimerStart
 416:Middlewares/Third_Party/FreeRTOS/Source/CMSIS_RTOS/cmsis_os.c ****                       (type == osTimerPeriodic) ? pdTRUE : pdFALSE,
 417:Middlewares/Third_Party/FreeRTOS/Source/CMSIS_RTOS/cmsis_os.c ****                       (void *) argument,
 418:Middlewares/Third_Party/FreeRTOS/Source/CMSIS_RTOS/cmsis_os.c ****                       (TaskFunction_t)timer_def->ptimer);
 419:Middlewares/Third_Party/FreeRTOS/Source/CMSIS_RTOS/cmsis_os.c ****  }
 420:Middlewares/Third_Party/FreeRTOS/Source/CMSIS_RTOS/cmsis_os.c **** #elif( configSUPPORT_STATIC_ALLOCATION == 1 )
 421:Middlewares/Third_Party/FreeRTOS/Source/CMSIS_RTOS/cmsis_os.c ****   return xTimerCreateStatic((const char *)"",
 422:Middlewares/Third_Party/FreeRTOS/Source/CMSIS_RTOS/cmsis_os.c ****                       1, // period should be filled when starting the Timer using osTimerStart
 423:Middlewares/Third_Party/FreeRTOS/Source/CMSIS_RTOS/cmsis_os.c ****                       (type == osTimerPeriodic) ? pdTRUE : pdFALSE,
 424:Middlewares/Third_Party/FreeRTOS/Source/CMSIS_RTOS/cmsis_os.c ****                       (void *) argument,
ARM GAS  /tmp/ccVQttFk.s 			page 22


 425:Middlewares/Third_Party/FreeRTOS/Source/CMSIS_RTOS/cmsis_os.c ****                       (TaskFunction_t)timer_def->ptimer,
 426:Middlewares/Third_Party/FreeRTOS/Source/CMSIS_RTOS/cmsis_os.c ****                       (StaticTimer_t *)timer_def->controlblock);  
 427:Middlewares/Third_Party/FreeRTOS/Source/CMSIS_RTOS/cmsis_os.c **** #else
 428:Middlewares/Third_Party/FreeRTOS/Source/CMSIS_RTOS/cmsis_os.c ****   return xTimerCreate((const char *)"",
 429:Middlewares/Third_Party/FreeRTOS/Source/CMSIS_RTOS/cmsis_os.c ****                       1, // period should be filled when starting the Timer using osTimerStart
 430:Middlewares/Third_Party/FreeRTOS/Source/CMSIS_RTOS/cmsis_os.c ****                       (type == osTimerPeriodic) ? pdTRUE : pdFALSE,
 431:Middlewares/Third_Party/FreeRTOS/Source/CMSIS_RTOS/cmsis_os.c ****                       (void *) argument,
 432:Middlewares/Third_Party/FreeRTOS/Source/CMSIS_RTOS/cmsis_os.c ****                       (TaskFunction_t)timer_def->ptimer);
 433:Middlewares/Third_Party/FreeRTOS/Source/CMSIS_RTOS/cmsis_os.c **** #endif
 434:Middlewares/Third_Party/FreeRTOS/Source/CMSIS_RTOS/cmsis_os.c **** 
 435:Middlewares/Third_Party/FreeRTOS/Source/CMSIS_RTOS/cmsis_os.c **** #else 
 436:Middlewares/Third_Party/FreeRTOS/Source/CMSIS_RTOS/cmsis_os.c **** 	return NULL;
 690              		.loc 1 436 0
 691 000e 0023     		movs	r3, #0
 437:Middlewares/Third_Party/FreeRTOS/Source/CMSIS_RTOS/cmsis_os.c **** #endif
 438:Middlewares/Third_Party/FreeRTOS/Source/CMSIS_RTOS/cmsis_os.c **** }
 692              		.loc 1 438 0
 693 0010 1846     		mov	r0, r3
 694 0012 1437     		adds	r7, r7, #20
 695              	.LCFI58:
 696              		.cfi_def_cfa_offset 4
 697 0014 BD46     		mov	sp, r7
 698              	.LCFI59:
 699              		.cfi_def_cfa_register 13
 700              		@ sp needed
 701 0016 5DF8047B 		ldr	r7, [sp], #4
 702              	.LCFI60:
 703              		.cfi_restore 7
 704              		.cfi_def_cfa_offset 0
 705 001a 7047     		bx	lr
 706              		.cfi_endproc
 707              	.LFE43:
 709              		.section	.text.osTimerStart,"ax",%progbits
 710              		.align	2
 711              		.global	osTimerStart
 712              		.thumb
 713              		.thumb_func
 715              	osTimerStart:
 716              	.LFB44:
 439:Middlewares/Third_Party/FreeRTOS/Source/CMSIS_RTOS/cmsis_os.c **** 
 440:Middlewares/Third_Party/FreeRTOS/Source/CMSIS_RTOS/cmsis_os.c **** /**
 441:Middlewares/Third_Party/FreeRTOS/Source/CMSIS_RTOS/cmsis_os.c **** * @brief  Start or restart a timer.
 442:Middlewares/Third_Party/FreeRTOS/Source/CMSIS_RTOS/cmsis_os.c **** * @param  timer_id      timer ID obtained by \ref osTimerCreate.
 443:Middlewares/Third_Party/FreeRTOS/Source/CMSIS_RTOS/cmsis_os.c **** * @param  millisec      time delay value of the timer.
 444:Middlewares/Third_Party/FreeRTOS/Source/CMSIS_RTOS/cmsis_os.c **** * @retval  status code that indicates the execution status of the function
 445:Middlewares/Third_Party/FreeRTOS/Source/CMSIS_RTOS/cmsis_os.c **** * @note   MUST REMAIN UNCHANGED: \b osTimerStart shall be consistent in every CMSIS-RTOS.
 446:Middlewares/Third_Party/FreeRTOS/Source/CMSIS_RTOS/cmsis_os.c **** */
 447:Middlewares/Third_Party/FreeRTOS/Source/CMSIS_RTOS/cmsis_os.c **** osStatus osTimerStart (osTimerId timer_id, uint32_t millisec)
 448:Middlewares/Third_Party/FreeRTOS/Source/CMSIS_RTOS/cmsis_os.c **** {
 717              		.loc 1 448 0
 718              		.cfi_startproc
 719              		@ args = 0, pretend = 0, frame = 16
 720              		@ frame_needed = 1, uses_anonymous_args = 0
 721              		@ link register save eliminated.
 722 0000 80B4     		push	{r7}
 723              	.LCFI61:
 724              		.cfi_def_cfa_offset 4
ARM GAS  /tmp/ccVQttFk.s 			page 23


 725              		.cfi_offset 7, -4
 726 0002 85B0     		sub	sp, sp, #20
 727              	.LCFI62:
 728              		.cfi_def_cfa_offset 24
 729 0004 00AF     		add	r7, sp, #0
 730              	.LCFI63:
 731              		.cfi_def_cfa_register 7
 732 0006 7860     		str	r0, [r7, #4]
 733 0008 3960     		str	r1, [r7]
 449:Middlewares/Third_Party/FreeRTOS/Source/CMSIS_RTOS/cmsis_os.c ****   osStatus result = osOK;
 734              		.loc 1 449 0
 735 000a 0023     		movs	r3, #0
 736 000c FB60     		str	r3, [r7, #12]
 450:Middlewares/Third_Party/FreeRTOS/Source/CMSIS_RTOS/cmsis_os.c **** #if (configUSE_TIMERS == 1)  
 451:Middlewares/Third_Party/FreeRTOS/Source/CMSIS_RTOS/cmsis_os.c ****   portBASE_TYPE taskWoken = pdFALSE;
 452:Middlewares/Third_Party/FreeRTOS/Source/CMSIS_RTOS/cmsis_os.c ****   TickType_t ticks = millisec / portTICK_PERIOD_MS;
 453:Middlewares/Third_Party/FreeRTOS/Source/CMSIS_RTOS/cmsis_os.c **** 
 454:Middlewares/Third_Party/FreeRTOS/Source/CMSIS_RTOS/cmsis_os.c ****   if (ticks == 0)
 455:Middlewares/Third_Party/FreeRTOS/Source/CMSIS_RTOS/cmsis_os.c ****     ticks = 1;
 456:Middlewares/Third_Party/FreeRTOS/Source/CMSIS_RTOS/cmsis_os.c ****     
 457:Middlewares/Third_Party/FreeRTOS/Source/CMSIS_RTOS/cmsis_os.c ****   if (inHandlerMode()) 
 458:Middlewares/Third_Party/FreeRTOS/Source/CMSIS_RTOS/cmsis_os.c ****   {
 459:Middlewares/Third_Party/FreeRTOS/Source/CMSIS_RTOS/cmsis_os.c ****     if (xTimerChangePeriodFromISR(timer_id, ticks, &taskWoken) != pdPASS)
 460:Middlewares/Third_Party/FreeRTOS/Source/CMSIS_RTOS/cmsis_os.c ****     {
 461:Middlewares/Third_Party/FreeRTOS/Source/CMSIS_RTOS/cmsis_os.c ****       result = osErrorOS;
 462:Middlewares/Third_Party/FreeRTOS/Source/CMSIS_RTOS/cmsis_os.c ****     }
 463:Middlewares/Third_Party/FreeRTOS/Source/CMSIS_RTOS/cmsis_os.c ****     else
 464:Middlewares/Third_Party/FreeRTOS/Source/CMSIS_RTOS/cmsis_os.c ****     {
 465:Middlewares/Third_Party/FreeRTOS/Source/CMSIS_RTOS/cmsis_os.c ****       portEND_SWITCHING_ISR(taskWoken);     
 466:Middlewares/Third_Party/FreeRTOS/Source/CMSIS_RTOS/cmsis_os.c ****     }
 467:Middlewares/Third_Party/FreeRTOS/Source/CMSIS_RTOS/cmsis_os.c ****   }
 468:Middlewares/Third_Party/FreeRTOS/Source/CMSIS_RTOS/cmsis_os.c ****   else 
 469:Middlewares/Third_Party/FreeRTOS/Source/CMSIS_RTOS/cmsis_os.c ****   {
 470:Middlewares/Third_Party/FreeRTOS/Source/CMSIS_RTOS/cmsis_os.c ****     if (xTimerChangePeriod(timer_id, ticks, 0) != pdPASS)
 471:Middlewares/Third_Party/FreeRTOS/Source/CMSIS_RTOS/cmsis_os.c ****       result = osErrorOS;
 472:Middlewares/Third_Party/FreeRTOS/Source/CMSIS_RTOS/cmsis_os.c ****   }
 473:Middlewares/Third_Party/FreeRTOS/Source/CMSIS_RTOS/cmsis_os.c **** 
 474:Middlewares/Third_Party/FreeRTOS/Source/CMSIS_RTOS/cmsis_os.c **** #else 
 475:Middlewares/Third_Party/FreeRTOS/Source/CMSIS_RTOS/cmsis_os.c ****   result = osErrorOS;
 737              		.loc 1 475 0
 738 000e FF23     		movs	r3, #255
 739 0010 FB60     		str	r3, [r7, #12]
 476:Middlewares/Third_Party/FreeRTOS/Source/CMSIS_RTOS/cmsis_os.c **** #endif
 477:Middlewares/Third_Party/FreeRTOS/Source/CMSIS_RTOS/cmsis_os.c ****   return result;
 740              		.loc 1 477 0
 741 0012 FB68     		ldr	r3, [r7, #12]
 478:Middlewares/Third_Party/FreeRTOS/Source/CMSIS_RTOS/cmsis_os.c **** }
 742              		.loc 1 478 0
 743 0014 1846     		mov	r0, r3
 744 0016 1437     		adds	r7, r7, #20
 745              	.LCFI64:
 746              		.cfi_def_cfa_offset 4
 747 0018 BD46     		mov	sp, r7
 748              	.LCFI65:
 749              		.cfi_def_cfa_register 13
 750              		@ sp needed
 751 001a 5DF8047B 		ldr	r7, [sp], #4
ARM GAS  /tmp/ccVQttFk.s 			page 24


 752              	.LCFI66:
 753              		.cfi_restore 7
 754              		.cfi_def_cfa_offset 0
 755 001e 7047     		bx	lr
 756              		.cfi_endproc
 757              	.LFE44:
 759              		.section	.text.osTimerStop,"ax",%progbits
 760              		.align	2
 761              		.global	osTimerStop
 762              		.thumb
 763              		.thumb_func
 765              	osTimerStop:
 766              	.LFB45:
 479:Middlewares/Third_Party/FreeRTOS/Source/CMSIS_RTOS/cmsis_os.c **** 
 480:Middlewares/Third_Party/FreeRTOS/Source/CMSIS_RTOS/cmsis_os.c **** /**
 481:Middlewares/Third_Party/FreeRTOS/Source/CMSIS_RTOS/cmsis_os.c **** * @brief  Stop a timer.
 482:Middlewares/Third_Party/FreeRTOS/Source/CMSIS_RTOS/cmsis_os.c **** * @param  timer_id      timer ID obtained by \ref osTimerCreate
 483:Middlewares/Third_Party/FreeRTOS/Source/CMSIS_RTOS/cmsis_os.c **** * @retval  status code that indicates the execution status of the function.
 484:Middlewares/Third_Party/FreeRTOS/Source/CMSIS_RTOS/cmsis_os.c **** * @note   MUST REMAIN UNCHANGED: \b osTimerStop shall be consistent in every CMSIS-RTOS.
 485:Middlewares/Third_Party/FreeRTOS/Source/CMSIS_RTOS/cmsis_os.c **** */
 486:Middlewares/Third_Party/FreeRTOS/Source/CMSIS_RTOS/cmsis_os.c **** osStatus osTimerStop (osTimerId timer_id)
 487:Middlewares/Third_Party/FreeRTOS/Source/CMSIS_RTOS/cmsis_os.c **** {
 767              		.loc 1 487 0
 768              		.cfi_startproc
 769              		@ args = 0, pretend = 0, frame = 16
 770              		@ frame_needed = 1, uses_anonymous_args = 0
 771              		@ link register save eliminated.
 772 0000 80B4     		push	{r7}
 773              	.LCFI67:
 774              		.cfi_def_cfa_offset 4
 775              		.cfi_offset 7, -4
 776 0002 85B0     		sub	sp, sp, #20
 777              	.LCFI68:
 778              		.cfi_def_cfa_offset 24
 779 0004 00AF     		add	r7, sp, #0
 780              	.LCFI69:
 781              		.cfi_def_cfa_register 7
 782 0006 7860     		str	r0, [r7, #4]
 488:Middlewares/Third_Party/FreeRTOS/Source/CMSIS_RTOS/cmsis_os.c ****   osStatus result = osOK;
 783              		.loc 1 488 0
 784 0008 0023     		movs	r3, #0
 785 000a FB60     		str	r3, [r7, #12]
 489:Middlewares/Third_Party/FreeRTOS/Source/CMSIS_RTOS/cmsis_os.c **** #if (configUSE_TIMERS == 1)  
 490:Middlewares/Third_Party/FreeRTOS/Source/CMSIS_RTOS/cmsis_os.c ****   portBASE_TYPE taskWoken = pdFALSE;
 491:Middlewares/Third_Party/FreeRTOS/Source/CMSIS_RTOS/cmsis_os.c **** 
 492:Middlewares/Third_Party/FreeRTOS/Source/CMSIS_RTOS/cmsis_os.c ****   if (inHandlerMode()) {
 493:Middlewares/Third_Party/FreeRTOS/Source/CMSIS_RTOS/cmsis_os.c ****     if (xTimerStopFromISR(timer_id, &taskWoken) != pdPASS) {
 494:Middlewares/Third_Party/FreeRTOS/Source/CMSIS_RTOS/cmsis_os.c ****       return osErrorOS;
 495:Middlewares/Third_Party/FreeRTOS/Source/CMSIS_RTOS/cmsis_os.c ****     }
 496:Middlewares/Third_Party/FreeRTOS/Source/CMSIS_RTOS/cmsis_os.c ****     portEND_SWITCHING_ISR(taskWoken);
 497:Middlewares/Third_Party/FreeRTOS/Source/CMSIS_RTOS/cmsis_os.c ****   }
 498:Middlewares/Third_Party/FreeRTOS/Source/CMSIS_RTOS/cmsis_os.c ****   else {
 499:Middlewares/Third_Party/FreeRTOS/Source/CMSIS_RTOS/cmsis_os.c ****     if (xTimerStop(timer_id, 0) != pdPASS) {
 500:Middlewares/Third_Party/FreeRTOS/Source/CMSIS_RTOS/cmsis_os.c ****       result = osErrorOS;
 501:Middlewares/Third_Party/FreeRTOS/Source/CMSIS_RTOS/cmsis_os.c ****     }
 502:Middlewares/Third_Party/FreeRTOS/Source/CMSIS_RTOS/cmsis_os.c ****   }
 503:Middlewares/Third_Party/FreeRTOS/Source/CMSIS_RTOS/cmsis_os.c **** #else 
ARM GAS  /tmp/ccVQttFk.s 			page 25


 504:Middlewares/Third_Party/FreeRTOS/Source/CMSIS_RTOS/cmsis_os.c ****   result = osErrorOS;
 786              		.loc 1 504 0
 787 000c FF23     		movs	r3, #255
 788 000e FB60     		str	r3, [r7, #12]
 505:Middlewares/Third_Party/FreeRTOS/Source/CMSIS_RTOS/cmsis_os.c **** #endif 
 506:Middlewares/Third_Party/FreeRTOS/Source/CMSIS_RTOS/cmsis_os.c ****   return result;
 789              		.loc 1 506 0
 790 0010 FB68     		ldr	r3, [r7, #12]
 507:Middlewares/Third_Party/FreeRTOS/Source/CMSIS_RTOS/cmsis_os.c **** }
 791              		.loc 1 507 0
 792 0012 1846     		mov	r0, r3
 793 0014 1437     		adds	r7, r7, #20
 794              	.LCFI70:
 795              		.cfi_def_cfa_offset 4
 796 0016 BD46     		mov	sp, r7
 797              	.LCFI71:
 798              		.cfi_def_cfa_register 13
 799              		@ sp needed
 800 0018 5DF8047B 		ldr	r7, [sp], #4
 801              	.LCFI72:
 802              		.cfi_restore 7
 803              		.cfi_def_cfa_offset 0
 804 001c 7047     		bx	lr
 805              		.cfi_endproc
 806              	.LFE45:
 808 001e 00BF     		.section	.text.osTimerDelete,"ax",%progbits
 809              		.align	2
 810              		.global	osTimerDelete
 811              		.thumb
 812              		.thumb_func
 814              	osTimerDelete:
 815              	.LFB46:
 508:Middlewares/Third_Party/FreeRTOS/Source/CMSIS_RTOS/cmsis_os.c **** 
 509:Middlewares/Third_Party/FreeRTOS/Source/CMSIS_RTOS/cmsis_os.c **** /**
 510:Middlewares/Third_Party/FreeRTOS/Source/CMSIS_RTOS/cmsis_os.c **** * @brief  Delete a timer.
 511:Middlewares/Third_Party/FreeRTOS/Source/CMSIS_RTOS/cmsis_os.c **** * @param  timer_id      timer ID obtained by \ref osTimerCreate
 512:Middlewares/Third_Party/FreeRTOS/Source/CMSIS_RTOS/cmsis_os.c **** * @retval  status code that indicates the execution status of the function.
 513:Middlewares/Third_Party/FreeRTOS/Source/CMSIS_RTOS/cmsis_os.c **** * @note   MUST REMAIN UNCHANGED: \b osTimerDelete shall be consistent in every CMSIS-RTOS.
 514:Middlewares/Third_Party/FreeRTOS/Source/CMSIS_RTOS/cmsis_os.c **** */
 515:Middlewares/Third_Party/FreeRTOS/Source/CMSIS_RTOS/cmsis_os.c **** osStatus osTimerDelete (osTimerId timer_id)
 516:Middlewares/Third_Party/FreeRTOS/Source/CMSIS_RTOS/cmsis_os.c **** {
 816              		.loc 1 516 0
 817              		.cfi_startproc
 818              		@ args = 0, pretend = 0, frame = 16
 819              		@ frame_needed = 1, uses_anonymous_args = 0
 820              		@ link register save eliminated.
 821 0000 80B4     		push	{r7}
 822              	.LCFI73:
 823              		.cfi_def_cfa_offset 4
 824              		.cfi_offset 7, -4
 825 0002 85B0     		sub	sp, sp, #20
 826              	.LCFI74:
 827              		.cfi_def_cfa_offset 24
 828 0004 00AF     		add	r7, sp, #0
 829              	.LCFI75:
 830              		.cfi_def_cfa_register 7
 831 0006 7860     		str	r0, [r7, #4]
ARM GAS  /tmp/ccVQttFk.s 			page 26


 517:Middlewares/Third_Party/FreeRTOS/Source/CMSIS_RTOS/cmsis_os.c **** osStatus result = osOK;
 832              		.loc 1 517 0
 833 0008 0023     		movs	r3, #0
 834 000a FB60     		str	r3, [r7, #12]
 518:Middlewares/Third_Party/FreeRTOS/Source/CMSIS_RTOS/cmsis_os.c **** 
 519:Middlewares/Third_Party/FreeRTOS/Source/CMSIS_RTOS/cmsis_os.c **** #if (configUSE_TIMERS == 1)
 520:Middlewares/Third_Party/FreeRTOS/Source/CMSIS_RTOS/cmsis_os.c **** 
 521:Middlewares/Third_Party/FreeRTOS/Source/CMSIS_RTOS/cmsis_os.c ****    if (inHandlerMode()) {
 522:Middlewares/Third_Party/FreeRTOS/Source/CMSIS_RTOS/cmsis_os.c ****      return osErrorISR;
 523:Middlewares/Third_Party/FreeRTOS/Source/CMSIS_RTOS/cmsis_os.c ****   }
 524:Middlewares/Third_Party/FreeRTOS/Source/CMSIS_RTOS/cmsis_os.c ****   else { 
 525:Middlewares/Third_Party/FreeRTOS/Source/CMSIS_RTOS/cmsis_os.c ****     if ((xTimerDelete(timer_id, osWaitForever )) != pdPASS) {
 526:Middlewares/Third_Party/FreeRTOS/Source/CMSIS_RTOS/cmsis_os.c ****       result = osErrorOS;
 527:Middlewares/Third_Party/FreeRTOS/Source/CMSIS_RTOS/cmsis_os.c ****     }
 528:Middlewares/Third_Party/FreeRTOS/Source/CMSIS_RTOS/cmsis_os.c ****   } 
 529:Middlewares/Third_Party/FreeRTOS/Source/CMSIS_RTOS/cmsis_os.c ****     
 530:Middlewares/Third_Party/FreeRTOS/Source/CMSIS_RTOS/cmsis_os.c **** #else 
 531:Middlewares/Third_Party/FreeRTOS/Source/CMSIS_RTOS/cmsis_os.c ****   result = osErrorOS;
 835              		.loc 1 531 0
 836 000c FF23     		movs	r3, #255
 837 000e FB60     		str	r3, [r7, #12]
 532:Middlewares/Third_Party/FreeRTOS/Source/CMSIS_RTOS/cmsis_os.c **** #endif 
 533:Middlewares/Third_Party/FreeRTOS/Source/CMSIS_RTOS/cmsis_os.c ****  
 534:Middlewares/Third_Party/FreeRTOS/Source/CMSIS_RTOS/cmsis_os.c ****   return result;
 838              		.loc 1 534 0
 839 0010 FB68     		ldr	r3, [r7, #12]
 535:Middlewares/Third_Party/FreeRTOS/Source/CMSIS_RTOS/cmsis_os.c **** }
 840              		.loc 1 535 0
 841 0012 1846     		mov	r0, r3
 842 0014 1437     		adds	r7, r7, #20
 843              	.LCFI76:
 844              		.cfi_def_cfa_offset 4
 845 0016 BD46     		mov	sp, r7
 846              	.LCFI77:
 847              		.cfi_def_cfa_register 13
 848              		@ sp needed
 849 0018 5DF8047B 		ldr	r7, [sp], #4
 850              	.LCFI78:
 851              		.cfi_restore 7
 852              		.cfi_def_cfa_offset 0
 853 001c 7047     		bx	lr
 854              		.cfi_endproc
 855              	.LFE46:
 857 001e 00BF     		.section	.text.osSignalSet,"ax",%progbits
 858              		.align	2
 859              		.global	osSignalSet
 860              		.thumb
 861              		.thumb_func
 863              	osSignalSet:
 864              	.LFB47:
 536:Middlewares/Third_Party/FreeRTOS/Source/CMSIS_RTOS/cmsis_os.c **** 
 537:Middlewares/Third_Party/FreeRTOS/Source/CMSIS_RTOS/cmsis_os.c **** /***************************  Signal Management ********************************/
 538:Middlewares/Third_Party/FreeRTOS/Source/CMSIS_RTOS/cmsis_os.c **** /**
 539:Middlewares/Third_Party/FreeRTOS/Source/CMSIS_RTOS/cmsis_os.c **** * @brief  Set the specified Signal Flags of an active thread.
 540:Middlewares/Third_Party/FreeRTOS/Source/CMSIS_RTOS/cmsis_os.c **** * @param  thread_id     thread ID obtained by \ref osThreadCreate or \ref osThreadGetId.
 541:Middlewares/Third_Party/FreeRTOS/Source/CMSIS_RTOS/cmsis_os.c **** * @param  signals       specifies the signal flags of the thread that should be set.
 542:Middlewares/Third_Party/FreeRTOS/Source/CMSIS_RTOS/cmsis_os.c **** * @retval previous signal flags of the specified thread or 0x80000000 in case of incorrect paramete
ARM GAS  /tmp/ccVQttFk.s 			page 27


 543:Middlewares/Third_Party/FreeRTOS/Source/CMSIS_RTOS/cmsis_os.c **** * @note   MUST REMAIN UNCHANGED: \b osSignalSet shall be consistent in every CMSIS-RTOS.
 544:Middlewares/Third_Party/FreeRTOS/Source/CMSIS_RTOS/cmsis_os.c **** */
 545:Middlewares/Third_Party/FreeRTOS/Source/CMSIS_RTOS/cmsis_os.c **** int32_t osSignalSet (osThreadId thread_id, int32_t signal)
 546:Middlewares/Third_Party/FreeRTOS/Source/CMSIS_RTOS/cmsis_os.c **** {
 865              		.loc 1 546 0
 866              		.cfi_startproc
 867              		@ args = 0, pretend = 0, frame = 16
 868              		@ frame_needed = 1, uses_anonymous_args = 0
 869 0000 90B5     		push	{r4, r7, lr}
 870              	.LCFI79:
 871              		.cfi_def_cfa_offset 12
 872              		.cfi_offset 4, -12
 873              		.cfi_offset 7, -8
 874              		.cfi_offset 14, -4
 875 0002 87B0     		sub	sp, sp, #28
 876              	.LCFI80:
 877              		.cfi_def_cfa_offset 40
 878 0004 02AF     		add	r7, sp, #8
 879              	.LCFI81:
 880              		.cfi_def_cfa 7, 32
 881 0006 7860     		str	r0, [r7, #4]
 882 0008 3960     		str	r1, [r7]
 547:Middlewares/Third_Party/FreeRTOS/Source/CMSIS_RTOS/cmsis_os.c **** #if( configUSE_TASK_NOTIFICATIONS == 1 )	
 548:Middlewares/Third_Party/FreeRTOS/Source/CMSIS_RTOS/cmsis_os.c ****   BaseType_t xHigherPriorityTaskWoken = pdFALSE;
 883              		.loc 1 548 0
 884 000a 0023     		movs	r3, #0
 885 000c FB60     		str	r3, [r7, #12]
 549:Middlewares/Third_Party/FreeRTOS/Source/CMSIS_RTOS/cmsis_os.c ****   uint32_t ulPreviousNotificationValue = 0;
 886              		.loc 1 549 0
 887 000e 0023     		movs	r3, #0
 888 0010 BB60     		str	r3, [r7, #8]
 550:Middlewares/Third_Party/FreeRTOS/Source/CMSIS_RTOS/cmsis_os.c ****   
 551:Middlewares/Third_Party/FreeRTOS/Source/CMSIS_RTOS/cmsis_os.c ****   if (inHandlerMode())
 889              		.loc 1 551 0
 890 0012 FFF7FEFF 		bl	inHandlerMode
 891 0016 0346     		mov	r3, r0
 892 0018 002B     		cmp	r3, #0
 893 001a 1DD0     		beq	.L48
 552:Middlewares/Third_Party/FreeRTOS/Source/CMSIS_RTOS/cmsis_os.c ****   {
 553:Middlewares/Third_Party/FreeRTOS/Source/CMSIS_RTOS/cmsis_os.c ****     if(xTaskGenericNotifyFromISR( thread_id , (uint32_t)signal, eSetBits, &ulPreviousNotificationVa
 894              		.loc 1 553 0
 895 001c 3A68     		ldr	r2, [r7]
 896 001e 07F10804 		add	r4, r7, #8
 897 0022 07F10C03 		add	r3, r7, #12
 898 0026 0093     		str	r3, [sp]
 899 0028 7868     		ldr	r0, [r7, #4]
 900 002a 1146     		mov	r1, r2
 901 002c 0122     		movs	r2, #1
 902 002e 2346     		mov	r3, r4
 903 0030 FFF7FEFF 		bl	xTaskGenericNotifyFromISR
 904 0034 0346     		mov	r3, r0
 905 0036 012B     		cmp	r3, #1
 906 0038 02D0     		beq	.L49
 554:Middlewares/Third_Party/FreeRTOS/Source/CMSIS_RTOS/cmsis_os.c ****       return 0x80000000;
 907              		.loc 1 554 0
 908 003a 4FF00043 		mov	r3, #-2147483648
 909 003e 1AE0     		b	.L53
ARM GAS  /tmp/ccVQttFk.s 			page 28


 910              	.L49:
 555:Middlewares/Third_Party/FreeRTOS/Source/CMSIS_RTOS/cmsis_os.c ****     
 556:Middlewares/Third_Party/FreeRTOS/Source/CMSIS_RTOS/cmsis_os.c ****     portYIELD_FROM_ISR( xHigherPriorityTaskWoken );
 911              		.loc 1 556 0
 912 0040 FB68     		ldr	r3, [r7, #12]
 913 0042 002B     		cmp	r3, #0
 914 0044 16D0     		beq	.L52
 915              		.loc 1 556 0 is_stmt 0 discriminator 1
 916 0046 0E4B     		ldr	r3, .L54
 917 0048 4FF08052 		mov	r2, #268435456
 918 004c 1A60     		str	r2, [r3]
 919              	@ 556 "Middlewares/Third_Party/FreeRTOS/Source/CMSIS_RTOS/cmsis_os.c" 1
 920 004e BFF34F8F 		dsb
 921              	@ 0 "" 2
 922              	@ 556 "Middlewares/Third_Party/FreeRTOS/Source/CMSIS_RTOS/cmsis_os.c" 1
 923 0052 BFF36F8F 		isb
 924              	@ 0 "" 2
 925              		.thumb
 926 0056 0DE0     		b	.L52
 927              	.L48:
 557:Middlewares/Third_Party/FreeRTOS/Source/CMSIS_RTOS/cmsis_os.c ****   }  
 558:Middlewares/Third_Party/FreeRTOS/Source/CMSIS_RTOS/cmsis_os.c ****   else if(xTaskGenericNotify( thread_id , (uint32_t)signal, eSetBits, &ulPreviousNotificationValue)
 928              		.loc 1 558 0 is_stmt 1
 929 0058 3A68     		ldr	r2, [r7]
 930 005a 07F10803 		add	r3, r7, #8
 931 005e 7868     		ldr	r0, [r7, #4]
 932 0060 1146     		mov	r1, r2
 933 0062 0122     		movs	r2, #1
 934 0064 FFF7FEFF 		bl	xTaskGenericNotify
 935 0068 0346     		mov	r3, r0
 936 006a 012B     		cmp	r3, #1
 937 006c 02D0     		beq	.L52
 559:Middlewares/Third_Party/FreeRTOS/Source/CMSIS_RTOS/cmsis_os.c ****     return 0x80000000;
 938              		.loc 1 559 0
 939 006e 4FF00043 		mov	r3, #-2147483648
 940 0072 00E0     		b	.L53
 941              	.L52:
 560:Middlewares/Third_Party/FreeRTOS/Source/CMSIS_RTOS/cmsis_os.c ****   
 561:Middlewares/Third_Party/FreeRTOS/Source/CMSIS_RTOS/cmsis_os.c ****   return ulPreviousNotificationValue;
 942              		.loc 1 561 0
 943 0074 BB68     		ldr	r3, [r7, #8]
 944              	.L53:
 562:Middlewares/Third_Party/FreeRTOS/Source/CMSIS_RTOS/cmsis_os.c **** #else
 563:Middlewares/Third_Party/FreeRTOS/Source/CMSIS_RTOS/cmsis_os.c ****   (void) thread_id;
 564:Middlewares/Third_Party/FreeRTOS/Source/CMSIS_RTOS/cmsis_os.c ****   (void) signal;
 565:Middlewares/Third_Party/FreeRTOS/Source/CMSIS_RTOS/cmsis_os.c **** 
 566:Middlewares/Third_Party/FreeRTOS/Source/CMSIS_RTOS/cmsis_os.c ****   return 0x80000000; /* Task Notification not supported */ 	
 567:Middlewares/Third_Party/FreeRTOS/Source/CMSIS_RTOS/cmsis_os.c **** #endif
 568:Middlewares/Third_Party/FreeRTOS/Source/CMSIS_RTOS/cmsis_os.c **** }
 945              		.loc 1 568 0 discriminator 1
 946 0076 1846     		mov	r0, r3
 947 0078 1437     		adds	r7, r7, #20
 948              	.LCFI82:
 949              		.cfi_def_cfa_offset 12
 950 007a BD46     		mov	sp, r7
 951              	.LCFI83:
 952              		.cfi_def_cfa_register 13
ARM GAS  /tmp/ccVQttFk.s 			page 29


 953              		@ sp needed
 954 007c 90BD     		pop	{r4, r7, pc}
 955              	.L55:
 956 007e 00BF     		.align	2
 957              	.L54:
 958 0080 04ED00E0 		.word	-536810236
 959              		.cfi_endproc
 960              	.LFE47:
 962              		.section	.text.osSignalWait,"ax",%progbits
 963              		.align	2
 964              		.global	osSignalWait
 965              		.thumb
 966              		.thumb_func
 968              	osSignalWait:
 969              	.LFB48:
 569:Middlewares/Third_Party/FreeRTOS/Source/CMSIS_RTOS/cmsis_os.c **** 
 570:Middlewares/Third_Party/FreeRTOS/Source/CMSIS_RTOS/cmsis_os.c **** /**
 571:Middlewares/Third_Party/FreeRTOS/Source/CMSIS_RTOS/cmsis_os.c **** * @brief  Clear the specified Signal Flags of an active thread.
 572:Middlewares/Third_Party/FreeRTOS/Source/CMSIS_RTOS/cmsis_os.c **** * @param  thread_id  thread ID obtained by \ref osThreadCreate or \ref osThreadGetId.
 573:Middlewares/Third_Party/FreeRTOS/Source/CMSIS_RTOS/cmsis_os.c **** * @param  signals    specifies the signal flags of the thread that shall be cleared.
 574:Middlewares/Third_Party/FreeRTOS/Source/CMSIS_RTOS/cmsis_os.c **** * @retval  previous signal flags of the specified thread or 0x80000000 in case of incorrect paramet
 575:Middlewares/Third_Party/FreeRTOS/Source/CMSIS_RTOS/cmsis_os.c **** * @note   MUST REMAIN UNCHANGED: \b osSignalClear shall be consistent in every CMSIS-RTOS.
 576:Middlewares/Third_Party/FreeRTOS/Source/CMSIS_RTOS/cmsis_os.c **** */
 577:Middlewares/Third_Party/FreeRTOS/Source/CMSIS_RTOS/cmsis_os.c **** int32_t osSignalClear (osThreadId thread_id, int32_t signal);
 578:Middlewares/Third_Party/FreeRTOS/Source/CMSIS_RTOS/cmsis_os.c **** 
 579:Middlewares/Third_Party/FreeRTOS/Source/CMSIS_RTOS/cmsis_os.c **** /**
 580:Middlewares/Third_Party/FreeRTOS/Source/CMSIS_RTOS/cmsis_os.c **** * @brief  Wait for one or more Signal Flags to become signaled for the current \b RUNNING thread.
 581:Middlewares/Third_Party/FreeRTOS/Source/CMSIS_RTOS/cmsis_os.c **** * @param  signals   wait until all specified signal flags set or 0 for any single signal flag.
 582:Middlewares/Third_Party/FreeRTOS/Source/CMSIS_RTOS/cmsis_os.c **** * @param  millisec  timeout value or 0 in case of no time-out.
 583:Middlewares/Third_Party/FreeRTOS/Source/CMSIS_RTOS/cmsis_os.c **** * @retval  event flag information or error code.
 584:Middlewares/Third_Party/FreeRTOS/Source/CMSIS_RTOS/cmsis_os.c **** * @note   MUST REMAIN UNCHANGED: \b osSignalWait shall be consistent in every CMSIS-RTOS.
 585:Middlewares/Third_Party/FreeRTOS/Source/CMSIS_RTOS/cmsis_os.c **** */
 586:Middlewares/Third_Party/FreeRTOS/Source/CMSIS_RTOS/cmsis_os.c **** osEvent osSignalWait (int32_t signals, uint32_t millisec)
 587:Middlewares/Third_Party/FreeRTOS/Source/CMSIS_RTOS/cmsis_os.c **** {
 970              		.loc 1 587 0
 971              		.cfi_startproc
 972              		@ args = 0, pretend = 0, frame = 32
 973              		@ frame_needed = 1, uses_anonymous_args = 0
 974 0000 90B5     		push	{r4, r7, lr}
 975              	.LCFI84:
 976              		.cfi_def_cfa_offset 12
 977              		.cfi_offset 4, -12
 978              		.cfi_offset 7, -8
 979              		.cfi_offset 14, -4
 980 0002 89B0     		sub	sp, sp, #36
 981              	.LCFI85:
 982              		.cfi_def_cfa_offset 48
 983 0004 00AF     		add	r7, sp, #0
 984              	.LCFI86:
 985              		.cfi_def_cfa_register 7
 986 0006 F860     		str	r0, [r7, #12]
 987 0008 B960     		str	r1, [r7, #8]
 988 000a 7A60     		str	r2, [r7, #4]
 588:Middlewares/Third_Party/FreeRTOS/Source/CMSIS_RTOS/cmsis_os.c ****   osEvent ret;
 589:Middlewares/Third_Party/FreeRTOS/Source/CMSIS_RTOS/cmsis_os.c **** 
 590:Middlewares/Third_Party/FreeRTOS/Source/CMSIS_RTOS/cmsis_os.c **** #if( configUSE_TASK_NOTIFICATIONS == 1 )
 591:Middlewares/Third_Party/FreeRTOS/Source/CMSIS_RTOS/cmsis_os.c **** 	
ARM GAS  /tmp/ccVQttFk.s 			page 30


 592:Middlewares/Third_Party/FreeRTOS/Source/CMSIS_RTOS/cmsis_os.c ****   TickType_t ticks;
 593:Middlewares/Third_Party/FreeRTOS/Source/CMSIS_RTOS/cmsis_os.c **** 
 594:Middlewares/Third_Party/FreeRTOS/Source/CMSIS_RTOS/cmsis_os.c ****   ret.value.signals = 0;  
 989              		.loc 1 594 0
 990 000c 0023     		movs	r3, #0
 991 000e 7B61     		str	r3, [r7, #20]
 595:Middlewares/Third_Party/FreeRTOS/Source/CMSIS_RTOS/cmsis_os.c ****   ticks = 0;
 992              		.loc 1 595 0
 993 0010 0023     		movs	r3, #0
 994 0012 FB61     		str	r3, [r7, #28]
 596:Middlewares/Third_Party/FreeRTOS/Source/CMSIS_RTOS/cmsis_os.c ****   if (millisec == osWaitForever) {
 995              		.loc 1 596 0
 996 0014 7B68     		ldr	r3, [r7, #4]
 997 0016 B3F1FF3F 		cmp	r3, #-1
 998 001a 03D1     		bne	.L57
 597:Middlewares/Third_Party/FreeRTOS/Source/CMSIS_RTOS/cmsis_os.c ****     ticks = portMAX_DELAY;
 999              		.loc 1 597 0
 1000 001c 4FF0FF33 		mov	r3, #-1
 1001 0020 FB61     		str	r3, [r7, #28]
 1002 0022 09E0     		b	.L58
 1003              	.L57:
 598:Middlewares/Third_Party/FreeRTOS/Source/CMSIS_RTOS/cmsis_os.c ****   }
 599:Middlewares/Third_Party/FreeRTOS/Source/CMSIS_RTOS/cmsis_os.c ****   else if (millisec != 0) {
 1004              		.loc 1 599 0
 1005 0024 7B68     		ldr	r3, [r7, #4]
 1006 0026 002B     		cmp	r3, #0
 1007 0028 06D0     		beq	.L58
 600:Middlewares/Third_Party/FreeRTOS/Source/CMSIS_RTOS/cmsis_os.c ****     ticks = millisec / portTICK_PERIOD_MS;
 1008              		.loc 1 600 0
 1009 002a 7B68     		ldr	r3, [r7, #4]
 1010 002c FB61     		str	r3, [r7, #28]
 601:Middlewares/Third_Party/FreeRTOS/Source/CMSIS_RTOS/cmsis_os.c ****     if (ticks == 0) {
 1011              		.loc 1 601 0
 1012 002e FB69     		ldr	r3, [r7, #28]
 1013 0030 002B     		cmp	r3, #0
 1014 0032 01D1     		bne	.L58
 602:Middlewares/Third_Party/FreeRTOS/Source/CMSIS_RTOS/cmsis_os.c ****       ticks = 1;
 1015              		.loc 1 602 0
 1016 0034 0123     		movs	r3, #1
 1017 0036 FB61     		str	r3, [r7, #28]
 1018              	.L58:
 603:Middlewares/Third_Party/FreeRTOS/Source/CMSIS_RTOS/cmsis_os.c ****     }
 604:Middlewares/Third_Party/FreeRTOS/Source/CMSIS_RTOS/cmsis_os.c ****   }  
 605:Middlewares/Third_Party/FreeRTOS/Source/CMSIS_RTOS/cmsis_os.c ****   
 606:Middlewares/Third_Party/FreeRTOS/Source/CMSIS_RTOS/cmsis_os.c ****   if (inHandlerMode())
 1019              		.loc 1 606 0
 1020 0038 FFF7FEFF 		bl	inHandlerMode
 1021 003c 0346     		mov	r3, r0
 1022 003e 002B     		cmp	r3, #0
 1023 0040 02D0     		beq	.L59
 607:Middlewares/Third_Party/FreeRTOS/Source/CMSIS_RTOS/cmsis_os.c ****   {
 608:Middlewares/Third_Party/FreeRTOS/Source/CMSIS_RTOS/cmsis_os.c ****     ret.status = osErrorISR;  /*Not allowed in ISR*/
 1024              		.loc 1 608 0
 1025 0042 8223     		movs	r3, #130
 1026 0044 3B61     		str	r3, [r7, #16]
 1027 0046 1DE0     		b	.L60
 1028              	.L59:
ARM GAS  /tmp/ccVQttFk.s 			page 31


 609:Middlewares/Third_Party/FreeRTOS/Source/CMSIS_RTOS/cmsis_os.c ****   }
 610:Middlewares/Third_Party/FreeRTOS/Source/CMSIS_RTOS/cmsis_os.c ****   else
 611:Middlewares/Third_Party/FreeRTOS/Source/CMSIS_RTOS/cmsis_os.c ****   {
 612:Middlewares/Third_Party/FreeRTOS/Source/CMSIS_RTOS/cmsis_os.c ****     if(xTaskNotifyWait( 0,(uint32_t) signals, (uint32_t *)&ret.value.signals, ticks) != pdTRUE)
 1029              		.loc 1 612 0
 1030 0048 BA68     		ldr	r2, [r7, #8]
 1031 004a 07F11003 		add	r3, r7, #16
 1032 004e 0433     		adds	r3, r3, #4
 1033 0050 0020     		movs	r0, #0
 1034 0052 1146     		mov	r1, r2
 1035 0054 1A46     		mov	r2, r3
 1036 0056 FB69     		ldr	r3, [r7, #28]
 1037 0058 FFF7FEFF 		bl	xTaskNotifyWait
 1038 005c 0346     		mov	r3, r0
 1039 005e 012B     		cmp	r3, #1
 1040 0060 08D0     		beq	.L61
 613:Middlewares/Third_Party/FreeRTOS/Source/CMSIS_RTOS/cmsis_os.c ****     {
 614:Middlewares/Third_Party/FreeRTOS/Source/CMSIS_RTOS/cmsis_os.c ****       if(ticks == 0)  ret.status = osOK;
 1041              		.loc 1 614 0
 1042 0062 FB69     		ldr	r3, [r7, #28]
 1043 0064 002B     		cmp	r3, #0
 1044 0066 02D1     		bne	.L62
 1045              		.loc 1 614 0 is_stmt 0 discriminator 1
 1046 0068 0023     		movs	r3, #0
 1047 006a 3B61     		str	r3, [r7, #16]
 1048 006c 0AE0     		b	.L60
 1049              	.L62:
 615:Middlewares/Third_Party/FreeRTOS/Source/CMSIS_RTOS/cmsis_os.c ****       else  ret.status = osEventTimeout;
 1050              		.loc 1 615 0 is_stmt 1
 1051 006e 4023     		movs	r3, #64
 1052 0070 3B61     		str	r3, [r7, #16]
 1053 0072 07E0     		b	.L60
 1054              	.L61:
 616:Middlewares/Third_Party/FreeRTOS/Source/CMSIS_RTOS/cmsis_os.c ****     }
 617:Middlewares/Third_Party/FreeRTOS/Source/CMSIS_RTOS/cmsis_os.c ****     else if(ret.value.signals < 0)
 1055              		.loc 1 617 0
 1056 0074 7B69     		ldr	r3, [r7, #20]
 1057 0076 002B     		cmp	r3, #0
 1058 0078 02DA     		bge	.L64
 618:Middlewares/Third_Party/FreeRTOS/Source/CMSIS_RTOS/cmsis_os.c ****     {
 619:Middlewares/Third_Party/FreeRTOS/Source/CMSIS_RTOS/cmsis_os.c ****       ret.status =  osErrorValue;     
 1059              		.loc 1 619 0
 1060 007a 8623     		movs	r3, #134
 1061 007c 3B61     		str	r3, [r7, #16]
 1062 007e 01E0     		b	.L60
 1063              	.L64:
 620:Middlewares/Third_Party/FreeRTOS/Source/CMSIS_RTOS/cmsis_os.c ****     }
 621:Middlewares/Third_Party/FreeRTOS/Source/CMSIS_RTOS/cmsis_os.c ****     else  ret.status =  osEventSignal;
 1064              		.loc 1 621 0
 1065 0080 0823     		movs	r3, #8
 1066 0082 3B61     		str	r3, [r7, #16]
 1067              	.L60:
 622:Middlewares/Third_Party/FreeRTOS/Source/CMSIS_RTOS/cmsis_os.c ****   }
 623:Middlewares/Third_Party/FreeRTOS/Source/CMSIS_RTOS/cmsis_os.c **** #else
 624:Middlewares/Third_Party/FreeRTOS/Source/CMSIS_RTOS/cmsis_os.c ****   (void) signals;
 625:Middlewares/Third_Party/FreeRTOS/Source/CMSIS_RTOS/cmsis_os.c ****   (void) millisec;
 626:Middlewares/Third_Party/FreeRTOS/Source/CMSIS_RTOS/cmsis_os.c **** 	
ARM GAS  /tmp/ccVQttFk.s 			page 32


 627:Middlewares/Third_Party/FreeRTOS/Source/CMSIS_RTOS/cmsis_os.c ****   ret.status =  osErrorOS;	/* Task Notification not supported */
 628:Middlewares/Third_Party/FreeRTOS/Source/CMSIS_RTOS/cmsis_os.c **** #endif
 629:Middlewares/Third_Party/FreeRTOS/Source/CMSIS_RTOS/cmsis_os.c ****   
 630:Middlewares/Third_Party/FreeRTOS/Source/CMSIS_RTOS/cmsis_os.c ****   return ret;
 1068              		.loc 1 630 0
 1069 0084 FB68     		ldr	r3, [r7, #12]
 1070 0086 1C46     		mov	r4, r3
 1071 0088 07F11003 		add	r3, r7, #16
 1072 008c 93E80700 		ldmia	r3, {r0, r1, r2}
 1073 0090 84E80700 		stmia	r4, {r0, r1, r2}
 631:Middlewares/Third_Party/FreeRTOS/Source/CMSIS_RTOS/cmsis_os.c **** }
 1074              		.loc 1 631 0
 1075 0094 F868     		ldr	r0, [r7, #12]
 1076 0096 2437     		adds	r7, r7, #36
 1077              	.LCFI87:
 1078              		.cfi_def_cfa_offset 12
 1079 0098 BD46     		mov	sp, r7
 1080              	.LCFI88:
 1081              		.cfi_def_cfa_register 13
 1082              		@ sp needed
 1083 009a 90BD     		pop	{r4, r7, pc}
 1084              		.cfi_endproc
 1085              	.LFE48:
 1087              		.section	.text.osMutexCreate,"ax",%progbits
 1088              		.align	2
 1089              		.global	osMutexCreate
 1090              		.thumb
 1091              		.thumb_func
 1093              	osMutexCreate:
 1094              	.LFB49:
 632:Middlewares/Third_Party/FreeRTOS/Source/CMSIS_RTOS/cmsis_os.c **** 
 633:Middlewares/Third_Party/FreeRTOS/Source/CMSIS_RTOS/cmsis_os.c **** /****************************  Mutex Management ********************************/
 634:Middlewares/Third_Party/FreeRTOS/Source/CMSIS_RTOS/cmsis_os.c **** /**
 635:Middlewares/Third_Party/FreeRTOS/Source/CMSIS_RTOS/cmsis_os.c **** * @brief  Create and Initialize a Mutex object
 636:Middlewares/Third_Party/FreeRTOS/Source/CMSIS_RTOS/cmsis_os.c **** * @param  mutex_def     mutex definition referenced with \ref osMutex.
 637:Middlewares/Third_Party/FreeRTOS/Source/CMSIS_RTOS/cmsis_os.c **** * @retval  mutex ID for reference by other functions or NULL in case of error.
 638:Middlewares/Third_Party/FreeRTOS/Source/CMSIS_RTOS/cmsis_os.c **** * @note   MUST REMAIN UNCHANGED: \b osMutexCreate shall be consistent in every CMSIS-RTOS.
 639:Middlewares/Third_Party/FreeRTOS/Source/CMSIS_RTOS/cmsis_os.c **** */
 640:Middlewares/Third_Party/FreeRTOS/Source/CMSIS_RTOS/cmsis_os.c **** osMutexId osMutexCreate (const osMutexDef_t *mutex_def)
 641:Middlewares/Third_Party/FreeRTOS/Source/CMSIS_RTOS/cmsis_os.c **** {
 1095              		.loc 1 641 0
 1096              		.cfi_startproc
 1097              		@ args = 0, pretend = 0, frame = 8
 1098              		@ frame_needed = 1, uses_anonymous_args = 0
 1099 0000 80B5     		push	{r7, lr}
 1100              	.LCFI89:
 1101              		.cfi_def_cfa_offset 8
 1102              		.cfi_offset 7, -8
 1103              		.cfi_offset 14, -4
 1104 0002 82B0     		sub	sp, sp, #8
 1105              	.LCFI90:
 1106              		.cfi_def_cfa_offset 16
 1107 0004 00AF     		add	r7, sp, #0
 1108              	.LCFI91:
 1109              		.cfi_def_cfa_register 7
 1110 0006 7860     		str	r0, [r7, #4]
 642:Middlewares/Third_Party/FreeRTOS/Source/CMSIS_RTOS/cmsis_os.c **** #if ( configUSE_MUTEXES == 1)
ARM GAS  /tmp/ccVQttFk.s 			page 33


 643:Middlewares/Third_Party/FreeRTOS/Source/CMSIS_RTOS/cmsis_os.c **** 
 644:Middlewares/Third_Party/FreeRTOS/Source/CMSIS_RTOS/cmsis_os.c **** #if( configSUPPORT_STATIC_ALLOCATION == 1 ) && ( configSUPPORT_DYNAMIC_ALLOCATION == 1 )
 645:Middlewares/Third_Party/FreeRTOS/Source/CMSIS_RTOS/cmsis_os.c **** 
 646:Middlewares/Third_Party/FreeRTOS/Source/CMSIS_RTOS/cmsis_os.c ****   if (mutex_def->controlblock != NULL) {
 647:Middlewares/Third_Party/FreeRTOS/Source/CMSIS_RTOS/cmsis_os.c ****     return xSemaphoreCreateMutexStatic( mutex_def->controlblock );
 648:Middlewares/Third_Party/FreeRTOS/Source/CMSIS_RTOS/cmsis_os.c ****      }
 649:Middlewares/Third_Party/FreeRTOS/Source/CMSIS_RTOS/cmsis_os.c ****   else {
 650:Middlewares/Third_Party/FreeRTOS/Source/CMSIS_RTOS/cmsis_os.c ****     return xSemaphoreCreateMutex(); 
 651:Middlewares/Third_Party/FreeRTOS/Source/CMSIS_RTOS/cmsis_os.c ****   }
 652:Middlewares/Third_Party/FreeRTOS/Source/CMSIS_RTOS/cmsis_os.c **** #elif ( configSUPPORT_STATIC_ALLOCATION == 1 )
 653:Middlewares/Third_Party/FreeRTOS/Source/CMSIS_RTOS/cmsis_os.c ****   return xSemaphoreCreateMutexStatic( mutex_def->controlblock );
 654:Middlewares/Third_Party/FreeRTOS/Source/CMSIS_RTOS/cmsis_os.c **** #else  
 655:Middlewares/Third_Party/FreeRTOS/Source/CMSIS_RTOS/cmsis_os.c ****     return xSemaphoreCreateMutex(); 
 1111              		.loc 1 655 0
 1112 0008 0120     		movs	r0, #1
 1113 000a FFF7FEFF 		bl	xQueueCreateMutex
 1114 000e 0346     		mov	r3, r0
 656:Middlewares/Third_Party/FreeRTOS/Source/CMSIS_RTOS/cmsis_os.c **** #endif
 657:Middlewares/Third_Party/FreeRTOS/Source/CMSIS_RTOS/cmsis_os.c **** #else
 658:Middlewares/Third_Party/FreeRTOS/Source/CMSIS_RTOS/cmsis_os.c ****   return NULL;
 659:Middlewares/Third_Party/FreeRTOS/Source/CMSIS_RTOS/cmsis_os.c **** #endif
 660:Middlewares/Third_Party/FreeRTOS/Source/CMSIS_RTOS/cmsis_os.c **** }
 1115              		.loc 1 660 0
 1116 0010 1846     		mov	r0, r3
 1117 0012 0837     		adds	r7, r7, #8
 1118              	.LCFI92:
 1119              		.cfi_def_cfa_offset 8
 1120 0014 BD46     		mov	sp, r7
 1121              	.LCFI93:
 1122              		.cfi_def_cfa_register 13
 1123              		@ sp needed
 1124 0016 80BD     		pop	{r7, pc}
 1125              		.cfi_endproc
 1126              	.LFE49:
 1128              		.section	.text.osMutexWait,"ax",%progbits
 1129              		.align	2
 1130              		.global	osMutexWait
 1131              		.thumb
 1132              		.thumb_func
 1134              	osMutexWait:
 1135              	.LFB50:
 661:Middlewares/Third_Party/FreeRTOS/Source/CMSIS_RTOS/cmsis_os.c **** 
 662:Middlewares/Third_Party/FreeRTOS/Source/CMSIS_RTOS/cmsis_os.c **** /**
 663:Middlewares/Third_Party/FreeRTOS/Source/CMSIS_RTOS/cmsis_os.c **** * @brief Wait until a Mutex becomes available
 664:Middlewares/Third_Party/FreeRTOS/Source/CMSIS_RTOS/cmsis_os.c **** * @param mutex_id      mutex ID obtained by \ref osMutexCreate.
 665:Middlewares/Third_Party/FreeRTOS/Source/CMSIS_RTOS/cmsis_os.c **** * @param millisec      timeout value or 0 in case of no time-out.
 666:Middlewares/Third_Party/FreeRTOS/Source/CMSIS_RTOS/cmsis_os.c **** * @retval  status code that indicates the execution status of the function.
 667:Middlewares/Third_Party/FreeRTOS/Source/CMSIS_RTOS/cmsis_os.c **** * @note   MUST REMAIN UNCHANGED: \b osMutexWait shall be consistent in every CMSIS-RTOS.
 668:Middlewares/Third_Party/FreeRTOS/Source/CMSIS_RTOS/cmsis_os.c **** */
 669:Middlewares/Third_Party/FreeRTOS/Source/CMSIS_RTOS/cmsis_os.c **** osStatus osMutexWait (osMutexId mutex_id, uint32_t millisec)
 670:Middlewares/Third_Party/FreeRTOS/Source/CMSIS_RTOS/cmsis_os.c **** {
 1136              		.loc 1 670 0
 1137              		.cfi_startproc
 1138              		@ args = 0, pretend = 0, frame = 16
 1139              		@ frame_needed = 1, uses_anonymous_args = 0
 1140 0000 80B5     		push	{r7, lr}
 1141              	.LCFI94:
ARM GAS  /tmp/ccVQttFk.s 			page 34


 1142              		.cfi_def_cfa_offset 8
 1143              		.cfi_offset 7, -8
 1144              		.cfi_offset 14, -4
 1145 0002 84B0     		sub	sp, sp, #16
 1146              	.LCFI95:
 1147              		.cfi_def_cfa_offset 24
 1148 0004 00AF     		add	r7, sp, #0
 1149              	.LCFI96:
 1150              		.cfi_def_cfa_register 7
 1151 0006 7860     		str	r0, [r7, #4]
 1152 0008 3960     		str	r1, [r7]
 671:Middlewares/Third_Party/FreeRTOS/Source/CMSIS_RTOS/cmsis_os.c ****   TickType_t ticks;
 672:Middlewares/Third_Party/FreeRTOS/Source/CMSIS_RTOS/cmsis_os.c ****   portBASE_TYPE taskWoken = pdFALSE;  
 1153              		.loc 1 672 0
 1154 000a 0023     		movs	r3, #0
 1155 000c BB60     		str	r3, [r7, #8]
 673:Middlewares/Third_Party/FreeRTOS/Source/CMSIS_RTOS/cmsis_os.c ****   
 674:Middlewares/Third_Party/FreeRTOS/Source/CMSIS_RTOS/cmsis_os.c ****   
 675:Middlewares/Third_Party/FreeRTOS/Source/CMSIS_RTOS/cmsis_os.c ****   if (mutex_id == NULL) {
 1156              		.loc 1 675 0
 1157 000e 7B68     		ldr	r3, [r7, #4]
 1158 0010 002B     		cmp	r3, #0
 1159 0012 01D1     		bne	.L69
 676:Middlewares/Third_Party/FreeRTOS/Source/CMSIS_RTOS/cmsis_os.c ****     return osErrorParameter;
 1160              		.loc 1 676 0
 1161 0014 8023     		movs	r3, #128
 1162 0016 3CE0     		b	.L77
 1163              	.L69:
 677:Middlewares/Third_Party/FreeRTOS/Source/CMSIS_RTOS/cmsis_os.c ****   }
 678:Middlewares/Third_Party/FreeRTOS/Source/CMSIS_RTOS/cmsis_os.c ****   
 679:Middlewares/Third_Party/FreeRTOS/Source/CMSIS_RTOS/cmsis_os.c ****   ticks = 0;
 1164              		.loc 1 679 0
 1165 0018 0023     		movs	r3, #0
 1166 001a FB60     		str	r3, [r7, #12]
 680:Middlewares/Third_Party/FreeRTOS/Source/CMSIS_RTOS/cmsis_os.c ****   if (millisec == osWaitForever) {
 1167              		.loc 1 680 0
 1168 001c 3B68     		ldr	r3, [r7]
 1169 001e B3F1FF3F 		cmp	r3, #-1
 1170 0022 03D1     		bne	.L71
 681:Middlewares/Third_Party/FreeRTOS/Source/CMSIS_RTOS/cmsis_os.c ****     ticks = portMAX_DELAY;
 1171              		.loc 1 681 0
 1172 0024 4FF0FF33 		mov	r3, #-1
 1173 0028 FB60     		str	r3, [r7, #12]
 1174 002a 09E0     		b	.L72
 1175              	.L71:
 682:Middlewares/Third_Party/FreeRTOS/Source/CMSIS_RTOS/cmsis_os.c ****   }
 683:Middlewares/Third_Party/FreeRTOS/Source/CMSIS_RTOS/cmsis_os.c ****   else if (millisec != 0) {
 1176              		.loc 1 683 0
 1177 002c 3B68     		ldr	r3, [r7]
 1178 002e 002B     		cmp	r3, #0
 1179 0030 06D0     		beq	.L72
 684:Middlewares/Third_Party/FreeRTOS/Source/CMSIS_RTOS/cmsis_os.c ****     ticks = millisec / portTICK_PERIOD_MS;
 1180              		.loc 1 684 0
 1181 0032 3B68     		ldr	r3, [r7]
 1182 0034 FB60     		str	r3, [r7, #12]
 685:Middlewares/Third_Party/FreeRTOS/Source/CMSIS_RTOS/cmsis_os.c ****     if (ticks == 0) {
 1183              		.loc 1 685 0
ARM GAS  /tmp/ccVQttFk.s 			page 35


 1184 0036 FB68     		ldr	r3, [r7, #12]
 1185 0038 002B     		cmp	r3, #0
 1186 003a 01D1     		bne	.L72
 686:Middlewares/Third_Party/FreeRTOS/Source/CMSIS_RTOS/cmsis_os.c ****       ticks = 1;
 1187              		.loc 1 686 0
 1188 003c 0123     		movs	r3, #1
 1189 003e FB60     		str	r3, [r7, #12]
 1190              	.L72:
 687:Middlewares/Third_Party/FreeRTOS/Source/CMSIS_RTOS/cmsis_os.c ****     }
 688:Middlewares/Third_Party/FreeRTOS/Source/CMSIS_RTOS/cmsis_os.c ****   }
 689:Middlewares/Third_Party/FreeRTOS/Source/CMSIS_RTOS/cmsis_os.c ****   
 690:Middlewares/Third_Party/FreeRTOS/Source/CMSIS_RTOS/cmsis_os.c ****   if (inHandlerMode()) {
 1191              		.loc 1 690 0
 1192 0040 FFF7FEFF 		bl	inHandlerMode
 1193 0044 0346     		mov	r3, r0
 1194 0046 002B     		cmp	r3, #0
 1195 0048 17D0     		beq	.L73
 691:Middlewares/Third_Party/FreeRTOS/Source/CMSIS_RTOS/cmsis_os.c ****     if (xSemaphoreTakeFromISR(mutex_id, &taskWoken) != pdTRUE) {
 1196              		.loc 1 691 0
 1197 004a 07F10803 		add	r3, r7, #8
 1198 004e 7868     		ldr	r0, [r7, #4]
 1199 0050 0021     		movs	r1, #0
 1200 0052 1A46     		mov	r2, r3
 1201 0054 FFF7FEFF 		bl	xQueueReceiveFromISR
 1202 0058 0346     		mov	r3, r0
 1203 005a 012B     		cmp	r3, #1
 1204 005c 01D0     		beq	.L74
 692:Middlewares/Third_Party/FreeRTOS/Source/CMSIS_RTOS/cmsis_os.c ****       return osErrorOS;
 1205              		.loc 1 692 0
 1206 005e FF23     		movs	r3, #255
 1207 0060 17E0     		b	.L77
 1208              	.L74:
 693:Middlewares/Third_Party/FreeRTOS/Source/CMSIS_RTOS/cmsis_os.c ****     }
 694:Middlewares/Third_Party/FreeRTOS/Source/CMSIS_RTOS/cmsis_os.c **** 	portEND_SWITCHING_ISR(taskWoken);
 1209              		.loc 1 694 0
 1210 0062 BB68     		ldr	r3, [r7, #8]
 1211 0064 002B     		cmp	r3, #0
 1212 0066 13D0     		beq	.L76
 1213              		.loc 1 694 0 is_stmt 0 discriminator 1
 1214 0068 0C4B     		ldr	r3, .L78
 1215 006a 4FF08052 		mov	r2, #268435456
 1216 006e 1A60     		str	r2, [r3]
 1217              	@ 694 "Middlewares/Third_Party/FreeRTOS/Source/CMSIS_RTOS/cmsis_os.c" 1
 1218 0070 BFF34F8F 		dsb
 1219              	@ 0 "" 2
 1220              	@ 694 "Middlewares/Third_Party/FreeRTOS/Source/CMSIS_RTOS/cmsis_os.c" 1
 1221 0074 BFF36F8F 		isb
 1222              	@ 0 "" 2
 1223              		.thumb
 1224 0078 0AE0     		b	.L76
 1225              	.L73:
 695:Middlewares/Third_Party/FreeRTOS/Source/CMSIS_RTOS/cmsis_os.c ****   } 
 696:Middlewares/Third_Party/FreeRTOS/Source/CMSIS_RTOS/cmsis_os.c ****   else if (xSemaphoreTake(mutex_id, ticks) != pdTRUE) {
 1226              		.loc 1 696 0 is_stmt 1
 1227 007a 7868     		ldr	r0, [r7, #4]
 1228 007c 0021     		movs	r1, #0
 1229 007e FA68     		ldr	r2, [r7, #12]
ARM GAS  /tmp/ccVQttFk.s 			page 36


 1230 0080 0023     		movs	r3, #0
 1231 0082 FFF7FEFF 		bl	xQueueGenericReceive
 1232 0086 0346     		mov	r3, r0
 1233 0088 012B     		cmp	r3, #1
 1234 008a 01D0     		beq	.L76
 697:Middlewares/Third_Party/FreeRTOS/Source/CMSIS_RTOS/cmsis_os.c ****     return osErrorOS;
 1235              		.loc 1 697 0
 1236 008c FF23     		movs	r3, #255
 1237 008e 00E0     		b	.L77
 1238              	.L76:
 698:Middlewares/Third_Party/FreeRTOS/Source/CMSIS_RTOS/cmsis_os.c ****   }
 699:Middlewares/Third_Party/FreeRTOS/Source/CMSIS_RTOS/cmsis_os.c ****   
 700:Middlewares/Third_Party/FreeRTOS/Source/CMSIS_RTOS/cmsis_os.c ****   return osOK;
 1239              		.loc 1 700 0
 1240 0090 0023     		movs	r3, #0
 1241              	.L77:
 701:Middlewares/Third_Party/FreeRTOS/Source/CMSIS_RTOS/cmsis_os.c **** }
 1242              		.loc 1 701 0 discriminator 1
 1243 0092 1846     		mov	r0, r3
 1244 0094 1037     		adds	r7, r7, #16
 1245              	.LCFI97:
 1246              		.cfi_def_cfa_offset 8
 1247 0096 BD46     		mov	sp, r7
 1248              	.LCFI98:
 1249              		.cfi_def_cfa_register 13
 1250              		@ sp needed
 1251 0098 80BD     		pop	{r7, pc}
 1252              	.L79:
 1253 009a 00BF     		.align	2
 1254              	.L78:
 1255 009c 04ED00E0 		.word	-536810236
 1256              		.cfi_endproc
 1257              	.LFE50:
 1259              		.section	.text.osMutexRelease,"ax",%progbits
 1260              		.align	2
 1261              		.global	osMutexRelease
 1262              		.thumb
 1263              		.thumb_func
 1265              	osMutexRelease:
 1266              	.LFB51:
 702:Middlewares/Third_Party/FreeRTOS/Source/CMSIS_RTOS/cmsis_os.c **** 
 703:Middlewares/Third_Party/FreeRTOS/Source/CMSIS_RTOS/cmsis_os.c **** /**
 704:Middlewares/Third_Party/FreeRTOS/Source/CMSIS_RTOS/cmsis_os.c **** * @brief Release a Mutex that was obtained by \ref osMutexWait
 705:Middlewares/Third_Party/FreeRTOS/Source/CMSIS_RTOS/cmsis_os.c **** * @param mutex_id      mutex ID obtained by \ref osMutexCreate.
 706:Middlewares/Third_Party/FreeRTOS/Source/CMSIS_RTOS/cmsis_os.c **** * @retval  status code that indicates the execution status of the function.
 707:Middlewares/Third_Party/FreeRTOS/Source/CMSIS_RTOS/cmsis_os.c **** * @note   MUST REMAIN UNCHANGED: \b osMutexRelease shall be consistent in every CMSIS-RTOS.
 708:Middlewares/Third_Party/FreeRTOS/Source/CMSIS_RTOS/cmsis_os.c **** */
 709:Middlewares/Third_Party/FreeRTOS/Source/CMSIS_RTOS/cmsis_os.c **** osStatus osMutexRelease (osMutexId mutex_id)
 710:Middlewares/Third_Party/FreeRTOS/Source/CMSIS_RTOS/cmsis_os.c **** {
 1267              		.loc 1 710 0
 1268              		.cfi_startproc
 1269              		@ args = 0, pretend = 0, frame = 16
 1270              		@ frame_needed = 1, uses_anonymous_args = 0
 1271 0000 80B5     		push	{r7, lr}
 1272              	.LCFI99:
 1273              		.cfi_def_cfa_offset 8
 1274              		.cfi_offset 7, -8
ARM GAS  /tmp/ccVQttFk.s 			page 37


 1275              		.cfi_offset 14, -4
 1276 0002 84B0     		sub	sp, sp, #16
 1277              	.LCFI100:
 1278              		.cfi_def_cfa_offset 24
 1279 0004 00AF     		add	r7, sp, #0
 1280              	.LCFI101:
 1281              		.cfi_def_cfa_register 7
 1282 0006 7860     		str	r0, [r7, #4]
 711:Middlewares/Third_Party/FreeRTOS/Source/CMSIS_RTOS/cmsis_os.c ****   osStatus result = osOK;
 1283              		.loc 1 711 0
 1284 0008 0023     		movs	r3, #0
 1285 000a FB60     		str	r3, [r7, #12]
 712:Middlewares/Third_Party/FreeRTOS/Source/CMSIS_RTOS/cmsis_os.c ****   portBASE_TYPE taskWoken = pdFALSE;
 1286              		.loc 1 712 0
 1287 000c 0023     		movs	r3, #0
 1288 000e BB60     		str	r3, [r7, #8]
 713:Middlewares/Third_Party/FreeRTOS/Source/CMSIS_RTOS/cmsis_os.c ****   
 714:Middlewares/Third_Party/FreeRTOS/Source/CMSIS_RTOS/cmsis_os.c ****   if (inHandlerMode()) {
 1289              		.loc 1 714 0
 1290 0010 FFF7FEFF 		bl	inHandlerMode
 1291 0014 0346     		mov	r3, r0
 1292 0016 002B     		cmp	r3, #0
 1293 0018 16D0     		beq	.L81
 715:Middlewares/Third_Party/FreeRTOS/Source/CMSIS_RTOS/cmsis_os.c ****     if (xSemaphoreGiveFromISR(mutex_id, &taskWoken) != pdTRUE) {
 1294              		.loc 1 715 0
 1295 001a 07F10803 		add	r3, r7, #8
 1296 001e 7868     		ldr	r0, [r7, #4]
 1297 0020 1946     		mov	r1, r3
 1298 0022 FFF7FEFF 		bl	xQueueGiveFromISR
 1299 0026 0346     		mov	r3, r0
 1300 0028 012B     		cmp	r3, #1
 1301 002a 01D0     		beq	.L82
 716:Middlewares/Third_Party/FreeRTOS/Source/CMSIS_RTOS/cmsis_os.c ****       return osErrorOS;
 1302              		.loc 1 716 0
 1303 002c FF23     		movs	r3, #255
 1304 002e 17E0     		b	.L86
 1305              	.L82:
 717:Middlewares/Third_Party/FreeRTOS/Source/CMSIS_RTOS/cmsis_os.c ****     }
 718:Middlewares/Third_Party/FreeRTOS/Source/CMSIS_RTOS/cmsis_os.c ****     portEND_SWITCHING_ISR(taskWoken);
 1306              		.loc 1 718 0
 1307 0030 BB68     		ldr	r3, [r7, #8]
 1308 0032 002B     		cmp	r3, #0
 1309 0034 13D0     		beq	.L85
 1310              		.loc 1 718 0 is_stmt 0 discriminator 1
 1311 0036 0C4B     		ldr	r3, .L87
 1312 0038 4FF08052 		mov	r2, #268435456
 1313 003c 1A60     		str	r2, [r3]
 1314              	@ 718 "Middlewares/Third_Party/FreeRTOS/Source/CMSIS_RTOS/cmsis_os.c" 1
 1315 003e BFF34F8F 		dsb
 1316              	@ 0 "" 2
 1317              	@ 718 "Middlewares/Third_Party/FreeRTOS/Source/CMSIS_RTOS/cmsis_os.c" 1
 1318 0042 BFF36F8F 		isb
 1319              	@ 0 "" 2
 1320              		.thumb
 1321 0046 0AE0     		b	.L85
 1322              	.L81:
 719:Middlewares/Third_Party/FreeRTOS/Source/CMSIS_RTOS/cmsis_os.c ****   }
ARM GAS  /tmp/ccVQttFk.s 			page 38


 720:Middlewares/Third_Party/FreeRTOS/Source/CMSIS_RTOS/cmsis_os.c ****   else if (xSemaphoreGive(mutex_id) != pdTRUE) 
 1323              		.loc 1 720 0 is_stmt 1
 1324 0048 7868     		ldr	r0, [r7, #4]
 1325 004a 0021     		movs	r1, #0
 1326 004c 0022     		movs	r2, #0
 1327 004e 0023     		movs	r3, #0
 1328 0050 FFF7FEFF 		bl	xQueueGenericSend
 1329 0054 0346     		mov	r3, r0
 1330 0056 012B     		cmp	r3, #1
 1331 0058 01D0     		beq	.L85
 721:Middlewares/Third_Party/FreeRTOS/Source/CMSIS_RTOS/cmsis_os.c ****   {
 722:Middlewares/Third_Party/FreeRTOS/Source/CMSIS_RTOS/cmsis_os.c ****     result = osErrorOS;
 1332              		.loc 1 722 0
 1333 005a FF23     		movs	r3, #255
 1334 005c FB60     		str	r3, [r7, #12]
 1335              	.L85:
 723:Middlewares/Third_Party/FreeRTOS/Source/CMSIS_RTOS/cmsis_os.c ****   }
 724:Middlewares/Third_Party/FreeRTOS/Source/CMSIS_RTOS/cmsis_os.c ****   return result;
 1336              		.loc 1 724 0
 1337 005e FB68     		ldr	r3, [r7, #12]
 1338              	.L86:
 725:Middlewares/Third_Party/FreeRTOS/Source/CMSIS_RTOS/cmsis_os.c **** }
 1339              		.loc 1 725 0 discriminator 1
 1340 0060 1846     		mov	r0, r3
 1341 0062 1037     		adds	r7, r7, #16
 1342              	.LCFI102:
 1343              		.cfi_def_cfa_offset 8
 1344 0064 BD46     		mov	sp, r7
 1345              	.LCFI103:
 1346              		.cfi_def_cfa_register 13
 1347              		@ sp needed
 1348 0066 80BD     		pop	{r7, pc}
 1349              	.L88:
 1350              		.align	2
 1351              	.L87:
 1352 0068 04ED00E0 		.word	-536810236
 1353              		.cfi_endproc
 1354              	.LFE51:
 1356              		.section	.text.osMutexDelete,"ax",%progbits
 1357              		.align	2
 1358              		.global	osMutexDelete
 1359              		.thumb
 1360              		.thumb_func
 1362              	osMutexDelete:
 1363              	.LFB52:
 726:Middlewares/Third_Party/FreeRTOS/Source/CMSIS_RTOS/cmsis_os.c **** 
 727:Middlewares/Third_Party/FreeRTOS/Source/CMSIS_RTOS/cmsis_os.c **** /**
 728:Middlewares/Third_Party/FreeRTOS/Source/CMSIS_RTOS/cmsis_os.c **** * @brief Delete a Mutex
 729:Middlewares/Third_Party/FreeRTOS/Source/CMSIS_RTOS/cmsis_os.c **** * @param mutex_id  mutex ID obtained by \ref osMutexCreate.
 730:Middlewares/Third_Party/FreeRTOS/Source/CMSIS_RTOS/cmsis_os.c **** * @retval  status code that indicates the execution status of the function.
 731:Middlewares/Third_Party/FreeRTOS/Source/CMSIS_RTOS/cmsis_os.c **** * @note   MUST REMAIN UNCHANGED: \b osMutexDelete shall be consistent in every CMSIS-RTOS.
 732:Middlewares/Third_Party/FreeRTOS/Source/CMSIS_RTOS/cmsis_os.c **** */
 733:Middlewares/Third_Party/FreeRTOS/Source/CMSIS_RTOS/cmsis_os.c **** osStatus osMutexDelete (osMutexId mutex_id)
 734:Middlewares/Third_Party/FreeRTOS/Source/CMSIS_RTOS/cmsis_os.c **** {
 1364              		.loc 1 734 0
 1365              		.cfi_startproc
 1366              		@ args = 0, pretend = 0, frame = 8
ARM GAS  /tmp/ccVQttFk.s 			page 39


 1367              		@ frame_needed = 1, uses_anonymous_args = 0
 1368 0000 80B5     		push	{r7, lr}
 1369              	.LCFI104:
 1370              		.cfi_def_cfa_offset 8
 1371              		.cfi_offset 7, -8
 1372              		.cfi_offset 14, -4
 1373 0002 82B0     		sub	sp, sp, #8
 1374              	.LCFI105:
 1375              		.cfi_def_cfa_offset 16
 1376 0004 00AF     		add	r7, sp, #0
 1377              	.LCFI106:
 1378              		.cfi_def_cfa_register 7
 1379 0006 7860     		str	r0, [r7, #4]
 735:Middlewares/Third_Party/FreeRTOS/Source/CMSIS_RTOS/cmsis_os.c ****   if (inHandlerMode()) {
 1380              		.loc 1 735 0
 1381 0008 FFF7FEFF 		bl	inHandlerMode
 1382 000c 0346     		mov	r3, r0
 1383 000e 002B     		cmp	r3, #0
 1384 0010 01D0     		beq	.L90
 736:Middlewares/Third_Party/FreeRTOS/Source/CMSIS_RTOS/cmsis_os.c ****     return osErrorISR;
 1385              		.loc 1 736 0
 1386 0012 8223     		movs	r3, #130
 1387 0014 03E0     		b	.L91
 1388              	.L90:
 737:Middlewares/Third_Party/FreeRTOS/Source/CMSIS_RTOS/cmsis_os.c ****   }
 738:Middlewares/Third_Party/FreeRTOS/Source/CMSIS_RTOS/cmsis_os.c **** 
 739:Middlewares/Third_Party/FreeRTOS/Source/CMSIS_RTOS/cmsis_os.c ****   vQueueDelete(mutex_id);
 1389              		.loc 1 739 0
 1390 0016 7868     		ldr	r0, [r7, #4]
 1391 0018 FFF7FEFF 		bl	vQueueDelete
 740:Middlewares/Third_Party/FreeRTOS/Source/CMSIS_RTOS/cmsis_os.c **** 
 741:Middlewares/Third_Party/FreeRTOS/Source/CMSIS_RTOS/cmsis_os.c ****   return osOK;
 1392              		.loc 1 741 0
 1393 001c 0023     		movs	r3, #0
 1394              	.L91:
 742:Middlewares/Third_Party/FreeRTOS/Source/CMSIS_RTOS/cmsis_os.c **** }
 1395              		.loc 1 742 0
 1396 001e 1846     		mov	r0, r3
 1397 0020 0837     		adds	r7, r7, #8
 1398              	.LCFI107:
 1399              		.cfi_def_cfa_offset 8
 1400 0022 BD46     		mov	sp, r7
 1401              	.LCFI108:
 1402              		.cfi_def_cfa_register 13
 1403              		@ sp needed
 1404 0024 80BD     		pop	{r7, pc}
 1405              		.cfi_endproc
 1406              	.LFE52:
 1408 0026 00BF     		.section	.text.osSemaphoreCreate,"ax",%progbits
 1409              		.align	2
 1410              		.global	osSemaphoreCreate
 1411              		.thumb
 1412              		.thumb_func
 1414              	osSemaphoreCreate:
 1415              	.LFB53:
 743:Middlewares/Third_Party/FreeRTOS/Source/CMSIS_RTOS/cmsis_os.c **** 
 744:Middlewares/Third_Party/FreeRTOS/Source/CMSIS_RTOS/cmsis_os.c **** /********************  Semaphore Management Functions **************************/
ARM GAS  /tmp/ccVQttFk.s 			page 40


 745:Middlewares/Third_Party/FreeRTOS/Source/CMSIS_RTOS/cmsis_os.c **** 
 746:Middlewares/Third_Party/FreeRTOS/Source/CMSIS_RTOS/cmsis_os.c **** #if (defined (osFeature_Semaphore)  &&  (osFeature_Semaphore != 0))
 747:Middlewares/Third_Party/FreeRTOS/Source/CMSIS_RTOS/cmsis_os.c **** 
 748:Middlewares/Third_Party/FreeRTOS/Source/CMSIS_RTOS/cmsis_os.c **** /**
 749:Middlewares/Third_Party/FreeRTOS/Source/CMSIS_RTOS/cmsis_os.c **** * @brief Create and Initialize a Semaphore object used for managing resources
 750:Middlewares/Third_Party/FreeRTOS/Source/CMSIS_RTOS/cmsis_os.c **** * @param semaphore_def semaphore definition referenced with \ref osSemaphore.
 751:Middlewares/Third_Party/FreeRTOS/Source/CMSIS_RTOS/cmsis_os.c **** * @param count         number of available resources.
 752:Middlewares/Third_Party/FreeRTOS/Source/CMSIS_RTOS/cmsis_os.c **** * @retval  semaphore ID for reference by other functions or NULL in case of error.
 753:Middlewares/Third_Party/FreeRTOS/Source/CMSIS_RTOS/cmsis_os.c **** * @note   MUST REMAIN UNCHANGED: \b osSemaphoreCreate shall be consistent in every CMSIS-RTOS.
 754:Middlewares/Third_Party/FreeRTOS/Source/CMSIS_RTOS/cmsis_os.c **** */
 755:Middlewares/Third_Party/FreeRTOS/Source/CMSIS_RTOS/cmsis_os.c **** osSemaphoreId osSemaphoreCreate (const osSemaphoreDef_t *semaphore_def, int32_t count)
 756:Middlewares/Third_Party/FreeRTOS/Source/CMSIS_RTOS/cmsis_os.c **** { 
 1416              		.loc 1 756 0
 1417              		.cfi_startproc
 1418              		@ args = 0, pretend = 0, frame = 16
 1419              		@ frame_needed = 1, uses_anonymous_args = 0
 1420 0000 80B5     		push	{r7, lr}
 1421              	.LCFI109:
 1422              		.cfi_def_cfa_offset 8
 1423              		.cfi_offset 7, -8
 1424              		.cfi_offset 14, -4
 1425 0002 84B0     		sub	sp, sp, #16
 1426              	.LCFI110:
 1427              		.cfi_def_cfa_offset 24
 1428 0004 00AF     		add	r7, sp, #0
 1429              	.LCFI111:
 1430              		.cfi_def_cfa_register 7
 1431 0006 7860     		str	r0, [r7, #4]
 1432 0008 3960     		str	r1, [r7]
 757:Middlewares/Third_Party/FreeRTOS/Source/CMSIS_RTOS/cmsis_os.c **** #if( configSUPPORT_STATIC_ALLOCATION == 1 ) && ( configSUPPORT_DYNAMIC_ALLOCATION == 1 )
 758:Middlewares/Third_Party/FreeRTOS/Source/CMSIS_RTOS/cmsis_os.c **** 
 759:Middlewares/Third_Party/FreeRTOS/Source/CMSIS_RTOS/cmsis_os.c ****   osSemaphoreId sema;
 760:Middlewares/Third_Party/FreeRTOS/Source/CMSIS_RTOS/cmsis_os.c ****   
 761:Middlewares/Third_Party/FreeRTOS/Source/CMSIS_RTOS/cmsis_os.c ****   if (semaphore_def->controlblock != NULL){
 762:Middlewares/Third_Party/FreeRTOS/Source/CMSIS_RTOS/cmsis_os.c ****     if (count == 1) {
 763:Middlewares/Third_Party/FreeRTOS/Source/CMSIS_RTOS/cmsis_os.c ****       return xSemaphoreCreateBinaryStatic( semaphore_def->controlblock );
 764:Middlewares/Third_Party/FreeRTOS/Source/CMSIS_RTOS/cmsis_os.c ****     }
 765:Middlewares/Third_Party/FreeRTOS/Source/CMSIS_RTOS/cmsis_os.c ****     else {
 766:Middlewares/Third_Party/FreeRTOS/Source/CMSIS_RTOS/cmsis_os.c **** #if (configUSE_COUNTING_SEMAPHORES == 1 )
 767:Middlewares/Third_Party/FreeRTOS/Source/CMSIS_RTOS/cmsis_os.c ****       return xSemaphoreCreateCountingStatic( count, count, semaphore_def->controlblock );
 768:Middlewares/Third_Party/FreeRTOS/Source/CMSIS_RTOS/cmsis_os.c **** #else
 769:Middlewares/Third_Party/FreeRTOS/Source/CMSIS_RTOS/cmsis_os.c ****       return NULL;
 770:Middlewares/Third_Party/FreeRTOS/Source/CMSIS_RTOS/cmsis_os.c **** #endif
 771:Middlewares/Third_Party/FreeRTOS/Source/CMSIS_RTOS/cmsis_os.c ****     }
 772:Middlewares/Third_Party/FreeRTOS/Source/CMSIS_RTOS/cmsis_os.c ****   }
 773:Middlewares/Third_Party/FreeRTOS/Source/CMSIS_RTOS/cmsis_os.c ****   else {
 774:Middlewares/Third_Party/FreeRTOS/Source/CMSIS_RTOS/cmsis_os.c ****     if (count == 1) {
 775:Middlewares/Third_Party/FreeRTOS/Source/CMSIS_RTOS/cmsis_os.c ****       vSemaphoreCreateBinary(sema);
 776:Middlewares/Third_Party/FreeRTOS/Source/CMSIS_RTOS/cmsis_os.c ****       return sema;
 777:Middlewares/Third_Party/FreeRTOS/Source/CMSIS_RTOS/cmsis_os.c ****     }
 778:Middlewares/Third_Party/FreeRTOS/Source/CMSIS_RTOS/cmsis_os.c ****     else {
 779:Middlewares/Third_Party/FreeRTOS/Source/CMSIS_RTOS/cmsis_os.c **** #if (configUSE_COUNTING_SEMAPHORES == 1 )	
 780:Middlewares/Third_Party/FreeRTOS/Source/CMSIS_RTOS/cmsis_os.c ****       return xSemaphoreCreateCounting(count, count);
 781:Middlewares/Third_Party/FreeRTOS/Source/CMSIS_RTOS/cmsis_os.c **** #else
 782:Middlewares/Third_Party/FreeRTOS/Source/CMSIS_RTOS/cmsis_os.c ****       return NULL;
 783:Middlewares/Third_Party/FreeRTOS/Source/CMSIS_RTOS/cmsis_os.c **** #endif    
 784:Middlewares/Third_Party/FreeRTOS/Source/CMSIS_RTOS/cmsis_os.c ****     }
ARM GAS  /tmp/ccVQttFk.s 			page 41


 785:Middlewares/Third_Party/FreeRTOS/Source/CMSIS_RTOS/cmsis_os.c ****   }
 786:Middlewares/Third_Party/FreeRTOS/Source/CMSIS_RTOS/cmsis_os.c **** #elif ( configSUPPORT_STATIC_ALLOCATION == 1 ) // configSUPPORT_DYNAMIC_ALLOCATION == 0
 787:Middlewares/Third_Party/FreeRTOS/Source/CMSIS_RTOS/cmsis_os.c ****   if(count == 1) {
 788:Middlewares/Third_Party/FreeRTOS/Source/CMSIS_RTOS/cmsis_os.c ****     return xSemaphoreCreateBinaryStatic( semaphore_def->controlblock );
 789:Middlewares/Third_Party/FreeRTOS/Source/CMSIS_RTOS/cmsis_os.c ****   }
 790:Middlewares/Third_Party/FreeRTOS/Source/CMSIS_RTOS/cmsis_os.c ****   else
 791:Middlewares/Third_Party/FreeRTOS/Source/CMSIS_RTOS/cmsis_os.c ****   {
 792:Middlewares/Third_Party/FreeRTOS/Source/CMSIS_RTOS/cmsis_os.c **** #if (configUSE_COUNTING_SEMAPHORES == 1 )
 793:Middlewares/Third_Party/FreeRTOS/Source/CMSIS_RTOS/cmsis_os.c ****       return xSemaphoreCreateCountingStatic( count, count, semaphore_def->controlblock );
 794:Middlewares/Third_Party/FreeRTOS/Source/CMSIS_RTOS/cmsis_os.c **** #else
 795:Middlewares/Third_Party/FreeRTOS/Source/CMSIS_RTOS/cmsis_os.c ****       return NULL;
 796:Middlewares/Third_Party/FreeRTOS/Source/CMSIS_RTOS/cmsis_os.c **** #endif    
 797:Middlewares/Third_Party/FreeRTOS/Source/CMSIS_RTOS/cmsis_os.c ****   }
 798:Middlewares/Third_Party/FreeRTOS/Source/CMSIS_RTOS/cmsis_os.c **** #else  // configSUPPORT_STATIC_ALLOCATION == 0  && configSUPPORT_DYNAMIC_ALLOCATION == 1
 799:Middlewares/Third_Party/FreeRTOS/Source/CMSIS_RTOS/cmsis_os.c ****   osSemaphoreId sema;
 800:Middlewares/Third_Party/FreeRTOS/Source/CMSIS_RTOS/cmsis_os.c ****  
 801:Middlewares/Third_Party/FreeRTOS/Source/CMSIS_RTOS/cmsis_os.c ****   if (count == 1) {
 1433              		.loc 1 801 0
 1434 000a 3B68     		ldr	r3, [r7]
 1435 000c 012B     		cmp	r3, #1
 1436 000e 10D1     		bne	.L93
 802:Middlewares/Third_Party/FreeRTOS/Source/CMSIS_RTOS/cmsis_os.c ****     vSemaphoreCreateBinary(sema);
 1437              		.loc 1 802 0
 1438 0010 0120     		movs	r0, #1
 1439 0012 0021     		movs	r1, #0
 1440 0014 0322     		movs	r2, #3
 1441 0016 FFF7FEFF 		bl	xQueueGenericCreate
 1442 001a F860     		str	r0, [r7, #12]
 1443 001c FB68     		ldr	r3, [r7, #12]
 1444 001e 002B     		cmp	r3, #0
 1445 0020 05D0     		beq	.L94
 1446              		.loc 1 802 0 is_stmt 0 discriminator 1
 1447 0022 F868     		ldr	r0, [r7, #12]
 1448 0024 0021     		movs	r1, #0
 1449 0026 0022     		movs	r2, #0
 1450 0028 0023     		movs	r3, #0
 1451 002a FFF7FEFF 		bl	xQueueGenericSend
 1452              	.L94:
 803:Middlewares/Third_Party/FreeRTOS/Source/CMSIS_RTOS/cmsis_os.c ****     return sema;
 1453              		.loc 1 803 0 is_stmt 1
 1454 002e FB68     		ldr	r3, [r7, #12]
 1455 0030 00E0     		b	.L95
 1456              	.L93:
 804:Middlewares/Third_Party/FreeRTOS/Source/CMSIS_RTOS/cmsis_os.c ****   }
 805:Middlewares/Third_Party/FreeRTOS/Source/CMSIS_RTOS/cmsis_os.c ****   else {
 806:Middlewares/Third_Party/FreeRTOS/Source/CMSIS_RTOS/cmsis_os.c **** #if (configUSE_COUNTING_SEMAPHORES == 1 )	
 807:Middlewares/Third_Party/FreeRTOS/Source/CMSIS_RTOS/cmsis_os.c ****     return xSemaphoreCreateCounting(count, count);
 808:Middlewares/Third_Party/FreeRTOS/Source/CMSIS_RTOS/cmsis_os.c **** #else
 809:Middlewares/Third_Party/FreeRTOS/Source/CMSIS_RTOS/cmsis_os.c ****     return NULL;
 1457              		.loc 1 809 0
 1458 0032 0023     		movs	r3, #0
 1459              	.L95:
 810:Middlewares/Third_Party/FreeRTOS/Source/CMSIS_RTOS/cmsis_os.c **** #endif
 811:Middlewares/Third_Party/FreeRTOS/Source/CMSIS_RTOS/cmsis_os.c ****   }
 812:Middlewares/Third_Party/FreeRTOS/Source/CMSIS_RTOS/cmsis_os.c **** #endif
 813:Middlewares/Third_Party/FreeRTOS/Source/CMSIS_RTOS/cmsis_os.c **** }
 1460              		.loc 1 813 0
ARM GAS  /tmp/ccVQttFk.s 			page 42


 1461 0034 1846     		mov	r0, r3
 1462 0036 1037     		adds	r7, r7, #16
 1463              	.LCFI112:
 1464              		.cfi_def_cfa_offset 8
 1465 0038 BD46     		mov	sp, r7
 1466              	.LCFI113:
 1467              		.cfi_def_cfa_register 13
 1468              		@ sp needed
 1469 003a 80BD     		pop	{r7, pc}
 1470              		.cfi_endproc
 1471              	.LFE53:
 1473              		.section	.text.osSemaphoreWait,"ax",%progbits
 1474              		.align	2
 1475              		.global	osSemaphoreWait
 1476              		.thumb
 1477              		.thumb_func
 1479              	osSemaphoreWait:
 1480              	.LFB54:
 814:Middlewares/Third_Party/FreeRTOS/Source/CMSIS_RTOS/cmsis_os.c **** 
 815:Middlewares/Third_Party/FreeRTOS/Source/CMSIS_RTOS/cmsis_os.c **** /**
 816:Middlewares/Third_Party/FreeRTOS/Source/CMSIS_RTOS/cmsis_os.c **** * @brief Wait until a Semaphore token becomes available
 817:Middlewares/Third_Party/FreeRTOS/Source/CMSIS_RTOS/cmsis_os.c **** * @param  semaphore_id  semaphore object referenced with \ref osSemaphore.
 818:Middlewares/Third_Party/FreeRTOS/Source/CMSIS_RTOS/cmsis_os.c **** * @param  millisec      timeout value or 0 in case of no time-out.
 819:Middlewares/Third_Party/FreeRTOS/Source/CMSIS_RTOS/cmsis_os.c **** * @retval  number of available tokens, or -1 in case of incorrect parameters.
 820:Middlewares/Third_Party/FreeRTOS/Source/CMSIS_RTOS/cmsis_os.c **** * @note   MUST REMAIN UNCHANGED: \b osSemaphoreWait shall be consistent in every CMSIS-RTOS.
 821:Middlewares/Third_Party/FreeRTOS/Source/CMSIS_RTOS/cmsis_os.c **** */
 822:Middlewares/Third_Party/FreeRTOS/Source/CMSIS_RTOS/cmsis_os.c **** int32_t osSemaphoreWait (osSemaphoreId semaphore_id, uint32_t millisec)
 823:Middlewares/Third_Party/FreeRTOS/Source/CMSIS_RTOS/cmsis_os.c **** {
 1481              		.loc 1 823 0
 1482              		.cfi_startproc
 1483              		@ args = 0, pretend = 0, frame = 16
 1484              		@ frame_needed = 1, uses_anonymous_args = 0
 1485 0000 80B5     		push	{r7, lr}
 1486              	.LCFI114:
 1487              		.cfi_def_cfa_offset 8
 1488              		.cfi_offset 7, -8
 1489              		.cfi_offset 14, -4
 1490 0002 84B0     		sub	sp, sp, #16
 1491              	.LCFI115:
 1492              		.cfi_def_cfa_offset 24
 1493 0004 00AF     		add	r7, sp, #0
 1494              	.LCFI116:
 1495              		.cfi_def_cfa_register 7
 1496 0006 7860     		str	r0, [r7, #4]
 1497 0008 3960     		str	r1, [r7]
 824:Middlewares/Third_Party/FreeRTOS/Source/CMSIS_RTOS/cmsis_os.c ****   TickType_t ticks;
 825:Middlewares/Third_Party/FreeRTOS/Source/CMSIS_RTOS/cmsis_os.c ****   portBASE_TYPE taskWoken = pdFALSE;  
 1498              		.loc 1 825 0
 1499 000a 0023     		movs	r3, #0
 1500 000c BB60     		str	r3, [r7, #8]
 826:Middlewares/Third_Party/FreeRTOS/Source/CMSIS_RTOS/cmsis_os.c ****   
 827:Middlewares/Third_Party/FreeRTOS/Source/CMSIS_RTOS/cmsis_os.c ****   
 828:Middlewares/Third_Party/FreeRTOS/Source/CMSIS_RTOS/cmsis_os.c ****   if (semaphore_id == NULL) {
 1501              		.loc 1 828 0
 1502 000e 7B68     		ldr	r3, [r7, #4]
 1503 0010 002B     		cmp	r3, #0
 1504 0012 01D1     		bne	.L97
ARM GAS  /tmp/ccVQttFk.s 			page 43


 829:Middlewares/Third_Party/FreeRTOS/Source/CMSIS_RTOS/cmsis_os.c ****     return osErrorParameter;
 1505              		.loc 1 829 0
 1506 0014 8023     		movs	r3, #128
 1507 0016 3CE0     		b	.L105
 1508              	.L97:
 830:Middlewares/Third_Party/FreeRTOS/Source/CMSIS_RTOS/cmsis_os.c ****   }
 831:Middlewares/Third_Party/FreeRTOS/Source/CMSIS_RTOS/cmsis_os.c ****   
 832:Middlewares/Third_Party/FreeRTOS/Source/CMSIS_RTOS/cmsis_os.c ****   ticks = 0;
 1509              		.loc 1 832 0
 1510 0018 0023     		movs	r3, #0
 1511 001a FB60     		str	r3, [r7, #12]
 833:Middlewares/Third_Party/FreeRTOS/Source/CMSIS_RTOS/cmsis_os.c ****   if (millisec == osWaitForever) {
 1512              		.loc 1 833 0
 1513 001c 3B68     		ldr	r3, [r7]
 1514 001e B3F1FF3F 		cmp	r3, #-1
 1515 0022 03D1     		bne	.L99
 834:Middlewares/Third_Party/FreeRTOS/Source/CMSIS_RTOS/cmsis_os.c ****     ticks = portMAX_DELAY;
 1516              		.loc 1 834 0
 1517 0024 4FF0FF33 		mov	r3, #-1
 1518 0028 FB60     		str	r3, [r7, #12]
 1519 002a 09E0     		b	.L100
 1520              	.L99:
 835:Middlewares/Third_Party/FreeRTOS/Source/CMSIS_RTOS/cmsis_os.c ****   }
 836:Middlewares/Third_Party/FreeRTOS/Source/CMSIS_RTOS/cmsis_os.c ****   else if (millisec != 0) {
 1521              		.loc 1 836 0
 1522 002c 3B68     		ldr	r3, [r7]
 1523 002e 002B     		cmp	r3, #0
 1524 0030 06D0     		beq	.L100
 837:Middlewares/Third_Party/FreeRTOS/Source/CMSIS_RTOS/cmsis_os.c ****     ticks = millisec / portTICK_PERIOD_MS;
 1525              		.loc 1 837 0
 1526 0032 3B68     		ldr	r3, [r7]
 1527 0034 FB60     		str	r3, [r7, #12]
 838:Middlewares/Third_Party/FreeRTOS/Source/CMSIS_RTOS/cmsis_os.c ****     if (ticks == 0) {
 1528              		.loc 1 838 0
 1529 0036 FB68     		ldr	r3, [r7, #12]
 1530 0038 002B     		cmp	r3, #0
 1531 003a 01D1     		bne	.L100
 839:Middlewares/Third_Party/FreeRTOS/Source/CMSIS_RTOS/cmsis_os.c ****       ticks = 1;
 1532              		.loc 1 839 0
 1533 003c 0123     		movs	r3, #1
 1534 003e FB60     		str	r3, [r7, #12]
 1535              	.L100:
 840:Middlewares/Third_Party/FreeRTOS/Source/CMSIS_RTOS/cmsis_os.c ****     }
 841:Middlewares/Third_Party/FreeRTOS/Source/CMSIS_RTOS/cmsis_os.c ****   }
 842:Middlewares/Third_Party/FreeRTOS/Source/CMSIS_RTOS/cmsis_os.c ****   
 843:Middlewares/Third_Party/FreeRTOS/Source/CMSIS_RTOS/cmsis_os.c ****   if (inHandlerMode()) {
 1536              		.loc 1 843 0
 1537 0040 FFF7FEFF 		bl	inHandlerMode
 1538 0044 0346     		mov	r3, r0
 1539 0046 002B     		cmp	r3, #0
 1540 0048 17D0     		beq	.L101
 844:Middlewares/Third_Party/FreeRTOS/Source/CMSIS_RTOS/cmsis_os.c ****     if (xSemaphoreTakeFromISR(semaphore_id, &taskWoken) != pdTRUE) {
 1541              		.loc 1 844 0
 1542 004a 07F10803 		add	r3, r7, #8
 1543 004e 7868     		ldr	r0, [r7, #4]
 1544 0050 0021     		movs	r1, #0
 1545 0052 1A46     		mov	r2, r3
ARM GAS  /tmp/ccVQttFk.s 			page 44


 1546 0054 FFF7FEFF 		bl	xQueueReceiveFromISR
 1547 0058 0346     		mov	r3, r0
 1548 005a 012B     		cmp	r3, #1
 1549 005c 01D0     		beq	.L102
 845:Middlewares/Third_Party/FreeRTOS/Source/CMSIS_RTOS/cmsis_os.c ****       return osErrorOS;
 1550              		.loc 1 845 0
 1551 005e FF23     		movs	r3, #255
 1552 0060 17E0     		b	.L105
 1553              	.L102:
 846:Middlewares/Third_Party/FreeRTOS/Source/CMSIS_RTOS/cmsis_os.c ****     }
 847:Middlewares/Third_Party/FreeRTOS/Source/CMSIS_RTOS/cmsis_os.c **** 	portEND_SWITCHING_ISR(taskWoken);
 1554              		.loc 1 847 0
 1555 0062 BB68     		ldr	r3, [r7, #8]
 1556 0064 002B     		cmp	r3, #0
 1557 0066 13D0     		beq	.L104
 1558              		.loc 1 847 0 is_stmt 0 discriminator 1
 1559 0068 0C4B     		ldr	r3, .L106
 1560 006a 4FF08052 		mov	r2, #268435456
 1561 006e 1A60     		str	r2, [r3]
 1562              	@ 847 "Middlewares/Third_Party/FreeRTOS/Source/CMSIS_RTOS/cmsis_os.c" 1
 1563 0070 BFF34F8F 		dsb
 1564              	@ 0 "" 2
 1565              	@ 847 "Middlewares/Third_Party/FreeRTOS/Source/CMSIS_RTOS/cmsis_os.c" 1
 1566 0074 BFF36F8F 		isb
 1567              	@ 0 "" 2
 1568              		.thumb
 1569 0078 0AE0     		b	.L104
 1570              	.L101:
 848:Middlewares/Third_Party/FreeRTOS/Source/CMSIS_RTOS/cmsis_os.c ****   }  
 849:Middlewares/Third_Party/FreeRTOS/Source/CMSIS_RTOS/cmsis_os.c ****   else if (xSemaphoreTake(semaphore_id, ticks) != pdTRUE) {
 1571              		.loc 1 849 0 is_stmt 1
 1572 007a 7868     		ldr	r0, [r7, #4]
 1573 007c 0021     		movs	r1, #0
 1574 007e FA68     		ldr	r2, [r7, #12]
 1575 0080 0023     		movs	r3, #0
 1576 0082 FFF7FEFF 		bl	xQueueGenericReceive
 1577 0086 0346     		mov	r3, r0
 1578 0088 012B     		cmp	r3, #1
 1579 008a 01D0     		beq	.L104
 850:Middlewares/Third_Party/FreeRTOS/Source/CMSIS_RTOS/cmsis_os.c ****     return osErrorOS;
 1580              		.loc 1 850 0
 1581 008c FF23     		movs	r3, #255
 1582 008e 00E0     		b	.L105
 1583              	.L104:
 851:Middlewares/Third_Party/FreeRTOS/Source/CMSIS_RTOS/cmsis_os.c ****   }
 852:Middlewares/Third_Party/FreeRTOS/Source/CMSIS_RTOS/cmsis_os.c ****   
 853:Middlewares/Third_Party/FreeRTOS/Source/CMSIS_RTOS/cmsis_os.c ****   return osOK;
 1584              		.loc 1 853 0
 1585 0090 0023     		movs	r3, #0
 1586              	.L105:
 854:Middlewares/Third_Party/FreeRTOS/Source/CMSIS_RTOS/cmsis_os.c **** }
 1587              		.loc 1 854 0 discriminator 1
 1588 0092 1846     		mov	r0, r3
 1589 0094 1037     		adds	r7, r7, #16
 1590              	.LCFI117:
 1591              		.cfi_def_cfa_offset 8
 1592 0096 BD46     		mov	sp, r7
ARM GAS  /tmp/ccVQttFk.s 			page 45


 1593              	.LCFI118:
 1594              		.cfi_def_cfa_register 13
 1595              		@ sp needed
 1596 0098 80BD     		pop	{r7, pc}
 1597              	.L107:
 1598 009a 00BF     		.align	2
 1599              	.L106:
 1600 009c 04ED00E0 		.word	-536810236
 1601              		.cfi_endproc
 1602              	.LFE54:
 1604              		.section	.text.osSemaphoreRelease,"ax",%progbits
 1605              		.align	2
 1606              		.global	osSemaphoreRelease
 1607              		.thumb
 1608              		.thumb_func
 1610              	osSemaphoreRelease:
 1611              	.LFB55:
 855:Middlewares/Third_Party/FreeRTOS/Source/CMSIS_RTOS/cmsis_os.c **** 
 856:Middlewares/Third_Party/FreeRTOS/Source/CMSIS_RTOS/cmsis_os.c **** /**
 857:Middlewares/Third_Party/FreeRTOS/Source/CMSIS_RTOS/cmsis_os.c **** * @brief Release a Semaphore token
 858:Middlewares/Third_Party/FreeRTOS/Source/CMSIS_RTOS/cmsis_os.c **** * @param  semaphore_id  semaphore object referenced with \ref osSemaphore.
 859:Middlewares/Third_Party/FreeRTOS/Source/CMSIS_RTOS/cmsis_os.c **** * @retval  status code that indicates the execution status of the function.
 860:Middlewares/Third_Party/FreeRTOS/Source/CMSIS_RTOS/cmsis_os.c **** * @note   MUST REMAIN UNCHANGED: \b osSemaphoreRelease shall be consistent in every CMSIS-RTOS.
 861:Middlewares/Third_Party/FreeRTOS/Source/CMSIS_RTOS/cmsis_os.c **** */
 862:Middlewares/Third_Party/FreeRTOS/Source/CMSIS_RTOS/cmsis_os.c **** osStatus osSemaphoreRelease (osSemaphoreId semaphore_id)
 863:Middlewares/Third_Party/FreeRTOS/Source/CMSIS_RTOS/cmsis_os.c **** {
 1612              		.loc 1 863 0
 1613              		.cfi_startproc
 1614              		@ args = 0, pretend = 0, frame = 16
 1615              		@ frame_needed = 1, uses_anonymous_args = 0
 1616 0000 80B5     		push	{r7, lr}
 1617              	.LCFI119:
 1618              		.cfi_def_cfa_offset 8
 1619              		.cfi_offset 7, -8
 1620              		.cfi_offset 14, -4
 1621 0002 84B0     		sub	sp, sp, #16
 1622              	.LCFI120:
 1623              		.cfi_def_cfa_offset 24
 1624 0004 00AF     		add	r7, sp, #0
 1625              	.LCFI121:
 1626              		.cfi_def_cfa_register 7
 1627 0006 7860     		str	r0, [r7, #4]
 864:Middlewares/Third_Party/FreeRTOS/Source/CMSIS_RTOS/cmsis_os.c ****   osStatus result = osOK;
 1628              		.loc 1 864 0
 1629 0008 0023     		movs	r3, #0
 1630 000a FB60     		str	r3, [r7, #12]
 865:Middlewares/Third_Party/FreeRTOS/Source/CMSIS_RTOS/cmsis_os.c ****   portBASE_TYPE taskWoken = pdFALSE;
 1631              		.loc 1 865 0
 1632 000c 0023     		movs	r3, #0
 1633 000e BB60     		str	r3, [r7, #8]
 866:Middlewares/Third_Party/FreeRTOS/Source/CMSIS_RTOS/cmsis_os.c ****   
 867:Middlewares/Third_Party/FreeRTOS/Source/CMSIS_RTOS/cmsis_os.c ****   
 868:Middlewares/Third_Party/FreeRTOS/Source/CMSIS_RTOS/cmsis_os.c ****   if (inHandlerMode()) {
 1634              		.loc 1 868 0
 1635 0010 FFF7FEFF 		bl	inHandlerMode
 1636 0014 0346     		mov	r3, r0
 1637 0016 002B     		cmp	r3, #0
ARM GAS  /tmp/ccVQttFk.s 			page 46


 1638 0018 16D0     		beq	.L109
 869:Middlewares/Third_Party/FreeRTOS/Source/CMSIS_RTOS/cmsis_os.c ****     if (xSemaphoreGiveFromISR(semaphore_id, &taskWoken) != pdTRUE) {
 1639              		.loc 1 869 0
 1640 001a 07F10803 		add	r3, r7, #8
 1641 001e 7868     		ldr	r0, [r7, #4]
 1642 0020 1946     		mov	r1, r3
 1643 0022 FFF7FEFF 		bl	xQueueGiveFromISR
 1644 0026 0346     		mov	r3, r0
 1645 0028 012B     		cmp	r3, #1
 1646 002a 01D0     		beq	.L110
 870:Middlewares/Third_Party/FreeRTOS/Source/CMSIS_RTOS/cmsis_os.c ****       return osErrorOS;
 1647              		.loc 1 870 0
 1648 002c FF23     		movs	r3, #255
 1649 002e 17E0     		b	.L114
 1650              	.L110:
 871:Middlewares/Third_Party/FreeRTOS/Source/CMSIS_RTOS/cmsis_os.c ****     }
 872:Middlewares/Third_Party/FreeRTOS/Source/CMSIS_RTOS/cmsis_os.c ****     portEND_SWITCHING_ISR(taskWoken);
 1651              		.loc 1 872 0
 1652 0030 BB68     		ldr	r3, [r7, #8]
 1653 0032 002B     		cmp	r3, #0
 1654 0034 13D0     		beq	.L113
 1655              		.loc 1 872 0 is_stmt 0 discriminator 1
 1656 0036 0C4B     		ldr	r3, .L115
 1657 0038 4FF08052 		mov	r2, #268435456
 1658 003c 1A60     		str	r2, [r3]
 1659              	@ 872 "Middlewares/Third_Party/FreeRTOS/Source/CMSIS_RTOS/cmsis_os.c" 1
 1660 003e BFF34F8F 		dsb
 1661              	@ 0 "" 2
 1662              	@ 872 "Middlewares/Third_Party/FreeRTOS/Source/CMSIS_RTOS/cmsis_os.c" 1
 1663 0042 BFF36F8F 		isb
 1664              	@ 0 "" 2
 1665              		.thumb
 1666 0046 0AE0     		b	.L113
 1667              	.L109:
 873:Middlewares/Third_Party/FreeRTOS/Source/CMSIS_RTOS/cmsis_os.c ****   }
 874:Middlewares/Third_Party/FreeRTOS/Source/CMSIS_RTOS/cmsis_os.c ****   else {
 875:Middlewares/Third_Party/FreeRTOS/Source/CMSIS_RTOS/cmsis_os.c ****     if (xSemaphoreGive(semaphore_id) != pdTRUE) {
 1668              		.loc 1 875 0 is_stmt 1
 1669 0048 7868     		ldr	r0, [r7, #4]
 1670 004a 0021     		movs	r1, #0
 1671 004c 0022     		movs	r2, #0
 1672 004e 0023     		movs	r3, #0
 1673 0050 FFF7FEFF 		bl	xQueueGenericSend
 1674 0054 0346     		mov	r3, r0
 1675 0056 012B     		cmp	r3, #1
 1676 0058 01D0     		beq	.L113
 876:Middlewares/Third_Party/FreeRTOS/Source/CMSIS_RTOS/cmsis_os.c ****       result = osErrorOS;
 1677              		.loc 1 876 0
 1678 005a FF23     		movs	r3, #255
 1679 005c FB60     		str	r3, [r7, #12]
 1680              	.L113:
 877:Middlewares/Third_Party/FreeRTOS/Source/CMSIS_RTOS/cmsis_os.c ****     }
 878:Middlewares/Third_Party/FreeRTOS/Source/CMSIS_RTOS/cmsis_os.c ****   }
 879:Middlewares/Third_Party/FreeRTOS/Source/CMSIS_RTOS/cmsis_os.c ****   
 880:Middlewares/Third_Party/FreeRTOS/Source/CMSIS_RTOS/cmsis_os.c ****   return result;
 1681              		.loc 1 880 0
 1682 005e FB68     		ldr	r3, [r7, #12]
ARM GAS  /tmp/ccVQttFk.s 			page 47


 1683              	.L114:
 881:Middlewares/Third_Party/FreeRTOS/Source/CMSIS_RTOS/cmsis_os.c **** }
 1684              		.loc 1 881 0 discriminator 1
 1685 0060 1846     		mov	r0, r3
 1686 0062 1037     		adds	r7, r7, #16
 1687              	.LCFI122:
 1688              		.cfi_def_cfa_offset 8
 1689 0064 BD46     		mov	sp, r7
 1690              	.LCFI123:
 1691              		.cfi_def_cfa_register 13
 1692              		@ sp needed
 1693 0066 80BD     		pop	{r7, pc}
 1694              	.L116:
 1695              		.align	2
 1696              	.L115:
 1697 0068 04ED00E0 		.word	-536810236
 1698              		.cfi_endproc
 1699              	.LFE55:
 1701              		.section	.text.osSemaphoreDelete,"ax",%progbits
 1702              		.align	2
 1703              		.global	osSemaphoreDelete
 1704              		.thumb
 1705              		.thumb_func
 1707              	osSemaphoreDelete:
 1708              	.LFB56:
 882:Middlewares/Third_Party/FreeRTOS/Source/CMSIS_RTOS/cmsis_os.c **** 
 883:Middlewares/Third_Party/FreeRTOS/Source/CMSIS_RTOS/cmsis_os.c **** /**
 884:Middlewares/Third_Party/FreeRTOS/Source/CMSIS_RTOS/cmsis_os.c **** * @brief Delete a Semaphore
 885:Middlewares/Third_Party/FreeRTOS/Source/CMSIS_RTOS/cmsis_os.c **** * @param  semaphore_id  semaphore object referenced with \ref osSemaphore.
 886:Middlewares/Third_Party/FreeRTOS/Source/CMSIS_RTOS/cmsis_os.c **** * @retval  status code that indicates the execution status of the function.
 887:Middlewares/Third_Party/FreeRTOS/Source/CMSIS_RTOS/cmsis_os.c **** * @note   MUST REMAIN UNCHANGED: \b osSemaphoreDelete shall be consistent in every CMSIS-RTOS.
 888:Middlewares/Third_Party/FreeRTOS/Source/CMSIS_RTOS/cmsis_os.c **** */
 889:Middlewares/Third_Party/FreeRTOS/Source/CMSIS_RTOS/cmsis_os.c **** osStatus osSemaphoreDelete (osSemaphoreId semaphore_id)
 890:Middlewares/Third_Party/FreeRTOS/Source/CMSIS_RTOS/cmsis_os.c **** {
 1709              		.loc 1 890 0
 1710              		.cfi_startproc
 1711              		@ args = 0, pretend = 0, frame = 8
 1712              		@ frame_needed = 1, uses_anonymous_args = 0
 1713 0000 80B5     		push	{r7, lr}
 1714              	.LCFI124:
 1715              		.cfi_def_cfa_offset 8
 1716              		.cfi_offset 7, -8
 1717              		.cfi_offset 14, -4
 1718 0002 82B0     		sub	sp, sp, #8
 1719              	.LCFI125:
 1720              		.cfi_def_cfa_offset 16
 1721 0004 00AF     		add	r7, sp, #0
 1722              	.LCFI126:
 1723              		.cfi_def_cfa_register 7
 1724 0006 7860     		str	r0, [r7, #4]
 891:Middlewares/Third_Party/FreeRTOS/Source/CMSIS_RTOS/cmsis_os.c ****   if (inHandlerMode()) {
 1725              		.loc 1 891 0
 1726 0008 FFF7FEFF 		bl	inHandlerMode
 1727 000c 0346     		mov	r3, r0
 1728 000e 002B     		cmp	r3, #0
 1729 0010 01D0     		beq	.L118
 892:Middlewares/Third_Party/FreeRTOS/Source/CMSIS_RTOS/cmsis_os.c ****     return osErrorISR;
ARM GAS  /tmp/ccVQttFk.s 			page 48


 1730              		.loc 1 892 0
 1731 0012 8223     		movs	r3, #130
 1732 0014 03E0     		b	.L119
 1733              	.L118:
 893:Middlewares/Third_Party/FreeRTOS/Source/CMSIS_RTOS/cmsis_os.c ****   }
 894:Middlewares/Third_Party/FreeRTOS/Source/CMSIS_RTOS/cmsis_os.c **** 
 895:Middlewares/Third_Party/FreeRTOS/Source/CMSIS_RTOS/cmsis_os.c ****   vSemaphoreDelete(semaphore_id);
 1734              		.loc 1 895 0
 1735 0016 7868     		ldr	r0, [r7, #4]
 1736 0018 FFF7FEFF 		bl	vQueueDelete
 896:Middlewares/Third_Party/FreeRTOS/Source/CMSIS_RTOS/cmsis_os.c **** 
 897:Middlewares/Third_Party/FreeRTOS/Source/CMSIS_RTOS/cmsis_os.c ****   return osOK; 
 1737              		.loc 1 897 0
 1738 001c 0023     		movs	r3, #0
 1739              	.L119:
 898:Middlewares/Third_Party/FreeRTOS/Source/CMSIS_RTOS/cmsis_os.c **** }
 1740              		.loc 1 898 0
 1741 001e 1846     		mov	r0, r3
 1742 0020 0837     		adds	r7, r7, #8
 1743              	.LCFI127:
 1744              		.cfi_def_cfa_offset 8
 1745 0022 BD46     		mov	sp, r7
 1746              	.LCFI128:
 1747              		.cfi_def_cfa_register 13
 1748              		@ sp needed
 1749 0024 80BD     		pop	{r7, pc}
 1750              		.cfi_endproc
 1751              	.LFE56:
 1753 0026 00BF     		.section	.text.osPoolCreate,"ax",%progbits
 1754              		.align	2
 1755              		.global	osPoolCreate
 1756              		.thumb
 1757              		.thumb_func
 1759              	osPoolCreate:
 1760              	.LFB57:
 899:Middlewares/Third_Party/FreeRTOS/Source/CMSIS_RTOS/cmsis_os.c **** 
 900:Middlewares/Third_Party/FreeRTOS/Source/CMSIS_RTOS/cmsis_os.c **** #endif    /* Use Semaphores */
 901:Middlewares/Third_Party/FreeRTOS/Source/CMSIS_RTOS/cmsis_os.c **** 
 902:Middlewares/Third_Party/FreeRTOS/Source/CMSIS_RTOS/cmsis_os.c **** /*******************   Memory Pool Management Functions  ***********************/
 903:Middlewares/Third_Party/FreeRTOS/Source/CMSIS_RTOS/cmsis_os.c **** 
 904:Middlewares/Third_Party/FreeRTOS/Source/CMSIS_RTOS/cmsis_os.c **** #if (defined (osFeature_Pool)  &&  (osFeature_Pool != 0)) 
 905:Middlewares/Third_Party/FreeRTOS/Source/CMSIS_RTOS/cmsis_os.c **** 
 906:Middlewares/Third_Party/FreeRTOS/Source/CMSIS_RTOS/cmsis_os.c **** //TODO
 907:Middlewares/Third_Party/FreeRTOS/Source/CMSIS_RTOS/cmsis_os.c **** //This is a primitive and inefficient wrapper around the existing FreeRTOS memory management.
 908:Middlewares/Third_Party/FreeRTOS/Source/CMSIS_RTOS/cmsis_os.c **** //A better implementation will have to modify heap_x.c!
 909:Middlewares/Third_Party/FreeRTOS/Source/CMSIS_RTOS/cmsis_os.c **** 
 910:Middlewares/Third_Party/FreeRTOS/Source/CMSIS_RTOS/cmsis_os.c **** 
 911:Middlewares/Third_Party/FreeRTOS/Source/CMSIS_RTOS/cmsis_os.c **** typedef struct os_pool_cb {
 912:Middlewares/Third_Party/FreeRTOS/Source/CMSIS_RTOS/cmsis_os.c ****   void *pool;
 913:Middlewares/Third_Party/FreeRTOS/Source/CMSIS_RTOS/cmsis_os.c ****   uint8_t *markers;
 914:Middlewares/Third_Party/FreeRTOS/Source/CMSIS_RTOS/cmsis_os.c ****   uint32_t pool_sz;
 915:Middlewares/Third_Party/FreeRTOS/Source/CMSIS_RTOS/cmsis_os.c ****   uint32_t item_sz;
 916:Middlewares/Third_Party/FreeRTOS/Source/CMSIS_RTOS/cmsis_os.c ****   uint32_t currentIndex;
 917:Middlewares/Third_Party/FreeRTOS/Source/CMSIS_RTOS/cmsis_os.c **** } os_pool_cb_t;
 918:Middlewares/Third_Party/FreeRTOS/Source/CMSIS_RTOS/cmsis_os.c **** 
 919:Middlewares/Third_Party/FreeRTOS/Source/CMSIS_RTOS/cmsis_os.c **** 
 920:Middlewares/Third_Party/FreeRTOS/Source/CMSIS_RTOS/cmsis_os.c **** /**
ARM GAS  /tmp/ccVQttFk.s 			page 49


 921:Middlewares/Third_Party/FreeRTOS/Source/CMSIS_RTOS/cmsis_os.c **** * @brief Create and Initialize a memory pool
 922:Middlewares/Third_Party/FreeRTOS/Source/CMSIS_RTOS/cmsis_os.c **** * @param  pool_def      memory pool definition referenced with \ref osPool.
 923:Middlewares/Third_Party/FreeRTOS/Source/CMSIS_RTOS/cmsis_os.c **** * @retval  memory pool ID for reference by other functions or NULL in case of error.
 924:Middlewares/Third_Party/FreeRTOS/Source/CMSIS_RTOS/cmsis_os.c **** * @note   MUST REMAIN UNCHANGED: \b osPoolCreate shall be consistent in every CMSIS-RTOS.
 925:Middlewares/Third_Party/FreeRTOS/Source/CMSIS_RTOS/cmsis_os.c **** */
 926:Middlewares/Third_Party/FreeRTOS/Source/CMSIS_RTOS/cmsis_os.c **** osPoolId osPoolCreate (const osPoolDef_t *pool_def)
 927:Middlewares/Third_Party/FreeRTOS/Source/CMSIS_RTOS/cmsis_os.c **** {
 1761              		.loc 1 927 0
 1762              		.cfi_startproc
 1763              		@ args = 0, pretend = 0, frame = 24
 1764              		@ frame_needed = 1, uses_anonymous_args = 0
 1765 0000 80B5     		push	{r7, lr}
 1766              	.LCFI129:
 1767              		.cfi_def_cfa_offset 8
 1768              		.cfi_offset 7, -8
 1769              		.cfi_offset 14, -4
 1770 0002 86B0     		sub	sp, sp, #24
 1771              	.LCFI130:
 1772              		.cfi_def_cfa_offset 32
 1773 0004 00AF     		add	r7, sp, #0
 1774              	.LCFI131:
 1775              		.cfi_def_cfa_register 7
 1776 0006 7860     		str	r0, [r7, #4]
 928:Middlewares/Third_Party/FreeRTOS/Source/CMSIS_RTOS/cmsis_os.c **** #if (configSUPPORT_DYNAMIC_ALLOCATION == 1)
 929:Middlewares/Third_Party/FreeRTOS/Source/CMSIS_RTOS/cmsis_os.c ****   osPoolId thePool;
 930:Middlewares/Third_Party/FreeRTOS/Source/CMSIS_RTOS/cmsis_os.c ****   int itemSize = 4 * ((pool_def->item_sz + 3) / 4);
 1777              		.loc 1 930 0
 1778 0008 7B68     		ldr	r3, [r7, #4]
 1779 000a 5B68     		ldr	r3, [r3, #4]
 1780 000c 0333     		adds	r3, r3, #3
 1781 000e 9B08     		lsrs	r3, r3, #2
 1782 0010 9B00     		lsls	r3, r3, #2
 1783 0012 FB60     		str	r3, [r7, #12]
 931:Middlewares/Third_Party/FreeRTOS/Source/CMSIS_RTOS/cmsis_os.c ****   uint32_t i;
 932:Middlewares/Third_Party/FreeRTOS/Source/CMSIS_RTOS/cmsis_os.c ****   
 933:Middlewares/Third_Party/FreeRTOS/Source/CMSIS_RTOS/cmsis_os.c ****   /* First have to allocate memory for the pool control block. */
 934:Middlewares/Third_Party/FreeRTOS/Source/CMSIS_RTOS/cmsis_os.c ****  thePool = pvPortMalloc(sizeof(os_pool_cb_t));
 1784              		.loc 1 934 0
 1785 0014 1420     		movs	r0, #20
 1786 0016 FFF7FEFF 		bl	pvPortMalloc
 1787 001a 7861     		str	r0, [r7, #20]
 935:Middlewares/Third_Party/FreeRTOS/Source/CMSIS_RTOS/cmsis_os.c **** 
 936:Middlewares/Third_Party/FreeRTOS/Source/CMSIS_RTOS/cmsis_os.c ****   
 937:Middlewares/Third_Party/FreeRTOS/Source/CMSIS_RTOS/cmsis_os.c ****   if (thePool) {
 1788              		.loc 1 937 0
 1789 001c 7B69     		ldr	r3, [r7, #20]
 1790 001e 002B     		cmp	r3, #0
 1791 0020 46D0     		beq	.L121
 938:Middlewares/Third_Party/FreeRTOS/Source/CMSIS_RTOS/cmsis_os.c ****     thePool->pool_sz = pool_def->pool_sz;
 1792              		.loc 1 938 0
 1793 0022 7B68     		ldr	r3, [r7, #4]
 1794 0024 1A68     		ldr	r2, [r3]
 1795 0026 7B69     		ldr	r3, [r7, #20]
 1796 0028 9A60     		str	r2, [r3, #8]
 939:Middlewares/Third_Party/FreeRTOS/Source/CMSIS_RTOS/cmsis_os.c ****     thePool->item_sz = itemSize;
 1797              		.loc 1 939 0
 1798 002a FA68     		ldr	r2, [r7, #12]
ARM GAS  /tmp/ccVQttFk.s 			page 50


 1799 002c 7B69     		ldr	r3, [r7, #20]
 1800 002e DA60     		str	r2, [r3, #12]
 940:Middlewares/Third_Party/FreeRTOS/Source/CMSIS_RTOS/cmsis_os.c ****     thePool->currentIndex = 0;
 1801              		.loc 1 940 0
 1802 0030 7B69     		ldr	r3, [r7, #20]
 1803 0032 0022     		movs	r2, #0
 1804 0034 1A61     		str	r2, [r3, #16]
 941:Middlewares/Third_Party/FreeRTOS/Source/CMSIS_RTOS/cmsis_os.c ****     
 942:Middlewares/Third_Party/FreeRTOS/Source/CMSIS_RTOS/cmsis_os.c ****     /* Memory for markers */
 943:Middlewares/Third_Party/FreeRTOS/Source/CMSIS_RTOS/cmsis_os.c ****     thePool->markers = pvPortMalloc(pool_def->pool_sz);
 1805              		.loc 1 943 0
 1806 0036 7B68     		ldr	r3, [r7, #4]
 1807 0038 1B68     		ldr	r3, [r3]
 1808 003a 1846     		mov	r0, r3
 1809 003c FFF7FEFF 		bl	pvPortMalloc
 1810 0040 0246     		mov	r2, r0
 1811 0042 7B69     		ldr	r3, [r7, #20]
 1812 0044 5A60     		str	r2, [r3, #4]
 944:Middlewares/Third_Party/FreeRTOS/Source/CMSIS_RTOS/cmsis_os.c ****    
 945:Middlewares/Third_Party/FreeRTOS/Source/CMSIS_RTOS/cmsis_os.c ****     if (thePool->markers) {
 1813              		.loc 1 945 0
 1814 0046 7B69     		ldr	r3, [r7, #20]
 1815 0048 5B68     		ldr	r3, [r3, #4]
 1816 004a 002B     		cmp	r3, #0
 1817 004c 2BD0     		beq	.L122
 946:Middlewares/Third_Party/FreeRTOS/Source/CMSIS_RTOS/cmsis_os.c ****       /* Now allocate the pool itself. */
 947:Middlewares/Third_Party/FreeRTOS/Source/CMSIS_RTOS/cmsis_os.c ****      thePool->pool = pvPortMalloc(pool_def->pool_sz * itemSize);
 1818              		.loc 1 947 0
 1819 004e 7B68     		ldr	r3, [r7, #4]
 1820 0050 1B68     		ldr	r3, [r3]
 1821 0052 FA68     		ldr	r2, [r7, #12]
 1822 0054 02FB03F3 		mul	r3, r2, r3
 1823 0058 1846     		mov	r0, r3
 1824 005a FFF7FEFF 		bl	pvPortMalloc
 1825 005e 0246     		mov	r2, r0
 1826 0060 7B69     		ldr	r3, [r7, #20]
 1827 0062 1A60     		str	r2, [r3]
 948:Middlewares/Third_Party/FreeRTOS/Source/CMSIS_RTOS/cmsis_os.c ****       
 949:Middlewares/Third_Party/FreeRTOS/Source/CMSIS_RTOS/cmsis_os.c ****       if (thePool->pool) {
 1828              		.loc 1 949 0
 1829 0064 7B69     		ldr	r3, [r7, #20]
 1830 0066 1B68     		ldr	r3, [r3]
 1831 0068 002B     		cmp	r3, #0
 1832 006a 11D0     		beq	.L123
 950:Middlewares/Third_Party/FreeRTOS/Source/CMSIS_RTOS/cmsis_os.c ****         for (i = 0; i < pool_def->pool_sz; i++) {
 1833              		.loc 1 950 0
 1834 006c 0023     		movs	r3, #0
 1835 006e 3B61     		str	r3, [r7, #16]
 1836 0070 08E0     		b	.L124
 1837              	.L125:
 951:Middlewares/Third_Party/FreeRTOS/Source/CMSIS_RTOS/cmsis_os.c ****           thePool->markers[i] = 0;
 1838              		.loc 1 951 0 discriminator 3
 1839 0072 7B69     		ldr	r3, [r7, #20]
 1840 0074 5A68     		ldr	r2, [r3, #4]
 1841 0076 3B69     		ldr	r3, [r7, #16]
 1842 0078 1344     		add	r3, r3, r2
 1843 007a 0022     		movs	r2, #0
ARM GAS  /tmp/ccVQttFk.s 			page 51


 1844 007c 1A70     		strb	r2, [r3]
 950:Middlewares/Third_Party/FreeRTOS/Source/CMSIS_RTOS/cmsis_os.c ****         for (i = 0; i < pool_def->pool_sz; i++) {
 1845              		.loc 1 950 0 discriminator 3
 1846 007e 3B69     		ldr	r3, [r7, #16]
 1847 0080 0133     		adds	r3, r3, #1
 1848 0082 3B61     		str	r3, [r7, #16]
 1849              	.L124:
 950:Middlewares/Third_Party/FreeRTOS/Source/CMSIS_RTOS/cmsis_os.c ****         for (i = 0; i < pool_def->pool_sz; i++) {
 1850              		.loc 1 950 0 is_stmt 0 discriminator 1
 1851 0084 7B68     		ldr	r3, [r7, #4]
 1852 0086 1A68     		ldr	r2, [r3]
 1853 0088 3B69     		ldr	r3, [r7, #16]
 1854 008a 9A42     		cmp	r2, r3
 1855 008c F1D8     		bhi	.L125
 1856 008e 0FE0     		b	.L121
 1857              	.L123:
 952:Middlewares/Third_Party/FreeRTOS/Source/CMSIS_RTOS/cmsis_os.c ****         }
 953:Middlewares/Third_Party/FreeRTOS/Source/CMSIS_RTOS/cmsis_os.c ****       }
 954:Middlewares/Third_Party/FreeRTOS/Source/CMSIS_RTOS/cmsis_os.c ****       else {
 955:Middlewares/Third_Party/FreeRTOS/Source/CMSIS_RTOS/cmsis_os.c ****         vPortFree(thePool->markers);
 1858              		.loc 1 955 0 is_stmt 1
 1859 0090 7B69     		ldr	r3, [r7, #20]
 1860 0092 5B68     		ldr	r3, [r3, #4]
 1861 0094 1846     		mov	r0, r3
 1862 0096 FFF7FEFF 		bl	vPortFree
 956:Middlewares/Third_Party/FreeRTOS/Source/CMSIS_RTOS/cmsis_os.c ****         vPortFree(thePool);
 1863              		.loc 1 956 0
 1864 009a 7869     		ldr	r0, [r7, #20]
 1865 009c FFF7FEFF 		bl	vPortFree
 957:Middlewares/Third_Party/FreeRTOS/Source/CMSIS_RTOS/cmsis_os.c ****         thePool = NULL;
 1866              		.loc 1 957 0
 1867 00a0 0023     		movs	r3, #0
 1868 00a2 7B61     		str	r3, [r7, #20]
 1869 00a4 04E0     		b	.L121
 1870              	.L122:
 958:Middlewares/Third_Party/FreeRTOS/Source/CMSIS_RTOS/cmsis_os.c ****       }
 959:Middlewares/Third_Party/FreeRTOS/Source/CMSIS_RTOS/cmsis_os.c ****     }
 960:Middlewares/Third_Party/FreeRTOS/Source/CMSIS_RTOS/cmsis_os.c ****     else {
 961:Middlewares/Third_Party/FreeRTOS/Source/CMSIS_RTOS/cmsis_os.c ****       vPortFree(thePool);
 1871              		.loc 1 961 0
 1872 00a6 7869     		ldr	r0, [r7, #20]
 1873 00a8 FFF7FEFF 		bl	vPortFree
 962:Middlewares/Third_Party/FreeRTOS/Source/CMSIS_RTOS/cmsis_os.c ****       thePool = NULL;
 1874              		.loc 1 962 0
 1875 00ac 0023     		movs	r3, #0
 1876 00ae 7B61     		str	r3, [r7, #20]
 1877              	.L121:
 963:Middlewares/Third_Party/FreeRTOS/Source/CMSIS_RTOS/cmsis_os.c ****     }
 964:Middlewares/Third_Party/FreeRTOS/Source/CMSIS_RTOS/cmsis_os.c ****   }
 965:Middlewares/Third_Party/FreeRTOS/Source/CMSIS_RTOS/cmsis_os.c **** 
 966:Middlewares/Third_Party/FreeRTOS/Source/CMSIS_RTOS/cmsis_os.c ****   return thePool;
 1878              		.loc 1 966 0
 1879 00b0 7B69     		ldr	r3, [r7, #20]
 967:Middlewares/Third_Party/FreeRTOS/Source/CMSIS_RTOS/cmsis_os.c ****  
 968:Middlewares/Third_Party/FreeRTOS/Source/CMSIS_RTOS/cmsis_os.c **** #else
 969:Middlewares/Third_Party/FreeRTOS/Source/CMSIS_RTOS/cmsis_os.c ****   return NULL;
 970:Middlewares/Third_Party/FreeRTOS/Source/CMSIS_RTOS/cmsis_os.c **** #endif
ARM GAS  /tmp/ccVQttFk.s 			page 52


 971:Middlewares/Third_Party/FreeRTOS/Source/CMSIS_RTOS/cmsis_os.c **** }
 1880              		.loc 1 971 0
 1881 00b2 1846     		mov	r0, r3
 1882 00b4 1837     		adds	r7, r7, #24
 1883              	.LCFI132:
 1884              		.cfi_def_cfa_offset 8
 1885 00b6 BD46     		mov	sp, r7
 1886              	.LCFI133:
 1887              		.cfi_def_cfa_register 13
 1888              		@ sp needed
 1889 00b8 80BD     		pop	{r7, pc}
 1890              		.cfi_endproc
 1891              	.LFE57:
 1893 00ba 00BF     		.section	.text.osPoolAlloc,"ax",%progbits
 1894              		.align	2
 1895              		.global	osPoolAlloc
 1896              		.thumb
 1897              		.thumb_func
 1899              	osPoolAlloc:
 1900              	.LFB58:
 972:Middlewares/Third_Party/FreeRTOS/Source/CMSIS_RTOS/cmsis_os.c **** 
 973:Middlewares/Third_Party/FreeRTOS/Source/CMSIS_RTOS/cmsis_os.c **** /**
 974:Middlewares/Third_Party/FreeRTOS/Source/CMSIS_RTOS/cmsis_os.c **** * @brief Allocate a memory block from a memory pool
 975:Middlewares/Third_Party/FreeRTOS/Source/CMSIS_RTOS/cmsis_os.c **** * @param pool_id       memory pool ID obtain referenced with \ref osPoolCreate.
 976:Middlewares/Third_Party/FreeRTOS/Source/CMSIS_RTOS/cmsis_os.c **** * @retval  address of the allocated memory block or NULL in case of no memory available.
 977:Middlewares/Third_Party/FreeRTOS/Source/CMSIS_RTOS/cmsis_os.c **** * @note   MUST REMAIN UNCHANGED: \b osPoolAlloc shall be consistent in every CMSIS-RTOS.
 978:Middlewares/Third_Party/FreeRTOS/Source/CMSIS_RTOS/cmsis_os.c **** */
 979:Middlewares/Third_Party/FreeRTOS/Source/CMSIS_RTOS/cmsis_os.c **** void *osPoolAlloc (osPoolId pool_id)
 980:Middlewares/Third_Party/FreeRTOS/Source/CMSIS_RTOS/cmsis_os.c **** {
 1901              		.loc 1 980 0
 1902              		.cfi_startproc
 1903              		@ args = 0, pretend = 0, frame = 40
 1904              		@ frame_needed = 1, uses_anonymous_args = 0
 1905 0000 80B5     		push	{r7, lr}
 1906              	.LCFI134:
 1907              		.cfi_def_cfa_offset 8
 1908              		.cfi_offset 7, -8
 1909              		.cfi_offset 14, -4
 1910 0002 8AB0     		sub	sp, sp, #40
 1911              	.LCFI135:
 1912              		.cfi_def_cfa_offset 48
 1913 0004 00AF     		add	r7, sp, #0
 1914              	.LCFI136:
 1915              		.cfi_def_cfa_register 7
 1916 0006 7860     		str	r0, [r7, #4]
 981:Middlewares/Third_Party/FreeRTOS/Source/CMSIS_RTOS/cmsis_os.c ****   int dummy = 0;
 1917              		.loc 1 981 0
 1918 0008 0023     		movs	r3, #0
 1919 000a 7B62     		str	r3, [r7, #36]
 982:Middlewares/Third_Party/FreeRTOS/Source/CMSIS_RTOS/cmsis_os.c ****   void *p = NULL;
 1920              		.loc 1 982 0
 1921 000c 0023     		movs	r3, #0
 1922 000e 3B62     		str	r3, [r7, #32]
 983:Middlewares/Third_Party/FreeRTOS/Source/CMSIS_RTOS/cmsis_os.c ****   uint32_t i;
 984:Middlewares/Third_Party/FreeRTOS/Source/CMSIS_RTOS/cmsis_os.c ****   uint32_t index;
 985:Middlewares/Third_Party/FreeRTOS/Source/CMSIS_RTOS/cmsis_os.c ****   
 986:Middlewares/Third_Party/FreeRTOS/Source/CMSIS_RTOS/cmsis_os.c ****   if (inHandlerMode()) {
ARM GAS  /tmp/ccVQttFk.s 			page 53


 1923              		.loc 1 986 0
 1924 0010 FFF7FEFF 		bl	inHandlerMode
 1925 0014 0346     		mov	r3, r0
 1926 0016 002B     		cmp	r3, #0
 1927 0018 0ED0     		beq	.L129
 1928              	.LBB10:
 1929              	.LBB11:
 1930              		.file 3 "Middlewares/Third_Party/FreeRTOS/Source/portable/GCC/ARM_CM4F/portmacro.h"
   1:Middlewares/Third_Party/FreeRTOS/Source/portable/GCC/ARM_CM4F/portmacro.h **** /*
   2:Middlewares/Third_Party/FreeRTOS/Source/portable/GCC/ARM_CM4F/portmacro.h ****     FreeRTOS V9.0.0 - Copyright (C) 2016 Real Time Engineers Ltd.
   3:Middlewares/Third_Party/FreeRTOS/Source/portable/GCC/ARM_CM4F/portmacro.h ****     All rights reserved
   4:Middlewares/Third_Party/FreeRTOS/Source/portable/GCC/ARM_CM4F/portmacro.h **** 
   5:Middlewares/Third_Party/FreeRTOS/Source/portable/GCC/ARM_CM4F/portmacro.h ****     VISIT http://www.FreeRTOS.org TO ENSURE YOU ARE USING THE LATEST VERSION.
   6:Middlewares/Third_Party/FreeRTOS/Source/portable/GCC/ARM_CM4F/portmacro.h **** 
   7:Middlewares/Third_Party/FreeRTOS/Source/portable/GCC/ARM_CM4F/portmacro.h ****     This file is part of the FreeRTOS distribution.
   8:Middlewares/Third_Party/FreeRTOS/Source/portable/GCC/ARM_CM4F/portmacro.h **** 
   9:Middlewares/Third_Party/FreeRTOS/Source/portable/GCC/ARM_CM4F/portmacro.h ****     FreeRTOS is free software; you can redistribute it and/or modify it under
  10:Middlewares/Third_Party/FreeRTOS/Source/portable/GCC/ARM_CM4F/portmacro.h ****     the terms of the GNU General Public License (version 2) as published by the
  11:Middlewares/Third_Party/FreeRTOS/Source/portable/GCC/ARM_CM4F/portmacro.h ****     Free Software Foundation >>>> AND MODIFIED BY <<<< the FreeRTOS exception.
  12:Middlewares/Third_Party/FreeRTOS/Source/portable/GCC/ARM_CM4F/portmacro.h **** 
  13:Middlewares/Third_Party/FreeRTOS/Source/portable/GCC/ARM_CM4F/portmacro.h ****     ***************************************************************************
  14:Middlewares/Third_Party/FreeRTOS/Source/portable/GCC/ARM_CM4F/portmacro.h ****     >>!   NOTE: The modification to the GPL is included to allow you to     !<<
  15:Middlewares/Third_Party/FreeRTOS/Source/portable/GCC/ARM_CM4F/portmacro.h ****     >>!   distribute a combined work that includes FreeRTOS without being   !<<
  16:Middlewares/Third_Party/FreeRTOS/Source/portable/GCC/ARM_CM4F/portmacro.h ****     >>!   obliged to provide the source code for proprietary components     !<<
  17:Middlewares/Third_Party/FreeRTOS/Source/portable/GCC/ARM_CM4F/portmacro.h ****     >>!   outside of the FreeRTOS kernel.                                   !<<
  18:Middlewares/Third_Party/FreeRTOS/Source/portable/GCC/ARM_CM4F/portmacro.h ****     ***************************************************************************
  19:Middlewares/Third_Party/FreeRTOS/Source/portable/GCC/ARM_CM4F/portmacro.h **** 
  20:Middlewares/Third_Party/FreeRTOS/Source/portable/GCC/ARM_CM4F/portmacro.h ****     FreeRTOS is distributed in the hope that it will be useful, but WITHOUT ANY
  21:Middlewares/Third_Party/FreeRTOS/Source/portable/GCC/ARM_CM4F/portmacro.h ****     WARRANTY; without even the implied warranty of MERCHANTABILITY or FITNESS
  22:Middlewares/Third_Party/FreeRTOS/Source/portable/GCC/ARM_CM4F/portmacro.h ****     FOR A PARTICULAR PURPOSE.  Full license text is available on the following
  23:Middlewares/Third_Party/FreeRTOS/Source/portable/GCC/ARM_CM4F/portmacro.h ****     link: http://www.freertos.org/a00114.html
  24:Middlewares/Third_Party/FreeRTOS/Source/portable/GCC/ARM_CM4F/portmacro.h **** 
  25:Middlewares/Third_Party/FreeRTOS/Source/portable/GCC/ARM_CM4F/portmacro.h ****     ***************************************************************************
  26:Middlewares/Third_Party/FreeRTOS/Source/portable/GCC/ARM_CM4F/portmacro.h ****      *                                                                       *
  27:Middlewares/Third_Party/FreeRTOS/Source/portable/GCC/ARM_CM4F/portmacro.h ****      *    FreeRTOS provides completely free yet professionally developed,    *
  28:Middlewares/Third_Party/FreeRTOS/Source/portable/GCC/ARM_CM4F/portmacro.h ****      *    robust, strictly quality controlled, supported, and cross          *
  29:Middlewares/Third_Party/FreeRTOS/Source/portable/GCC/ARM_CM4F/portmacro.h ****      *    platform software that is more than just the market leader, it     *
  30:Middlewares/Third_Party/FreeRTOS/Source/portable/GCC/ARM_CM4F/portmacro.h ****      *    is the industry's de facto standard.                               *
  31:Middlewares/Third_Party/FreeRTOS/Source/portable/GCC/ARM_CM4F/portmacro.h ****      *                                                                       *
  32:Middlewares/Third_Party/FreeRTOS/Source/portable/GCC/ARM_CM4F/portmacro.h ****      *    Help yourself get started quickly while simultaneously helping     *
  33:Middlewares/Third_Party/FreeRTOS/Source/portable/GCC/ARM_CM4F/portmacro.h ****      *    to support the FreeRTOS project by purchasing a FreeRTOS           *
  34:Middlewares/Third_Party/FreeRTOS/Source/portable/GCC/ARM_CM4F/portmacro.h ****      *    tutorial book, reference manual, or both:                          *
  35:Middlewares/Third_Party/FreeRTOS/Source/portable/GCC/ARM_CM4F/portmacro.h ****      *    http://www.FreeRTOS.org/Documentation                              *
  36:Middlewares/Third_Party/FreeRTOS/Source/portable/GCC/ARM_CM4F/portmacro.h ****      *                                                                       *
  37:Middlewares/Third_Party/FreeRTOS/Source/portable/GCC/ARM_CM4F/portmacro.h ****     ***************************************************************************
  38:Middlewares/Third_Party/FreeRTOS/Source/portable/GCC/ARM_CM4F/portmacro.h **** 
  39:Middlewares/Third_Party/FreeRTOS/Source/portable/GCC/ARM_CM4F/portmacro.h ****     http://www.FreeRTOS.org/FAQHelp.html - Having a problem?  Start by reading
  40:Middlewares/Third_Party/FreeRTOS/Source/portable/GCC/ARM_CM4F/portmacro.h ****     the FAQ page "My application does not run, what could be wrong?".  Have you
  41:Middlewares/Third_Party/FreeRTOS/Source/portable/GCC/ARM_CM4F/portmacro.h ****     defined configASSERT()?
  42:Middlewares/Third_Party/FreeRTOS/Source/portable/GCC/ARM_CM4F/portmacro.h **** 
  43:Middlewares/Third_Party/FreeRTOS/Source/portable/GCC/ARM_CM4F/portmacro.h ****     http://www.FreeRTOS.org/support - In return for receiving this top quality
  44:Middlewares/Third_Party/FreeRTOS/Source/portable/GCC/ARM_CM4F/portmacro.h ****     embedded software for free we request you assist our global community by
  45:Middlewares/Third_Party/FreeRTOS/Source/portable/GCC/ARM_CM4F/portmacro.h ****     participating in the support forum.
  46:Middlewares/Third_Party/FreeRTOS/Source/portable/GCC/ARM_CM4F/portmacro.h **** 
  47:Middlewares/Third_Party/FreeRTOS/Source/portable/GCC/ARM_CM4F/portmacro.h ****     http://www.FreeRTOS.org/training - Investing in training allows your team to
  48:Middlewares/Third_Party/FreeRTOS/Source/portable/GCC/ARM_CM4F/portmacro.h ****     be as productive as possible as early as possible.  Now you can receive
  49:Middlewares/Third_Party/FreeRTOS/Source/portable/GCC/ARM_CM4F/portmacro.h ****     FreeRTOS training directly from Richard Barry, CEO of Real Time Engineers
ARM GAS  /tmp/ccVQttFk.s 			page 54


  50:Middlewares/Third_Party/FreeRTOS/Source/portable/GCC/ARM_CM4F/portmacro.h ****     Ltd, and the world's leading authority on the world's leading RTOS.
  51:Middlewares/Third_Party/FreeRTOS/Source/portable/GCC/ARM_CM4F/portmacro.h **** 
  52:Middlewares/Third_Party/FreeRTOS/Source/portable/GCC/ARM_CM4F/portmacro.h ****     http://www.FreeRTOS.org/plus - A selection of FreeRTOS ecosystem products,
  53:Middlewares/Third_Party/FreeRTOS/Source/portable/GCC/ARM_CM4F/portmacro.h ****     including FreeRTOS+Trace - an indispensable productivity tool, a DOS
  54:Middlewares/Third_Party/FreeRTOS/Source/portable/GCC/ARM_CM4F/portmacro.h ****     compatible FAT file system, and our tiny thread aware UDP/IP stack.
  55:Middlewares/Third_Party/FreeRTOS/Source/portable/GCC/ARM_CM4F/portmacro.h **** 
  56:Middlewares/Third_Party/FreeRTOS/Source/portable/GCC/ARM_CM4F/portmacro.h ****     http://www.FreeRTOS.org/labs - Where new FreeRTOS products go to incubate.
  57:Middlewares/Third_Party/FreeRTOS/Source/portable/GCC/ARM_CM4F/portmacro.h ****     Come and try FreeRTOS+TCP, our new open source TCP/IP stack for FreeRTOS.
  58:Middlewares/Third_Party/FreeRTOS/Source/portable/GCC/ARM_CM4F/portmacro.h **** 
  59:Middlewares/Third_Party/FreeRTOS/Source/portable/GCC/ARM_CM4F/portmacro.h ****     http://www.OpenRTOS.com - Real Time Engineers ltd. license FreeRTOS to High
  60:Middlewares/Third_Party/FreeRTOS/Source/portable/GCC/ARM_CM4F/portmacro.h ****     Integrity Systems ltd. to sell under the OpenRTOS brand.  Low cost OpenRTOS
  61:Middlewares/Third_Party/FreeRTOS/Source/portable/GCC/ARM_CM4F/portmacro.h ****     licenses offer ticketed support, indemnification and commercial middleware.
  62:Middlewares/Third_Party/FreeRTOS/Source/portable/GCC/ARM_CM4F/portmacro.h **** 
  63:Middlewares/Third_Party/FreeRTOS/Source/portable/GCC/ARM_CM4F/portmacro.h ****     http://www.SafeRTOS.com - High Integrity Systems also provide a safety
  64:Middlewares/Third_Party/FreeRTOS/Source/portable/GCC/ARM_CM4F/portmacro.h ****     engineered and independently SIL3 certified version for use in safety and
  65:Middlewares/Third_Party/FreeRTOS/Source/portable/GCC/ARM_CM4F/portmacro.h ****     mission critical applications that require provable dependability.
  66:Middlewares/Third_Party/FreeRTOS/Source/portable/GCC/ARM_CM4F/portmacro.h **** 
  67:Middlewares/Third_Party/FreeRTOS/Source/portable/GCC/ARM_CM4F/portmacro.h ****     1 tab == 4 spaces!
  68:Middlewares/Third_Party/FreeRTOS/Source/portable/GCC/ARM_CM4F/portmacro.h **** */
  69:Middlewares/Third_Party/FreeRTOS/Source/portable/GCC/ARM_CM4F/portmacro.h **** 
  70:Middlewares/Third_Party/FreeRTOS/Source/portable/GCC/ARM_CM4F/portmacro.h **** 
  71:Middlewares/Third_Party/FreeRTOS/Source/portable/GCC/ARM_CM4F/portmacro.h **** #ifndef PORTMACRO_H
  72:Middlewares/Third_Party/FreeRTOS/Source/portable/GCC/ARM_CM4F/portmacro.h **** #define PORTMACRO_H
  73:Middlewares/Third_Party/FreeRTOS/Source/portable/GCC/ARM_CM4F/portmacro.h **** 
  74:Middlewares/Third_Party/FreeRTOS/Source/portable/GCC/ARM_CM4F/portmacro.h **** #ifdef __cplusplus
  75:Middlewares/Third_Party/FreeRTOS/Source/portable/GCC/ARM_CM4F/portmacro.h **** extern "C" {
  76:Middlewares/Third_Party/FreeRTOS/Source/portable/GCC/ARM_CM4F/portmacro.h **** #endif
  77:Middlewares/Third_Party/FreeRTOS/Source/portable/GCC/ARM_CM4F/portmacro.h **** 
  78:Middlewares/Third_Party/FreeRTOS/Source/portable/GCC/ARM_CM4F/portmacro.h **** /*-----------------------------------------------------------
  79:Middlewares/Third_Party/FreeRTOS/Source/portable/GCC/ARM_CM4F/portmacro.h ****  * Port specific definitions.
  80:Middlewares/Third_Party/FreeRTOS/Source/portable/GCC/ARM_CM4F/portmacro.h ****  *
  81:Middlewares/Third_Party/FreeRTOS/Source/portable/GCC/ARM_CM4F/portmacro.h ****  * The settings in this file configure FreeRTOS correctly for the
  82:Middlewares/Third_Party/FreeRTOS/Source/portable/GCC/ARM_CM4F/portmacro.h ****  * given hardware and compiler.
  83:Middlewares/Third_Party/FreeRTOS/Source/portable/GCC/ARM_CM4F/portmacro.h ****  *
  84:Middlewares/Third_Party/FreeRTOS/Source/portable/GCC/ARM_CM4F/portmacro.h ****  * These settings should not be altered.
  85:Middlewares/Third_Party/FreeRTOS/Source/portable/GCC/ARM_CM4F/portmacro.h ****  *-----------------------------------------------------------
  86:Middlewares/Third_Party/FreeRTOS/Source/portable/GCC/ARM_CM4F/portmacro.h ****  */
  87:Middlewares/Third_Party/FreeRTOS/Source/portable/GCC/ARM_CM4F/portmacro.h **** 
  88:Middlewares/Third_Party/FreeRTOS/Source/portable/GCC/ARM_CM4F/portmacro.h **** /* Type definitions. */
  89:Middlewares/Third_Party/FreeRTOS/Source/portable/GCC/ARM_CM4F/portmacro.h **** #define portCHAR		char
  90:Middlewares/Third_Party/FreeRTOS/Source/portable/GCC/ARM_CM4F/portmacro.h **** #define portFLOAT		float
  91:Middlewares/Third_Party/FreeRTOS/Source/portable/GCC/ARM_CM4F/portmacro.h **** #define portDOUBLE		double
  92:Middlewares/Third_Party/FreeRTOS/Source/portable/GCC/ARM_CM4F/portmacro.h **** #define portLONG		long
  93:Middlewares/Third_Party/FreeRTOS/Source/portable/GCC/ARM_CM4F/portmacro.h **** #define portSHORT		short
  94:Middlewares/Third_Party/FreeRTOS/Source/portable/GCC/ARM_CM4F/portmacro.h **** #define portSTACK_TYPE	uint32_t
  95:Middlewares/Third_Party/FreeRTOS/Source/portable/GCC/ARM_CM4F/portmacro.h **** #define portBASE_TYPE	long
  96:Middlewares/Third_Party/FreeRTOS/Source/portable/GCC/ARM_CM4F/portmacro.h **** 
  97:Middlewares/Third_Party/FreeRTOS/Source/portable/GCC/ARM_CM4F/portmacro.h **** typedef portSTACK_TYPE StackType_t;
  98:Middlewares/Third_Party/FreeRTOS/Source/portable/GCC/ARM_CM4F/portmacro.h **** typedef long BaseType_t;
  99:Middlewares/Third_Party/FreeRTOS/Source/portable/GCC/ARM_CM4F/portmacro.h **** typedef unsigned long UBaseType_t;
 100:Middlewares/Third_Party/FreeRTOS/Source/portable/GCC/ARM_CM4F/portmacro.h **** 
 101:Middlewares/Third_Party/FreeRTOS/Source/portable/GCC/ARM_CM4F/portmacro.h **** #if( configUSE_16_BIT_TICKS == 1 )
 102:Middlewares/Third_Party/FreeRTOS/Source/portable/GCC/ARM_CM4F/portmacro.h **** 	typedef uint16_t TickType_t;
 103:Middlewares/Third_Party/FreeRTOS/Source/portable/GCC/ARM_CM4F/portmacro.h **** 	#define portMAX_DELAY ( TickType_t ) 0xffff
 104:Middlewares/Third_Party/FreeRTOS/Source/portable/GCC/ARM_CM4F/portmacro.h **** #else
 105:Middlewares/Third_Party/FreeRTOS/Source/portable/GCC/ARM_CM4F/portmacro.h **** 	typedef uint32_t TickType_t;
 106:Middlewares/Third_Party/FreeRTOS/Source/portable/GCC/ARM_CM4F/portmacro.h **** 	#define portMAX_DELAY ( TickType_t ) 0xffffffffUL
ARM GAS  /tmp/ccVQttFk.s 			page 55


 107:Middlewares/Third_Party/FreeRTOS/Source/portable/GCC/ARM_CM4F/portmacro.h **** 
 108:Middlewares/Third_Party/FreeRTOS/Source/portable/GCC/ARM_CM4F/portmacro.h **** 	/* 32-bit tick type on a 32-bit architecture, so reads of the tick count do
 109:Middlewares/Third_Party/FreeRTOS/Source/portable/GCC/ARM_CM4F/portmacro.h **** 	not need to be guarded with a critical section. */
 110:Middlewares/Third_Party/FreeRTOS/Source/portable/GCC/ARM_CM4F/portmacro.h **** 	#define portTICK_TYPE_IS_ATOMIC 1
 111:Middlewares/Third_Party/FreeRTOS/Source/portable/GCC/ARM_CM4F/portmacro.h **** #endif
 112:Middlewares/Third_Party/FreeRTOS/Source/portable/GCC/ARM_CM4F/portmacro.h **** /*-----------------------------------------------------------*/
 113:Middlewares/Third_Party/FreeRTOS/Source/portable/GCC/ARM_CM4F/portmacro.h **** 
 114:Middlewares/Third_Party/FreeRTOS/Source/portable/GCC/ARM_CM4F/portmacro.h **** /* Architecture specifics. */
 115:Middlewares/Third_Party/FreeRTOS/Source/portable/GCC/ARM_CM4F/portmacro.h **** #define portSTACK_GROWTH			( -1 )
 116:Middlewares/Third_Party/FreeRTOS/Source/portable/GCC/ARM_CM4F/portmacro.h **** #define portTICK_PERIOD_MS			( ( TickType_t ) 1000 / configTICK_RATE_HZ )
 117:Middlewares/Third_Party/FreeRTOS/Source/portable/GCC/ARM_CM4F/portmacro.h **** #define portBYTE_ALIGNMENT			8
 118:Middlewares/Third_Party/FreeRTOS/Source/portable/GCC/ARM_CM4F/portmacro.h **** /*-----------------------------------------------------------*/
 119:Middlewares/Third_Party/FreeRTOS/Source/portable/GCC/ARM_CM4F/portmacro.h **** 
 120:Middlewares/Third_Party/FreeRTOS/Source/portable/GCC/ARM_CM4F/portmacro.h **** /* Scheduler utilities. */
 121:Middlewares/Third_Party/FreeRTOS/Source/portable/GCC/ARM_CM4F/portmacro.h **** #define portYIELD() 															\
 122:Middlewares/Third_Party/FreeRTOS/Source/portable/GCC/ARM_CM4F/portmacro.h **** {																				\
 123:Middlewares/Third_Party/FreeRTOS/Source/portable/GCC/ARM_CM4F/portmacro.h **** 	/* Set a PendSV to request a context switch. */								\
 124:Middlewares/Third_Party/FreeRTOS/Source/portable/GCC/ARM_CM4F/portmacro.h **** 	portNVIC_INT_CTRL_REG = portNVIC_PENDSVSET_BIT;								\
 125:Middlewares/Third_Party/FreeRTOS/Source/portable/GCC/ARM_CM4F/portmacro.h **** 																				\
 126:Middlewares/Third_Party/FreeRTOS/Source/portable/GCC/ARM_CM4F/portmacro.h **** 	/* Barriers are normally not required but do ensure the code is completely	\
 127:Middlewares/Third_Party/FreeRTOS/Source/portable/GCC/ARM_CM4F/portmacro.h **** 	within the specified behaviour for the architecture. */						\
 128:Middlewares/Third_Party/FreeRTOS/Source/portable/GCC/ARM_CM4F/portmacro.h **** 	__asm volatile( "dsb" );													\
 129:Middlewares/Third_Party/FreeRTOS/Source/portable/GCC/ARM_CM4F/portmacro.h **** 	__asm volatile( "isb" );													\
 130:Middlewares/Third_Party/FreeRTOS/Source/portable/GCC/ARM_CM4F/portmacro.h **** }
 131:Middlewares/Third_Party/FreeRTOS/Source/portable/GCC/ARM_CM4F/portmacro.h **** 
 132:Middlewares/Third_Party/FreeRTOS/Source/portable/GCC/ARM_CM4F/portmacro.h **** #define portNVIC_INT_CTRL_REG		( * ( ( volatile uint32_t * ) 0xe000ed04 ) )
 133:Middlewares/Third_Party/FreeRTOS/Source/portable/GCC/ARM_CM4F/portmacro.h **** #define portNVIC_PENDSVSET_BIT		( 1UL << 28UL )
 134:Middlewares/Third_Party/FreeRTOS/Source/portable/GCC/ARM_CM4F/portmacro.h **** #define portEND_SWITCHING_ISR( xSwitchRequired ) if( xSwitchRequired != pdFALSE ) portYIELD()
 135:Middlewares/Third_Party/FreeRTOS/Source/portable/GCC/ARM_CM4F/portmacro.h **** #define portYIELD_FROM_ISR( x ) portEND_SWITCHING_ISR( x )
 136:Middlewares/Third_Party/FreeRTOS/Source/portable/GCC/ARM_CM4F/portmacro.h **** /*-----------------------------------------------------------*/
 137:Middlewares/Third_Party/FreeRTOS/Source/portable/GCC/ARM_CM4F/portmacro.h **** 
 138:Middlewares/Third_Party/FreeRTOS/Source/portable/GCC/ARM_CM4F/portmacro.h **** /* Critical section management. */
 139:Middlewares/Third_Party/FreeRTOS/Source/portable/GCC/ARM_CM4F/portmacro.h **** extern void vPortEnterCritical( void );
 140:Middlewares/Third_Party/FreeRTOS/Source/portable/GCC/ARM_CM4F/portmacro.h **** extern void vPortExitCritical( void );
 141:Middlewares/Third_Party/FreeRTOS/Source/portable/GCC/ARM_CM4F/portmacro.h **** #define portSET_INTERRUPT_MASK_FROM_ISR()		ulPortRaiseBASEPRI()
 142:Middlewares/Third_Party/FreeRTOS/Source/portable/GCC/ARM_CM4F/portmacro.h **** #define portCLEAR_INTERRUPT_MASK_FROM_ISR(x)	vPortSetBASEPRI(x)
 143:Middlewares/Third_Party/FreeRTOS/Source/portable/GCC/ARM_CM4F/portmacro.h **** #define portDISABLE_INTERRUPTS()				vPortRaiseBASEPRI()
 144:Middlewares/Third_Party/FreeRTOS/Source/portable/GCC/ARM_CM4F/portmacro.h **** #define portENABLE_INTERRUPTS()					vPortSetBASEPRI(0)
 145:Middlewares/Third_Party/FreeRTOS/Source/portable/GCC/ARM_CM4F/portmacro.h **** #define portENTER_CRITICAL()					vPortEnterCritical()
 146:Middlewares/Third_Party/FreeRTOS/Source/portable/GCC/ARM_CM4F/portmacro.h **** #define portEXIT_CRITICAL()						vPortExitCritical()
 147:Middlewares/Third_Party/FreeRTOS/Source/portable/GCC/ARM_CM4F/portmacro.h **** 
 148:Middlewares/Third_Party/FreeRTOS/Source/portable/GCC/ARM_CM4F/portmacro.h **** /*-----------------------------------------------------------*/
 149:Middlewares/Third_Party/FreeRTOS/Source/portable/GCC/ARM_CM4F/portmacro.h **** 
 150:Middlewares/Third_Party/FreeRTOS/Source/portable/GCC/ARM_CM4F/portmacro.h **** /* Task function macros as described on the FreeRTOS.org WEB site.  These are
 151:Middlewares/Third_Party/FreeRTOS/Source/portable/GCC/ARM_CM4F/portmacro.h **** not necessary for to use this port.  They are defined so the common demo files
 152:Middlewares/Third_Party/FreeRTOS/Source/portable/GCC/ARM_CM4F/portmacro.h **** (which build with all the ports) will build. */
 153:Middlewares/Third_Party/FreeRTOS/Source/portable/GCC/ARM_CM4F/portmacro.h **** #define portTASK_FUNCTION_PROTO( vFunction, pvParameters ) void vFunction( void *pvParameters )
 154:Middlewares/Third_Party/FreeRTOS/Source/portable/GCC/ARM_CM4F/portmacro.h **** #define portTASK_FUNCTION( vFunction, pvParameters ) void vFunction( void *pvParameters )
 155:Middlewares/Third_Party/FreeRTOS/Source/portable/GCC/ARM_CM4F/portmacro.h **** /*-----------------------------------------------------------*/
 156:Middlewares/Third_Party/FreeRTOS/Source/portable/GCC/ARM_CM4F/portmacro.h **** 
 157:Middlewares/Third_Party/FreeRTOS/Source/portable/GCC/ARM_CM4F/portmacro.h **** /* Tickless idle/low power functionality. */
 158:Middlewares/Third_Party/FreeRTOS/Source/portable/GCC/ARM_CM4F/portmacro.h **** #ifndef portSUPPRESS_TICKS_AND_SLEEP
 159:Middlewares/Third_Party/FreeRTOS/Source/portable/GCC/ARM_CM4F/portmacro.h **** 	extern void vPortSuppressTicksAndSleep( TickType_t xExpectedIdleTime );
 160:Middlewares/Third_Party/FreeRTOS/Source/portable/GCC/ARM_CM4F/portmacro.h **** 	#define portSUPPRESS_TICKS_AND_SLEEP( xExpectedIdleTime ) vPortSuppressTicksAndSleep( xExpectedIdl
 161:Middlewares/Third_Party/FreeRTOS/Source/portable/GCC/ARM_CM4F/portmacro.h **** #endif
 162:Middlewares/Third_Party/FreeRTOS/Source/portable/GCC/ARM_CM4F/portmacro.h **** /*-----------------------------------------------------------*/
 163:Middlewares/Third_Party/FreeRTOS/Source/portable/GCC/ARM_CM4F/portmacro.h **** 
ARM GAS  /tmp/ccVQttFk.s 			page 56


 164:Middlewares/Third_Party/FreeRTOS/Source/portable/GCC/ARM_CM4F/portmacro.h **** /* Architecture specific optimisations. */
 165:Middlewares/Third_Party/FreeRTOS/Source/portable/GCC/ARM_CM4F/portmacro.h **** #ifndef configUSE_PORT_OPTIMISED_TASK_SELECTION
 166:Middlewares/Third_Party/FreeRTOS/Source/portable/GCC/ARM_CM4F/portmacro.h **** 	#define configUSE_PORT_OPTIMISED_TASK_SELECTION 1
 167:Middlewares/Third_Party/FreeRTOS/Source/portable/GCC/ARM_CM4F/portmacro.h **** #endif
 168:Middlewares/Third_Party/FreeRTOS/Source/portable/GCC/ARM_CM4F/portmacro.h **** 
 169:Middlewares/Third_Party/FreeRTOS/Source/portable/GCC/ARM_CM4F/portmacro.h **** #if configUSE_PORT_OPTIMISED_TASK_SELECTION == 1
 170:Middlewares/Third_Party/FreeRTOS/Source/portable/GCC/ARM_CM4F/portmacro.h **** 
 171:Middlewares/Third_Party/FreeRTOS/Source/portable/GCC/ARM_CM4F/portmacro.h **** 	/* Generic helper function. */
 172:Middlewares/Third_Party/FreeRTOS/Source/portable/GCC/ARM_CM4F/portmacro.h **** 	__attribute__( ( always_inline ) ) static inline uint8_t ucPortCountLeadingZeros( uint32_t ulBitma
 173:Middlewares/Third_Party/FreeRTOS/Source/portable/GCC/ARM_CM4F/portmacro.h **** 	{
 174:Middlewares/Third_Party/FreeRTOS/Source/portable/GCC/ARM_CM4F/portmacro.h **** 	uint8_t ucReturn;
 175:Middlewares/Third_Party/FreeRTOS/Source/portable/GCC/ARM_CM4F/portmacro.h **** 
 176:Middlewares/Third_Party/FreeRTOS/Source/portable/GCC/ARM_CM4F/portmacro.h **** 		__asm volatile ( "clz %0, %1" : "=r" ( ucReturn ) : "r" ( ulBitmap ) );
 177:Middlewares/Third_Party/FreeRTOS/Source/portable/GCC/ARM_CM4F/portmacro.h **** 		return ucReturn;
 178:Middlewares/Third_Party/FreeRTOS/Source/portable/GCC/ARM_CM4F/portmacro.h **** 	}
 179:Middlewares/Third_Party/FreeRTOS/Source/portable/GCC/ARM_CM4F/portmacro.h **** 
 180:Middlewares/Third_Party/FreeRTOS/Source/portable/GCC/ARM_CM4F/portmacro.h **** 	/* Check the configuration. */
 181:Middlewares/Third_Party/FreeRTOS/Source/portable/GCC/ARM_CM4F/portmacro.h **** 	#if( configMAX_PRIORITIES > 32 )
 182:Middlewares/Third_Party/FreeRTOS/Source/portable/GCC/ARM_CM4F/portmacro.h **** 		#error configUSE_PORT_OPTIMISED_TASK_SELECTION can only be set to 1 when configMAX_PRIORITIES is 
 183:Middlewares/Third_Party/FreeRTOS/Source/portable/GCC/ARM_CM4F/portmacro.h **** 	#endif
 184:Middlewares/Third_Party/FreeRTOS/Source/portable/GCC/ARM_CM4F/portmacro.h **** 
 185:Middlewares/Third_Party/FreeRTOS/Source/portable/GCC/ARM_CM4F/portmacro.h **** 	/* Store/clear the ready priorities in a bit map. */
 186:Middlewares/Third_Party/FreeRTOS/Source/portable/GCC/ARM_CM4F/portmacro.h **** 	#define portRECORD_READY_PRIORITY( uxPriority, uxReadyPriorities ) ( uxReadyPriorities ) |= ( 1UL 
 187:Middlewares/Third_Party/FreeRTOS/Source/portable/GCC/ARM_CM4F/portmacro.h **** 	#define portRESET_READY_PRIORITY( uxPriority, uxReadyPriorities ) ( uxReadyPriorities ) &= ~( 1UL 
 188:Middlewares/Third_Party/FreeRTOS/Source/portable/GCC/ARM_CM4F/portmacro.h **** 
 189:Middlewares/Third_Party/FreeRTOS/Source/portable/GCC/ARM_CM4F/portmacro.h **** 	/*-----------------------------------------------------------*/
 190:Middlewares/Third_Party/FreeRTOS/Source/portable/GCC/ARM_CM4F/portmacro.h **** 
 191:Middlewares/Third_Party/FreeRTOS/Source/portable/GCC/ARM_CM4F/portmacro.h **** 	#define portGET_HIGHEST_PRIORITY( uxTopPriority, uxReadyPriorities ) uxTopPriority = ( 31UL - ( ui
 192:Middlewares/Third_Party/FreeRTOS/Source/portable/GCC/ARM_CM4F/portmacro.h **** 
 193:Middlewares/Third_Party/FreeRTOS/Source/portable/GCC/ARM_CM4F/portmacro.h **** #endif /* configUSE_PORT_OPTIMISED_TASK_SELECTION */
 194:Middlewares/Third_Party/FreeRTOS/Source/portable/GCC/ARM_CM4F/portmacro.h **** 
 195:Middlewares/Third_Party/FreeRTOS/Source/portable/GCC/ARM_CM4F/portmacro.h **** /*-----------------------------------------------------------*/
 196:Middlewares/Third_Party/FreeRTOS/Source/portable/GCC/ARM_CM4F/portmacro.h **** 
 197:Middlewares/Third_Party/FreeRTOS/Source/portable/GCC/ARM_CM4F/portmacro.h **** #ifdef configASSERT
 198:Middlewares/Third_Party/FreeRTOS/Source/portable/GCC/ARM_CM4F/portmacro.h **** 	void vPortValidateInterruptPriority( void );
 199:Middlewares/Third_Party/FreeRTOS/Source/portable/GCC/ARM_CM4F/portmacro.h **** 	#define portASSERT_IF_INTERRUPT_PRIORITY_INVALID() 	vPortValidateInterruptPriority()
 200:Middlewares/Third_Party/FreeRTOS/Source/portable/GCC/ARM_CM4F/portmacro.h **** #endif
 201:Middlewares/Third_Party/FreeRTOS/Source/portable/GCC/ARM_CM4F/portmacro.h **** 
 202:Middlewares/Third_Party/FreeRTOS/Source/portable/GCC/ARM_CM4F/portmacro.h **** /* portNOP() is not required by this port. */
 203:Middlewares/Third_Party/FreeRTOS/Source/portable/GCC/ARM_CM4F/portmacro.h **** #define portNOP()
 204:Middlewares/Third_Party/FreeRTOS/Source/portable/GCC/ARM_CM4F/portmacro.h **** 
 205:Middlewares/Third_Party/FreeRTOS/Source/portable/GCC/ARM_CM4F/portmacro.h **** #define portINLINE	__inline
 206:Middlewares/Third_Party/FreeRTOS/Source/portable/GCC/ARM_CM4F/portmacro.h **** 
 207:Middlewares/Third_Party/FreeRTOS/Source/portable/GCC/ARM_CM4F/portmacro.h **** #ifndef portFORCE_INLINE
 208:Middlewares/Third_Party/FreeRTOS/Source/portable/GCC/ARM_CM4F/portmacro.h **** 	#define portFORCE_INLINE inline __attribute__(( always_inline))
 209:Middlewares/Third_Party/FreeRTOS/Source/portable/GCC/ARM_CM4F/portmacro.h **** #endif
 210:Middlewares/Third_Party/FreeRTOS/Source/portable/GCC/ARM_CM4F/portmacro.h **** 
 211:Middlewares/Third_Party/FreeRTOS/Source/portable/GCC/ARM_CM4F/portmacro.h **** portFORCE_INLINE static BaseType_t xPortIsInsideInterrupt( void )
 212:Middlewares/Third_Party/FreeRTOS/Source/portable/GCC/ARM_CM4F/portmacro.h **** {
 213:Middlewares/Third_Party/FreeRTOS/Source/portable/GCC/ARM_CM4F/portmacro.h **** uint32_t ulCurrentInterrupt;
 214:Middlewares/Third_Party/FreeRTOS/Source/portable/GCC/ARM_CM4F/portmacro.h **** BaseType_t xReturn;
 215:Middlewares/Third_Party/FreeRTOS/Source/portable/GCC/ARM_CM4F/portmacro.h **** 
 216:Middlewares/Third_Party/FreeRTOS/Source/portable/GCC/ARM_CM4F/portmacro.h **** 	/* Obtain the number of the currently executing interrupt. */
 217:Middlewares/Third_Party/FreeRTOS/Source/portable/GCC/ARM_CM4F/portmacro.h **** 	__asm volatile( "mrs %0, ipsr" : "=r"( ulCurrentInterrupt ) );
 218:Middlewares/Third_Party/FreeRTOS/Source/portable/GCC/ARM_CM4F/portmacro.h **** 
 219:Middlewares/Third_Party/FreeRTOS/Source/portable/GCC/ARM_CM4F/portmacro.h **** 	if( ulCurrentInterrupt == 0 )
 220:Middlewares/Third_Party/FreeRTOS/Source/portable/GCC/ARM_CM4F/portmacro.h **** 	{
ARM GAS  /tmp/ccVQttFk.s 			page 57


 221:Middlewares/Third_Party/FreeRTOS/Source/portable/GCC/ARM_CM4F/portmacro.h **** 		xReturn = pdFALSE;
 222:Middlewares/Third_Party/FreeRTOS/Source/portable/GCC/ARM_CM4F/portmacro.h **** 	}
 223:Middlewares/Third_Party/FreeRTOS/Source/portable/GCC/ARM_CM4F/portmacro.h **** 	else
 224:Middlewares/Third_Party/FreeRTOS/Source/portable/GCC/ARM_CM4F/portmacro.h **** 	{
 225:Middlewares/Third_Party/FreeRTOS/Source/portable/GCC/ARM_CM4F/portmacro.h **** 		xReturn = pdTRUE;
 226:Middlewares/Third_Party/FreeRTOS/Source/portable/GCC/ARM_CM4F/portmacro.h **** 	}
 227:Middlewares/Third_Party/FreeRTOS/Source/portable/GCC/ARM_CM4F/portmacro.h **** 
 228:Middlewares/Third_Party/FreeRTOS/Source/portable/GCC/ARM_CM4F/portmacro.h **** 	return xReturn;
 229:Middlewares/Third_Party/FreeRTOS/Source/portable/GCC/ARM_CM4F/portmacro.h **** }
 230:Middlewares/Third_Party/FreeRTOS/Source/portable/GCC/ARM_CM4F/portmacro.h **** 
 231:Middlewares/Third_Party/FreeRTOS/Source/portable/GCC/ARM_CM4F/portmacro.h **** /*-----------------------------------------------------------*/
 232:Middlewares/Third_Party/FreeRTOS/Source/portable/GCC/ARM_CM4F/portmacro.h **** 
 233:Middlewares/Third_Party/FreeRTOS/Source/portable/GCC/ARM_CM4F/portmacro.h **** portFORCE_INLINE static void vPortRaiseBASEPRI( void )
 234:Middlewares/Third_Party/FreeRTOS/Source/portable/GCC/ARM_CM4F/portmacro.h **** {
 235:Middlewares/Third_Party/FreeRTOS/Source/portable/GCC/ARM_CM4F/portmacro.h **** uint32_t ulNewBASEPRI;
 236:Middlewares/Third_Party/FreeRTOS/Source/portable/GCC/ARM_CM4F/portmacro.h **** 
 237:Middlewares/Third_Party/FreeRTOS/Source/portable/GCC/ARM_CM4F/portmacro.h **** 	__asm volatile
 238:Middlewares/Third_Party/FreeRTOS/Source/portable/GCC/ARM_CM4F/portmacro.h **** 	(
 239:Middlewares/Third_Party/FreeRTOS/Source/portable/GCC/ARM_CM4F/portmacro.h **** 		"	mov %0, %1												\n"	\
 240:Middlewares/Third_Party/FreeRTOS/Source/portable/GCC/ARM_CM4F/portmacro.h **** 		"	msr basepri, %0											\n" \
 241:Middlewares/Third_Party/FreeRTOS/Source/portable/GCC/ARM_CM4F/portmacro.h **** 		"	isb														\n" \
 242:Middlewares/Third_Party/FreeRTOS/Source/portable/GCC/ARM_CM4F/portmacro.h **** 		"	dsb														\n" \
 243:Middlewares/Third_Party/FreeRTOS/Source/portable/GCC/ARM_CM4F/portmacro.h **** 		:"=r" (ulNewBASEPRI) : "i" ( configMAX_SYSCALL_INTERRUPT_PRIORITY )
 244:Middlewares/Third_Party/FreeRTOS/Source/portable/GCC/ARM_CM4F/portmacro.h **** 	);
 245:Middlewares/Third_Party/FreeRTOS/Source/portable/GCC/ARM_CM4F/portmacro.h **** }
 246:Middlewares/Third_Party/FreeRTOS/Source/portable/GCC/ARM_CM4F/portmacro.h **** 
 247:Middlewares/Third_Party/FreeRTOS/Source/portable/GCC/ARM_CM4F/portmacro.h **** /*-----------------------------------------------------------*/
 248:Middlewares/Third_Party/FreeRTOS/Source/portable/GCC/ARM_CM4F/portmacro.h **** 
 249:Middlewares/Third_Party/FreeRTOS/Source/portable/GCC/ARM_CM4F/portmacro.h **** portFORCE_INLINE static uint32_t ulPortRaiseBASEPRI( void )
 250:Middlewares/Third_Party/FreeRTOS/Source/portable/GCC/ARM_CM4F/portmacro.h **** {
 251:Middlewares/Third_Party/FreeRTOS/Source/portable/GCC/ARM_CM4F/portmacro.h **** uint32_t ulOriginalBASEPRI, ulNewBASEPRI;
 252:Middlewares/Third_Party/FreeRTOS/Source/portable/GCC/ARM_CM4F/portmacro.h **** 
 253:Middlewares/Third_Party/FreeRTOS/Source/portable/GCC/ARM_CM4F/portmacro.h **** 	__asm volatile
 1931              		.loc 3 253 0
 1932              	@ 253 "Middlewares/Third_Party/FreeRTOS/Source/portable/GCC/ARM_CM4F/portmacro.h" 1
 1933 001a EFF31182 			mrs r2, basepri											
 1934 001e 4FF05003 		mov r3, #80												
 1935 0022 83F31188 		msr basepri, r3											
 1936 0026 BFF36F8F 		isb														
 1937 002a BFF34F8F 		dsb														
 1938              	
 1939              	@ 0 "" 2
 1940              		.thumb
 1941 002e 7A61     		str	r2, [r7, #20]
 1942 0030 3B61     		str	r3, [r7, #16]
 254:Middlewares/Third_Party/FreeRTOS/Source/portable/GCC/ARM_CM4F/portmacro.h **** 	(
 255:Middlewares/Third_Party/FreeRTOS/Source/portable/GCC/ARM_CM4F/portmacro.h **** 		"	mrs %0, basepri											\n" \
 256:Middlewares/Third_Party/FreeRTOS/Source/portable/GCC/ARM_CM4F/portmacro.h **** 		"	mov %1, %2												\n"	\
 257:Middlewares/Third_Party/FreeRTOS/Source/portable/GCC/ARM_CM4F/portmacro.h **** 		"	msr basepri, %1											\n" \
 258:Middlewares/Third_Party/FreeRTOS/Source/portable/GCC/ARM_CM4F/portmacro.h **** 		"	isb														\n" \
 259:Middlewares/Third_Party/FreeRTOS/Source/portable/GCC/ARM_CM4F/portmacro.h **** 		"	dsb														\n" \
 260:Middlewares/Third_Party/FreeRTOS/Source/portable/GCC/ARM_CM4F/portmacro.h **** 		:"=r" (ulOriginalBASEPRI), "=r" (ulNewBASEPRI) : "i" ( configMAX_SYSCALL_INTERRUPT_PRIORITY )
 261:Middlewares/Third_Party/FreeRTOS/Source/portable/GCC/ARM_CM4F/portmacro.h **** 	);
 262:Middlewares/Third_Party/FreeRTOS/Source/portable/GCC/ARM_CM4F/portmacro.h **** 
 263:Middlewares/Third_Party/FreeRTOS/Source/portable/GCC/ARM_CM4F/portmacro.h **** 	/* This return will not be reached but is necessary to prevent compiler
 264:Middlewares/Third_Party/FreeRTOS/Source/portable/GCC/ARM_CM4F/portmacro.h **** 	warnings. */
 265:Middlewares/Third_Party/FreeRTOS/Source/portable/GCC/ARM_CM4F/portmacro.h **** 	return ulOriginalBASEPRI;
ARM GAS  /tmp/ccVQttFk.s 			page 58


 1943              		.loc 3 265 0
 1944 0032 7B69     		ldr	r3, [r7, #20]
 1945              	.LBE11:
 1946              	.LBE10:
 987:Middlewares/Third_Party/FreeRTOS/Source/CMSIS_RTOS/cmsis_os.c ****     dummy = portSET_INTERRUPT_MASK_FROM_ISR();
 1947              		.loc 1 987 0
 1948 0034 7B62     		str	r3, [r7, #36]
 1949 0036 01E0     		b	.L131
 1950              	.L129:
 988:Middlewares/Third_Party/FreeRTOS/Source/CMSIS_RTOS/cmsis_os.c ****   }
 989:Middlewares/Third_Party/FreeRTOS/Source/CMSIS_RTOS/cmsis_os.c ****   else {
 990:Middlewares/Third_Party/FreeRTOS/Source/CMSIS_RTOS/cmsis_os.c ****     vPortEnterCritical();
 1951              		.loc 1 990 0
 1952 0038 FFF7FEFF 		bl	vPortEnterCritical
 1953              	.L131:
 991:Middlewares/Third_Party/FreeRTOS/Source/CMSIS_RTOS/cmsis_os.c ****   }
 992:Middlewares/Third_Party/FreeRTOS/Source/CMSIS_RTOS/cmsis_os.c ****   
 993:Middlewares/Third_Party/FreeRTOS/Source/CMSIS_RTOS/cmsis_os.c ****   for (i = 0; i < pool_id->pool_sz; i++) {
 1954              		.loc 1 993 0
 1955 003c 0023     		movs	r3, #0
 1956 003e FB61     		str	r3, [r7, #28]
 1957 0040 29E0     		b	.L132
 1958              	.L136:
 994:Middlewares/Third_Party/FreeRTOS/Source/CMSIS_RTOS/cmsis_os.c ****     index = pool_id->currentIndex + i;
 1959              		.loc 1 994 0
 1960 0042 7B68     		ldr	r3, [r7, #4]
 1961 0044 1A69     		ldr	r2, [r3, #16]
 1962 0046 FB69     		ldr	r3, [r7, #28]
 1963 0048 1344     		add	r3, r3, r2
 1964 004a BB61     		str	r3, [r7, #24]
 995:Middlewares/Third_Party/FreeRTOS/Source/CMSIS_RTOS/cmsis_os.c ****     if (index >= pool_id->pool_sz) {
 1965              		.loc 1 995 0
 1966 004c 7B68     		ldr	r3, [r7, #4]
 1967 004e 9A68     		ldr	r2, [r3, #8]
 1968 0050 BB69     		ldr	r3, [r7, #24]
 1969 0052 9A42     		cmp	r2, r3
 1970 0054 01D8     		bhi	.L133
 996:Middlewares/Third_Party/FreeRTOS/Source/CMSIS_RTOS/cmsis_os.c ****       index = 0;
 1971              		.loc 1 996 0
 1972 0056 0023     		movs	r3, #0
 1973 0058 BB61     		str	r3, [r7, #24]
 1974              	.L133:
 997:Middlewares/Third_Party/FreeRTOS/Source/CMSIS_RTOS/cmsis_os.c ****     }
 998:Middlewares/Third_Party/FreeRTOS/Source/CMSIS_RTOS/cmsis_os.c ****     
 999:Middlewares/Third_Party/FreeRTOS/Source/CMSIS_RTOS/cmsis_os.c ****     if (pool_id->markers[index] == 0) {
 1975              		.loc 1 999 0
 1976 005a 7B68     		ldr	r3, [r7, #4]
 1977 005c 5A68     		ldr	r2, [r3, #4]
 1978 005e BB69     		ldr	r3, [r7, #24]
 1979 0060 1344     		add	r3, r3, r2
 1980 0062 1B78     		ldrb	r3, [r3]	@ zero_extendqisi2
 1981 0064 002B     		cmp	r3, #0
 1982 0066 13D1     		bne	.L134
1000:Middlewares/Third_Party/FreeRTOS/Source/CMSIS_RTOS/cmsis_os.c ****       pool_id->markers[index] = 1;
 1983              		.loc 1 1000 0
 1984 0068 7B68     		ldr	r3, [r7, #4]
 1985 006a 5A68     		ldr	r2, [r3, #4]
ARM GAS  /tmp/ccVQttFk.s 			page 59


 1986 006c BB69     		ldr	r3, [r7, #24]
 1987 006e 1344     		add	r3, r3, r2
 1988 0070 0122     		movs	r2, #1
 1989 0072 1A70     		strb	r2, [r3]
1001:Middlewares/Third_Party/FreeRTOS/Source/CMSIS_RTOS/cmsis_os.c ****       p = (void *)((uint32_t)(pool_id->pool) + (index * pool_id->item_sz));
 1990              		.loc 1 1001 0
 1991 0074 7B68     		ldr	r3, [r7, #4]
 1992 0076 1B68     		ldr	r3, [r3]
 1993 0078 1946     		mov	r1, r3
 1994 007a 7B68     		ldr	r3, [r7, #4]
 1995 007c DB68     		ldr	r3, [r3, #12]
 1996 007e BA69     		ldr	r2, [r7, #24]
 1997 0080 02FB03F3 		mul	r3, r2, r3
 1998 0084 0B44     		add	r3, r3, r1
 1999 0086 3B62     		str	r3, [r7, #32]
1002:Middlewares/Third_Party/FreeRTOS/Source/CMSIS_RTOS/cmsis_os.c ****       pool_id->currentIndex = index;
 2000              		.loc 1 1002 0
 2001 0088 7B68     		ldr	r3, [r7, #4]
 2002 008a BA69     		ldr	r2, [r7, #24]
 2003 008c 1A61     		str	r2, [r3, #16]
1003:Middlewares/Third_Party/FreeRTOS/Source/CMSIS_RTOS/cmsis_os.c ****       break;
 2004              		.loc 1 1003 0
 2005 008e 07E0     		b	.L135
 2006              	.L134:
 993:Middlewares/Third_Party/FreeRTOS/Source/CMSIS_RTOS/cmsis_os.c ****     index = pool_id->currentIndex + i;
 2007              		.loc 1 993 0 discriminator 2
 2008 0090 FB69     		ldr	r3, [r7, #28]
 2009 0092 0133     		adds	r3, r3, #1
 2010 0094 FB61     		str	r3, [r7, #28]
 2011              	.L132:
 993:Middlewares/Third_Party/FreeRTOS/Source/CMSIS_RTOS/cmsis_os.c ****     index = pool_id->currentIndex + i;
 2012              		.loc 1 993 0 is_stmt 0 discriminator 1
 2013 0096 7B68     		ldr	r3, [r7, #4]
 2014 0098 9A68     		ldr	r2, [r3, #8]
 2015 009a FB69     		ldr	r3, [r7, #28]
 2016 009c 9A42     		cmp	r2, r3
 2017 009e D0D8     		bhi	.L136
 2018              	.L135:
1004:Middlewares/Third_Party/FreeRTOS/Source/CMSIS_RTOS/cmsis_os.c ****     }
1005:Middlewares/Third_Party/FreeRTOS/Source/CMSIS_RTOS/cmsis_os.c ****   }
1006:Middlewares/Third_Party/FreeRTOS/Source/CMSIS_RTOS/cmsis_os.c ****   
1007:Middlewares/Third_Party/FreeRTOS/Source/CMSIS_RTOS/cmsis_os.c ****   if (inHandlerMode()) {
 2019              		.loc 1 1007 0 is_stmt 1
 2020 00a0 FFF7FEFF 		bl	inHandlerMode
 2021 00a4 0346     		mov	r3, r0
 2022 00a6 002B     		cmp	r3, #0
 2023 00a8 05D0     		beq	.L137
1008:Middlewares/Third_Party/FreeRTOS/Source/CMSIS_RTOS/cmsis_os.c ****     portCLEAR_INTERRUPT_MASK_FROM_ISR(dummy);
 2024              		.loc 1 1008 0
 2025 00aa 7B6A     		ldr	r3, [r7, #36]
 2026 00ac FB60     		str	r3, [r7, #12]
 2027              	.LBB12:
 2028              	.LBB13:
 266:Middlewares/Third_Party/FreeRTOS/Source/portable/GCC/ARM_CM4F/portmacro.h **** }
 267:Middlewares/Third_Party/FreeRTOS/Source/portable/GCC/ARM_CM4F/portmacro.h **** /*-----------------------------------------------------------*/
 268:Middlewares/Third_Party/FreeRTOS/Source/portable/GCC/ARM_CM4F/portmacro.h **** 
 269:Middlewares/Third_Party/FreeRTOS/Source/portable/GCC/ARM_CM4F/portmacro.h **** portFORCE_INLINE static void vPortSetBASEPRI( uint32_t ulNewMaskValue )
ARM GAS  /tmp/ccVQttFk.s 			page 60


 270:Middlewares/Third_Party/FreeRTOS/Source/portable/GCC/ARM_CM4F/portmacro.h **** {
 271:Middlewares/Third_Party/FreeRTOS/Source/portable/GCC/ARM_CM4F/portmacro.h **** 	__asm volatile
 2029              		.loc 3 271 0
 2030 00ae FB68     		ldr	r3, [r7, #12]
 2031              	@ 271 "Middlewares/Third_Party/FreeRTOS/Source/portable/GCC/ARM_CM4F/portmacro.h" 1
 2032 00b0 83F31188 			msr basepri, r3	
 2033              	@ 0 "" 2
 2034              		.thumb
 2035              	.LBE13:
 2036              	.LBE12:
 2037 00b4 01E0     		b	.L138
 2038              	.L137:
1009:Middlewares/Third_Party/FreeRTOS/Source/CMSIS_RTOS/cmsis_os.c ****   }
1010:Middlewares/Third_Party/FreeRTOS/Source/CMSIS_RTOS/cmsis_os.c ****   else {
1011:Middlewares/Third_Party/FreeRTOS/Source/CMSIS_RTOS/cmsis_os.c ****     vPortExitCritical();
 2039              		.loc 1 1011 0
 2040 00b6 FFF7FEFF 		bl	vPortExitCritical
 2041              	.L138:
1012:Middlewares/Third_Party/FreeRTOS/Source/CMSIS_RTOS/cmsis_os.c ****   }
1013:Middlewares/Third_Party/FreeRTOS/Source/CMSIS_RTOS/cmsis_os.c ****   
1014:Middlewares/Third_Party/FreeRTOS/Source/CMSIS_RTOS/cmsis_os.c ****   return p;
 2042              		.loc 1 1014 0
 2043 00ba 3B6A     		ldr	r3, [r7, #32]
1015:Middlewares/Third_Party/FreeRTOS/Source/CMSIS_RTOS/cmsis_os.c **** }
 2044              		.loc 1 1015 0
 2045 00bc 1846     		mov	r0, r3
 2046 00be 2837     		adds	r7, r7, #40
 2047              	.LCFI137:
 2048              		.cfi_def_cfa_offset 8
 2049 00c0 BD46     		mov	sp, r7
 2050              	.LCFI138:
 2051              		.cfi_def_cfa_register 13
 2052              		@ sp needed
 2053 00c2 80BD     		pop	{r7, pc}
 2054              		.cfi_endproc
 2055              	.LFE58:
 2057              		.section	.text.osPoolCAlloc,"ax",%progbits
 2058              		.align	2
 2059              		.global	osPoolCAlloc
 2060              		.thumb
 2061              		.thumb_func
 2063              	osPoolCAlloc:
 2064              	.LFB59:
1016:Middlewares/Third_Party/FreeRTOS/Source/CMSIS_RTOS/cmsis_os.c **** 
1017:Middlewares/Third_Party/FreeRTOS/Source/CMSIS_RTOS/cmsis_os.c **** /**
1018:Middlewares/Third_Party/FreeRTOS/Source/CMSIS_RTOS/cmsis_os.c **** * @brief Allocate a memory block from a memory pool and set memory block to zero
1019:Middlewares/Third_Party/FreeRTOS/Source/CMSIS_RTOS/cmsis_os.c **** * @param  pool_id       memory pool ID obtain referenced with \ref osPoolCreate.
1020:Middlewares/Third_Party/FreeRTOS/Source/CMSIS_RTOS/cmsis_os.c **** * @retval  address of the allocated memory block or NULL in case of no memory available.
1021:Middlewares/Third_Party/FreeRTOS/Source/CMSIS_RTOS/cmsis_os.c **** * @note   MUST REMAIN UNCHANGED: \b osPoolCAlloc shall be consistent in every CMSIS-RTOS.
1022:Middlewares/Third_Party/FreeRTOS/Source/CMSIS_RTOS/cmsis_os.c **** */
1023:Middlewares/Third_Party/FreeRTOS/Source/CMSIS_RTOS/cmsis_os.c **** void *osPoolCAlloc (osPoolId pool_id)
1024:Middlewares/Third_Party/FreeRTOS/Source/CMSIS_RTOS/cmsis_os.c **** {
 2065              		.loc 1 1024 0
 2066              		.cfi_startproc
 2067              		@ args = 0, pretend = 0, frame = 16
 2068              		@ frame_needed = 1, uses_anonymous_args = 0
 2069 0000 80B5     		push	{r7, lr}
ARM GAS  /tmp/ccVQttFk.s 			page 61


 2070              	.LCFI139:
 2071              		.cfi_def_cfa_offset 8
 2072              		.cfi_offset 7, -8
 2073              		.cfi_offset 14, -4
 2074 0002 84B0     		sub	sp, sp, #16
 2075              	.LCFI140:
 2076              		.cfi_def_cfa_offset 24
 2077 0004 00AF     		add	r7, sp, #0
 2078              	.LCFI141:
 2079              		.cfi_def_cfa_register 7
 2080 0006 7860     		str	r0, [r7, #4]
1025:Middlewares/Third_Party/FreeRTOS/Source/CMSIS_RTOS/cmsis_os.c ****   void *p = osPoolAlloc(pool_id);
 2081              		.loc 1 1025 0
 2082 0008 7868     		ldr	r0, [r7, #4]
 2083 000a FFF7FEFF 		bl	osPoolAlloc
 2084 000e F860     		str	r0, [r7, #12]
1026:Middlewares/Third_Party/FreeRTOS/Source/CMSIS_RTOS/cmsis_os.c ****   
1027:Middlewares/Third_Party/FreeRTOS/Source/CMSIS_RTOS/cmsis_os.c ****   if (p != NULL)
 2085              		.loc 1 1027 0
 2086 0010 FB68     		ldr	r3, [r7, #12]
 2087 0012 002B     		cmp	r3, #0
 2088 0014 04D0     		beq	.L141
1028:Middlewares/Third_Party/FreeRTOS/Source/CMSIS_RTOS/cmsis_os.c ****   {
1029:Middlewares/Third_Party/FreeRTOS/Source/CMSIS_RTOS/cmsis_os.c ****     memset(p, 0, sizeof(pool_id->pool_sz));
 2089              		.loc 1 1029 0
 2090 0016 F868     		ldr	r0, [r7, #12]
 2091 0018 0021     		movs	r1, #0
 2092 001a 0422     		movs	r2, #4
 2093 001c FFF7FEFF 		bl	memset
 2094              	.L141:
1030:Middlewares/Third_Party/FreeRTOS/Source/CMSIS_RTOS/cmsis_os.c ****   }
1031:Middlewares/Third_Party/FreeRTOS/Source/CMSIS_RTOS/cmsis_os.c ****   
1032:Middlewares/Third_Party/FreeRTOS/Source/CMSIS_RTOS/cmsis_os.c ****   return p;
 2095              		.loc 1 1032 0
 2096 0020 FB68     		ldr	r3, [r7, #12]
1033:Middlewares/Third_Party/FreeRTOS/Source/CMSIS_RTOS/cmsis_os.c **** }
 2097              		.loc 1 1033 0
 2098 0022 1846     		mov	r0, r3
 2099 0024 1037     		adds	r7, r7, #16
 2100              	.LCFI142:
 2101              		.cfi_def_cfa_offset 8
 2102 0026 BD46     		mov	sp, r7
 2103              	.LCFI143:
 2104              		.cfi_def_cfa_register 13
 2105              		@ sp needed
 2106 0028 80BD     		pop	{r7, pc}
 2107              		.cfi_endproc
 2108              	.LFE59:
 2110 002a 00BF     		.section	.text.osPoolFree,"ax",%progbits
 2111              		.align	2
 2112              		.global	osPoolFree
 2113              		.thumb
 2114              		.thumb_func
 2116              	osPoolFree:
 2117              	.LFB60:
1034:Middlewares/Third_Party/FreeRTOS/Source/CMSIS_RTOS/cmsis_os.c **** 
1035:Middlewares/Third_Party/FreeRTOS/Source/CMSIS_RTOS/cmsis_os.c **** /**
ARM GAS  /tmp/ccVQttFk.s 			page 62


1036:Middlewares/Third_Party/FreeRTOS/Source/CMSIS_RTOS/cmsis_os.c **** * @brief Return an allocated memory block back to a specific memory pool
1037:Middlewares/Third_Party/FreeRTOS/Source/CMSIS_RTOS/cmsis_os.c **** * @param  pool_id       memory pool ID obtain referenced with \ref osPoolCreate.
1038:Middlewares/Third_Party/FreeRTOS/Source/CMSIS_RTOS/cmsis_os.c **** * @param  block         address of the allocated memory block that is returned to the memory pool.
1039:Middlewares/Third_Party/FreeRTOS/Source/CMSIS_RTOS/cmsis_os.c **** * @retval  status code that indicates the execution status of the function.
1040:Middlewares/Third_Party/FreeRTOS/Source/CMSIS_RTOS/cmsis_os.c **** * @note   MUST REMAIN UNCHANGED: \b osPoolFree shall be consistent in every CMSIS-RTOS.
1041:Middlewares/Third_Party/FreeRTOS/Source/CMSIS_RTOS/cmsis_os.c **** */
1042:Middlewares/Third_Party/FreeRTOS/Source/CMSIS_RTOS/cmsis_os.c **** osStatus osPoolFree (osPoolId pool_id, void *block)
1043:Middlewares/Third_Party/FreeRTOS/Source/CMSIS_RTOS/cmsis_os.c **** {
 2118              		.loc 1 1043 0
 2119              		.cfi_startproc
 2120              		@ args = 0, pretend = 0, frame = 16
 2121              		@ frame_needed = 1, uses_anonymous_args = 0
 2122              		@ link register save eliminated.
 2123 0000 80B4     		push	{r7}
 2124              	.LCFI144:
 2125              		.cfi_def_cfa_offset 4
 2126              		.cfi_offset 7, -4
 2127 0002 85B0     		sub	sp, sp, #20
 2128              	.LCFI145:
 2129              		.cfi_def_cfa_offset 24
 2130 0004 00AF     		add	r7, sp, #0
 2131              	.LCFI146:
 2132              		.cfi_def_cfa_register 7
 2133 0006 7860     		str	r0, [r7, #4]
 2134 0008 3960     		str	r1, [r7]
1044:Middlewares/Third_Party/FreeRTOS/Source/CMSIS_RTOS/cmsis_os.c ****   uint32_t index;
1045:Middlewares/Third_Party/FreeRTOS/Source/CMSIS_RTOS/cmsis_os.c ****   
1046:Middlewares/Third_Party/FreeRTOS/Source/CMSIS_RTOS/cmsis_os.c ****   if (pool_id == NULL) {
 2135              		.loc 1 1046 0
 2136 000a 7B68     		ldr	r3, [r7, #4]
 2137 000c 002B     		cmp	r3, #0
 2138 000e 01D1     		bne	.L144
1047:Middlewares/Third_Party/FreeRTOS/Source/CMSIS_RTOS/cmsis_os.c ****     return osErrorParameter;
 2139              		.loc 1 1047 0
 2140 0010 8023     		movs	r3, #128
 2141 0012 30E0     		b	.L145
 2142              	.L144:
1048:Middlewares/Third_Party/FreeRTOS/Source/CMSIS_RTOS/cmsis_os.c ****   }
1049:Middlewares/Third_Party/FreeRTOS/Source/CMSIS_RTOS/cmsis_os.c ****   
1050:Middlewares/Third_Party/FreeRTOS/Source/CMSIS_RTOS/cmsis_os.c ****   if (block == NULL) {
 2143              		.loc 1 1050 0
 2144 0014 3B68     		ldr	r3, [r7]
 2145 0016 002B     		cmp	r3, #0
 2146 0018 01D1     		bne	.L146
1051:Middlewares/Third_Party/FreeRTOS/Source/CMSIS_RTOS/cmsis_os.c ****     return osErrorParameter;
 2147              		.loc 1 1051 0
 2148 001a 8023     		movs	r3, #128
 2149 001c 2BE0     		b	.L145
 2150              	.L146:
1052:Middlewares/Third_Party/FreeRTOS/Source/CMSIS_RTOS/cmsis_os.c ****   }
1053:Middlewares/Third_Party/FreeRTOS/Source/CMSIS_RTOS/cmsis_os.c ****   
1054:Middlewares/Third_Party/FreeRTOS/Source/CMSIS_RTOS/cmsis_os.c ****   if (block < pool_id->pool) {
 2151              		.loc 1 1054 0
 2152 001e 7B68     		ldr	r3, [r7, #4]
 2153 0020 1A68     		ldr	r2, [r3]
 2154 0022 3B68     		ldr	r3, [r7]
 2155 0024 9A42     		cmp	r2, r3
ARM GAS  /tmp/ccVQttFk.s 			page 63


 2156 0026 01D9     		bls	.L147
1055:Middlewares/Third_Party/FreeRTOS/Source/CMSIS_RTOS/cmsis_os.c ****     return osErrorParameter;
 2157              		.loc 1 1055 0
 2158 0028 8023     		movs	r3, #128
 2159 002a 24E0     		b	.L145
 2160              	.L147:
1056:Middlewares/Third_Party/FreeRTOS/Source/CMSIS_RTOS/cmsis_os.c ****   }
1057:Middlewares/Third_Party/FreeRTOS/Source/CMSIS_RTOS/cmsis_os.c ****   
1058:Middlewares/Third_Party/FreeRTOS/Source/CMSIS_RTOS/cmsis_os.c ****   index = (uint32_t)block - (uint32_t)(pool_id->pool);
 2161              		.loc 1 1058 0
 2162 002c 3B68     		ldr	r3, [r7]
 2163 002e 7A68     		ldr	r2, [r7, #4]
 2164 0030 1268     		ldr	r2, [r2]
 2165 0032 9B1A     		subs	r3, r3, r2
 2166 0034 FB60     		str	r3, [r7, #12]
1059:Middlewares/Third_Party/FreeRTOS/Source/CMSIS_RTOS/cmsis_os.c ****   if (index % pool_id->item_sz) {
 2167              		.loc 1 1059 0
 2168 0036 7B68     		ldr	r3, [r7, #4]
 2169 0038 DA68     		ldr	r2, [r3, #12]
 2170 003a FB68     		ldr	r3, [r7, #12]
 2171 003c B3FBF2F1 		udiv	r1, r3, r2
 2172 0040 02FB01F2 		mul	r2, r2, r1
 2173 0044 9B1A     		subs	r3, r3, r2
 2174 0046 002B     		cmp	r3, #0
 2175 0048 01D0     		beq	.L148
1060:Middlewares/Third_Party/FreeRTOS/Source/CMSIS_RTOS/cmsis_os.c ****     return osErrorParameter;
 2176              		.loc 1 1060 0
 2177 004a 8023     		movs	r3, #128
 2178 004c 13E0     		b	.L145
 2179              	.L148:
1061:Middlewares/Third_Party/FreeRTOS/Source/CMSIS_RTOS/cmsis_os.c ****   }
1062:Middlewares/Third_Party/FreeRTOS/Source/CMSIS_RTOS/cmsis_os.c ****   index = index / pool_id->item_sz;
 2180              		.loc 1 1062 0
 2181 004e 7B68     		ldr	r3, [r7, #4]
 2182 0050 DB68     		ldr	r3, [r3, #12]
 2183 0052 FA68     		ldr	r2, [r7, #12]
 2184 0054 B2FBF3F3 		udiv	r3, r2, r3
 2185 0058 FB60     		str	r3, [r7, #12]
1063:Middlewares/Third_Party/FreeRTOS/Source/CMSIS_RTOS/cmsis_os.c ****   if (index >= pool_id->pool_sz) {
 2186              		.loc 1 1063 0
 2187 005a 7B68     		ldr	r3, [r7, #4]
 2188 005c 9A68     		ldr	r2, [r3, #8]
 2189 005e FB68     		ldr	r3, [r7, #12]
 2190 0060 9A42     		cmp	r2, r3
 2191 0062 01D8     		bhi	.L149
1064:Middlewares/Third_Party/FreeRTOS/Source/CMSIS_RTOS/cmsis_os.c ****     return osErrorParameter;
 2192              		.loc 1 1064 0
 2193 0064 8023     		movs	r3, #128
 2194 0066 06E0     		b	.L145
 2195              	.L149:
1065:Middlewares/Third_Party/FreeRTOS/Source/CMSIS_RTOS/cmsis_os.c ****   }
1066:Middlewares/Third_Party/FreeRTOS/Source/CMSIS_RTOS/cmsis_os.c ****   
1067:Middlewares/Third_Party/FreeRTOS/Source/CMSIS_RTOS/cmsis_os.c ****   pool_id->markers[index] = 0;
 2196              		.loc 1 1067 0
 2197 0068 7B68     		ldr	r3, [r7, #4]
 2198 006a 5A68     		ldr	r2, [r3, #4]
 2199 006c FB68     		ldr	r3, [r7, #12]
ARM GAS  /tmp/ccVQttFk.s 			page 64


 2200 006e 1344     		add	r3, r3, r2
 2201 0070 0022     		movs	r2, #0
 2202 0072 1A70     		strb	r2, [r3]
1068:Middlewares/Third_Party/FreeRTOS/Source/CMSIS_RTOS/cmsis_os.c ****   
1069:Middlewares/Third_Party/FreeRTOS/Source/CMSIS_RTOS/cmsis_os.c ****   return osOK;
 2203              		.loc 1 1069 0
 2204 0074 0023     		movs	r3, #0
 2205              	.L145:
1070:Middlewares/Third_Party/FreeRTOS/Source/CMSIS_RTOS/cmsis_os.c **** }
 2206              		.loc 1 1070 0
 2207 0076 1846     		mov	r0, r3
 2208 0078 1437     		adds	r7, r7, #20
 2209              	.LCFI147:
 2210              		.cfi_def_cfa_offset 4
 2211 007a BD46     		mov	sp, r7
 2212              	.LCFI148:
 2213              		.cfi_def_cfa_register 13
 2214              		@ sp needed
 2215 007c 5DF8047B 		ldr	r7, [sp], #4
 2216              	.LCFI149:
 2217              		.cfi_restore 7
 2218              		.cfi_def_cfa_offset 0
 2219 0080 7047     		bx	lr
 2220              		.cfi_endproc
 2221              	.LFE60:
 2223 0082 00BF     		.section	.text.osMessageCreate,"ax",%progbits
 2224              		.align	2
 2225              		.global	osMessageCreate
 2226              		.thumb
 2227              		.thumb_func
 2229              	osMessageCreate:
 2230              	.LFB61:
1071:Middlewares/Third_Party/FreeRTOS/Source/CMSIS_RTOS/cmsis_os.c **** 
1072:Middlewares/Third_Party/FreeRTOS/Source/CMSIS_RTOS/cmsis_os.c **** 
1073:Middlewares/Third_Party/FreeRTOS/Source/CMSIS_RTOS/cmsis_os.c **** #endif   /* Use Memory Pool Management */
1074:Middlewares/Third_Party/FreeRTOS/Source/CMSIS_RTOS/cmsis_os.c **** 
1075:Middlewares/Third_Party/FreeRTOS/Source/CMSIS_RTOS/cmsis_os.c **** /*******************   Message Queue Management Functions  *********************/
1076:Middlewares/Third_Party/FreeRTOS/Source/CMSIS_RTOS/cmsis_os.c **** 
1077:Middlewares/Third_Party/FreeRTOS/Source/CMSIS_RTOS/cmsis_os.c **** #if (defined (osFeature_MessageQ)  &&  (osFeature_MessageQ != 0)) /* Use Message Queues */
1078:Middlewares/Third_Party/FreeRTOS/Source/CMSIS_RTOS/cmsis_os.c **** 
1079:Middlewares/Third_Party/FreeRTOS/Source/CMSIS_RTOS/cmsis_os.c **** /**
1080:Middlewares/Third_Party/FreeRTOS/Source/CMSIS_RTOS/cmsis_os.c **** * @brief Create and Initialize a Message Queue
1081:Middlewares/Third_Party/FreeRTOS/Source/CMSIS_RTOS/cmsis_os.c **** * @param queue_def     queue definition referenced with \ref osMessageQ.
1082:Middlewares/Third_Party/FreeRTOS/Source/CMSIS_RTOS/cmsis_os.c **** * @param  thread_id     thread ID (obtained by \ref osThreadCreate or \ref osThreadGetId) or NULL.
1083:Middlewares/Third_Party/FreeRTOS/Source/CMSIS_RTOS/cmsis_os.c **** * @retval  message queue ID for reference by other functions or NULL in case of error.
1084:Middlewares/Third_Party/FreeRTOS/Source/CMSIS_RTOS/cmsis_os.c **** * @note   MUST REMAIN UNCHANGED: \b osMessageCreate shall be consistent in every CMSIS-RTOS.
1085:Middlewares/Third_Party/FreeRTOS/Source/CMSIS_RTOS/cmsis_os.c **** */
1086:Middlewares/Third_Party/FreeRTOS/Source/CMSIS_RTOS/cmsis_os.c **** osMessageQId osMessageCreate (const osMessageQDef_t *queue_def, osThreadId thread_id)
1087:Middlewares/Third_Party/FreeRTOS/Source/CMSIS_RTOS/cmsis_os.c **** {
 2231              		.loc 1 1087 0
 2232              		.cfi_startproc
 2233              		@ args = 0, pretend = 0, frame = 8
 2234              		@ frame_needed = 1, uses_anonymous_args = 0
 2235 0000 80B5     		push	{r7, lr}
 2236              	.LCFI150:
 2237              		.cfi_def_cfa_offset 8
 2238              		.cfi_offset 7, -8
ARM GAS  /tmp/ccVQttFk.s 			page 65


 2239              		.cfi_offset 14, -4
 2240 0002 82B0     		sub	sp, sp, #8
 2241              	.LCFI151:
 2242              		.cfi_def_cfa_offset 16
 2243 0004 00AF     		add	r7, sp, #0
 2244              	.LCFI152:
 2245              		.cfi_def_cfa_register 7
 2246 0006 7860     		str	r0, [r7, #4]
 2247 0008 3960     		str	r1, [r7]
1088:Middlewares/Third_Party/FreeRTOS/Source/CMSIS_RTOS/cmsis_os.c ****   (void) thread_id;
1089:Middlewares/Third_Party/FreeRTOS/Source/CMSIS_RTOS/cmsis_os.c ****   
1090:Middlewares/Third_Party/FreeRTOS/Source/CMSIS_RTOS/cmsis_os.c **** #if( configSUPPORT_STATIC_ALLOCATION == 1 ) && ( configSUPPORT_DYNAMIC_ALLOCATION == 1 )
1091:Middlewares/Third_Party/FreeRTOS/Source/CMSIS_RTOS/cmsis_os.c **** 
1092:Middlewares/Third_Party/FreeRTOS/Source/CMSIS_RTOS/cmsis_os.c ****   if ((queue_def->buffer != NULL) && (queue_def->controlblock != NULL)) {
1093:Middlewares/Third_Party/FreeRTOS/Source/CMSIS_RTOS/cmsis_os.c ****     return xQueueCreateStatic(queue_def->queue_sz, queue_def->item_sz, queue_def->buffer, queue_def
1094:Middlewares/Third_Party/FreeRTOS/Source/CMSIS_RTOS/cmsis_os.c ****   }
1095:Middlewares/Third_Party/FreeRTOS/Source/CMSIS_RTOS/cmsis_os.c ****   else {
1096:Middlewares/Third_Party/FreeRTOS/Source/CMSIS_RTOS/cmsis_os.c ****     return xQueueCreate(queue_def->queue_sz, queue_def->item_sz);
1097:Middlewares/Third_Party/FreeRTOS/Source/CMSIS_RTOS/cmsis_os.c ****   }
1098:Middlewares/Third_Party/FreeRTOS/Source/CMSIS_RTOS/cmsis_os.c **** #elif ( configSUPPORT_STATIC_ALLOCATION == 1 )
1099:Middlewares/Third_Party/FreeRTOS/Source/CMSIS_RTOS/cmsis_os.c ****   return xQueueCreateStatic(queue_def->queue_sz, queue_def->item_sz, queue_def->buffer, queue_def->
1100:Middlewares/Third_Party/FreeRTOS/Source/CMSIS_RTOS/cmsis_os.c **** #else  
1101:Middlewares/Third_Party/FreeRTOS/Source/CMSIS_RTOS/cmsis_os.c ****   return xQueueCreate(queue_def->queue_sz, queue_def->item_sz);
 2248              		.loc 1 1101 0
 2249 000a 7B68     		ldr	r3, [r7, #4]
 2250 000c 1A68     		ldr	r2, [r3]
 2251 000e 7B68     		ldr	r3, [r7, #4]
 2252 0010 5B68     		ldr	r3, [r3, #4]
 2253 0012 1046     		mov	r0, r2
 2254 0014 1946     		mov	r1, r3
 2255 0016 0022     		movs	r2, #0
 2256 0018 FFF7FEFF 		bl	xQueueGenericCreate
 2257 001c 0346     		mov	r3, r0
1102:Middlewares/Third_Party/FreeRTOS/Source/CMSIS_RTOS/cmsis_os.c **** #endif
1103:Middlewares/Third_Party/FreeRTOS/Source/CMSIS_RTOS/cmsis_os.c **** }
 2258              		.loc 1 1103 0
 2259 001e 1846     		mov	r0, r3
 2260 0020 0837     		adds	r7, r7, #8
 2261              	.LCFI153:
 2262              		.cfi_def_cfa_offset 8
 2263 0022 BD46     		mov	sp, r7
 2264              	.LCFI154:
 2265              		.cfi_def_cfa_register 13
 2266              		@ sp needed
 2267 0024 80BD     		pop	{r7, pc}
 2268              		.cfi_endproc
 2269              	.LFE61:
 2271 0026 00BF     		.section	.text.osMessagePut,"ax",%progbits
 2272              		.align	2
 2273              		.global	osMessagePut
 2274              		.thumb
 2275              		.thumb_func
 2277              	osMessagePut:
 2278              	.LFB62:
1104:Middlewares/Third_Party/FreeRTOS/Source/CMSIS_RTOS/cmsis_os.c **** 
1105:Middlewares/Third_Party/FreeRTOS/Source/CMSIS_RTOS/cmsis_os.c **** /**
1106:Middlewares/Third_Party/FreeRTOS/Source/CMSIS_RTOS/cmsis_os.c **** * @brief Put a Message to a Queue.
ARM GAS  /tmp/ccVQttFk.s 			page 66


1107:Middlewares/Third_Party/FreeRTOS/Source/CMSIS_RTOS/cmsis_os.c **** * @param  queue_id  message queue ID obtained with \ref osMessageCreate.
1108:Middlewares/Third_Party/FreeRTOS/Source/CMSIS_RTOS/cmsis_os.c **** * @param  info      message information.
1109:Middlewares/Third_Party/FreeRTOS/Source/CMSIS_RTOS/cmsis_os.c **** * @param  millisec  timeout value or 0 in case of no time-out.
1110:Middlewares/Third_Party/FreeRTOS/Source/CMSIS_RTOS/cmsis_os.c **** * @retval status code that indicates the execution status of the function.
1111:Middlewares/Third_Party/FreeRTOS/Source/CMSIS_RTOS/cmsis_os.c **** * @note   MUST REMAIN UNCHANGED: \b osMessagePut shall be consistent in every CMSIS-RTOS.
1112:Middlewares/Third_Party/FreeRTOS/Source/CMSIS_RTOS/cmsis_os.c **** */
1113:Middlewares/Third_Party/FreeRTOS/Source/CMSIS_RTOS/cmsis_os.c **** osStatus osMessagePut (osMessageQId queue_id, uint32_t info, uint32_t millisec)
1114:Middlewares/Third_Party/FreeRTOS/Source/CMSIS_RTOS/cmsis_os.c **** {
 2279              		.loc 1 1114 0
 2280              		.cfi_startproc
 2281              		@ args = 0, pretend = 0, frame = 24
 2282              		@ frame_needed = 1, uses_anonymous_args = 0
 2283 0000 80B5     		push	{r7, lr}
 2284              	.LCFI155:
 2285              		.cfi_def_cfa_offset 8
 2286              		.cfi_offset 7, -8
 2287              		.cfi_offset 14, -4
 2288 0002 86B0     		sub	sp, sp, #24
 2289              	.LCFI156:
 2290              		.cfi_def_cfa_offset 32
 2291 0004 00AF     		add	r7, sp, #0
 2292              	.LCFI157:
 2293              		.cfi_def_cfa_register 7
 2294 0006 F860     		str	r0, [r7, #12]
 2295 0008 B960     		str	r1, [r7, #8]
 2296 000a 7A60     		str	r2, [r7, #4]
1115:Middlewares/Third_Party/FreeRTOS/Source/CMSIS_RTOS/cmsis_os.c ****   portBASE_TYPE taskWoken = pdFALSE;
 2297              		.loc 1 1115 0
 2298 000c 0023     		movs	r3, #0
 2299 000e 3B61     		str	r3, [r7, #16]
1116:Middlewares/Third_Party/FreeRTOS/Source/CMSIS_RTOS/cmsis_os.c ****   TickType_t ticks;
1117:Middlewares/Third_Party/FreeRTOS/Source/CMSIS_RTOS/cmsis_os.c ****   
1118:Middlewares/Third_Party/FreeRTOS/Source/CMSIS_RTOS/cmsis_os.c ****   ticks = millisec / portTICK_PERIOD_MS;
 2300              		.loc 1 1118 0
 2301 0010 7B68     		ldr	r3, [r7, #4]
 2302 0012 7B61     		str	r3, [r7, #20]
1119:Middlewares/Third_Party/FreeRTOS/Source/CMSIS_RTOS/cmsis_os.c ****   if (ticks == 0) {
 2303              		.loc 1 1119 0
 2304 0014 7B69     		ldr	r3, [r7, #20]
 2305 0016 002B     		cmp	r3, #0
 2306 0018 01D1     		bne	.L153
1120:Middlewares/Third_Party/FreeRTOS/Source/CMSIS_RTOS/cmsis_os.c ****     ticks = 1;
 2307              		.loc 1 1120 0
 2308 001a 0123     		movs	r3, #1
 2309 001c 7B61     		str	r3, [r7, #20]
 2310              	.L153:
1121:Middlewares/Third_Party/FreeRTOS/Source/CMSIS_RTOS/cmsis_os.c ****   }
1122:Middlewares/Third_Party/FreeRTOS/Source/CMSIS_RTOS/cmsis_os.c ****   
1123:Middlewares/Third_Party/FreeRTOS/Source/CMSIS_RTOS/cmsis_os.c ****   if (inHandlerMode()) {
 2311              		.loc 1 1123 0
 2312 001e FFF7FEFF 		bl	inHandlerMode
 2313 0022 0346     		mov	r3, r0
 2314 0024 002B     		cmp	r3, #0
 2315 0026 1AD0     		beq	.L154
1124:Middlewares/Third_Party/FreeRTOS/Source/CMSIS_RTOS/cmsis_os.c ****     if (xQueueSendFromISR(queue_id, &info, &taskWoken) != pdTRUE) {
 2316              		.loc 1 1124 0
 2317 0028 07F10802 		add	r2, r7, #8
ARM GAS  /tmp/ccVQttFk.s 			page 67


 2318 002c 07F11003 		add	r3, r7, #16
 2319 0030 F868     		ldr	r0, [r7, #12]
 2320 0032 1146     		mov	r1, r2
 2321 0034 1A46     		mov	r2, r3
 2322 0036 0023     		movs	r3, #0
 2323 0038 FFF7FEFF 		bl	xQueueGenericSendFromISR
 2324 003c 0346     		mov	r3, r0
 2325 003e 012B     		cmp	r3, #1
 2326 0040 01D0     		beq	.L155
1125:Middlewares/Third_Party/FreeRTOS/Source/CMSIS_RTOS/cmsis_os.c ****       return osErrorOS;
 2327              		.loc 1 1125 0
 2328 0042 FF23     		movs	r3, #255
 2329 0044 19E0     		b	.L159
 2330              	.L155:
1126:Middlewares/Third_Party/FreeRTOS/Source/CMSIS_RTOS/cmsis_os.c ****     }
1127:Middlewares/Third_Party/FreeRTOS/Source/CMSIS_RTOS/cmsis_os.c ****     portEND_SWITCHING_ISR(taskWoken);
 2331              		.loc 1 1127 0
 2332 0046 3B69     		ldr	r3, [r7, #16]
 2333 0048 002B     		cmp	r3, #0
 2334 004a 15D0     		beq	.L158
 2335              		.loc 1 1127 0 is_stmt 0 discriminator 1
 2336 004c 0D4B     		ldr	r3, .L160
 2337 004e 4FF08052 		mov	r2, #268435456
 2338 0052 1A60     		str	r2, [r3]
 2339              	@ 1127 "Middlewares/Third_Party/FreeRTOS/Source/CMSIS_RTOS/cmsis_os.c" 1
 2340 0054 BFF34F8F 		dsb
 2341              	@ 0 "" 2
 2342              	@ 1127 "Middlewares/Third_Party/FreeRTOS/Source/CMSIS_RTOS/cmsis_os.c" 1
 2343 0058 BFF36F8F 		isb
 2344              	@ 0 "" 2
 2345              		.thumb
 2346 005c 0CE0     		b	.L158
 2347              	.L154:
1128:Middlewares/Third_Party/FreeRTOS/Source/CMSIS_RTOS/cmsis_os.c ****   }
1129:Middlewares/Third_Party/FreeRTOS/Source/CMSIS_RTOS/cmsis_os.c ****   else {
1130:Middlewares/Third_Party/FreeRTOS/Source/CMSIS_RTOS/cmsis_os.c ****     if (xQueueSend(queue_id, &info, ticks) != pdTRUE) {
 2348              		.loc 1 1130 0 is_stmt 1
 2349 005e 07F10803 		add	r3, r7, #8
 2350 0062 F868     		ldr	r0, [r7, #12]
 2351 0064 1946     		mov	r1, r3
 2352 0066 7A69     		ldr	r2, [r7, #20]
 2353 0068 0023     		movs	r3, #0
 2354 006a FFF7FEFF 		bl	xQueueGenericSend
 2355 006e 0346     		mov	r3, r0
 2356 0070 012B     		cmp	r3, #1
 2357 0072 01D0     		beq	.L158
1131:Middlewares/Third_Party/FreeRTOS/Source/CMSIS_RTOS/cmsis_os.c ****       return osErrorOS;
 2358              		.loc 1 1131 0
 2359 0074 FF23     		movs	r3, #255
 2360 0076 00E0     		b	.L159
 2361              	.L158:
1132:Middlewares/Third_Party/FreeRTOS/Source/CMSIS_RTOS/cmsis_os.c ****     }
1133:Middlewares/Third_Party/FreeRTOS/Source/CMSIS_RTOS/cmsis_os.c ****   }
1134:Middlewares/Third_Party/FreeRTOS/Source/CMSIS_RTOS/cmsis_os.c ****   
1135:Middlewares/Third_Party/FreeRTOS/Source/CMSIS_RTOS/cmsis_os.c ****   return osOK;
 2362              		.loc 1 1135 0
 2363 0078 0023     		movs	r3, #0
ARM GAS  /tmp/ccVQttFk.s 			page 68


 2364              	.L159:
1136:Middlewares/Third_Party/FreeRTOS/Source/CMSIS_RTOS/cmsis_os.c **** }
 2365              		.loc 1 1136 0 discriminator 1
 2366 007a 1846     		mov	r0, r3
 2367 007c 1837     		adds	r7, r7, #24
 2368              	.LCFI158:
 2369              		.cfi_def_cfa_offset 8
 2370 007e BD46     		mov	sp, r7
 2371              	.LCFI159:
 2372              		.cfi_def_cfa_register 13
 2373              		@ sp needed
 2374 0080 80BD     		pop	{r7, pc}
 2375              	.L161:
 2376 0082 00BF     		.align	2
 2377              	.L160:
 2378 0084 04ED00E0 		.word	-536810236
 2379              		.cfi_endproc
 2380              	.LFE62:
 2382              		.section	.text.osMessageGet,"ax",%progbits
 2383              		.align	2
 2384              		.global	osMessageGet
 2385              		.thumb
 2386              		.thumb_func
 2388              	osMessageGet:
 2389              	.LFB63:
1137:Middlewares/Third_Party/FreeRTOS/Source/CMSIS_RTOS/cmsis_os.c **** 
1138:Middlewares/Third_Party/FreeRTOS/Source/CMSIS_RTOS/cmsis_os.c **** /**
1139:Middlewares/Third_Party/FreeRTOS/Source/CMSIS_RTOS/cmsis_os.c **** * @brief Get a Message or Wait for a Message from a Queue.
1140:Middlewares/Third_Party/FreeRTOS/Source/CMSIS_RTOS/cmsis_os.c **** * @param  queue_id  message queue ID obtained with \ref osMessageCreate.
1141:Middlewares/Third_Party/FreeRTOS/Source/CMSIS_RTOS/cmsis_os.c **** * @param  millisec  timeout value or 0 in case of no time-out.
1142:Middlewares/Third_Party/FreeRTOS/Source/CMSIS_RTOS/cmsis_os.c **** * @retval event information that includes status code.
1143:Middlewares/Third_Party/FreeRTOS/Source/CMSIS_RTOS/cmsis_os.c **** * @note   MUST REMAIN UNCHANGED: \b osMessageGet shall be consistent in every CMSIS-RTOS.
1144:Middlewares/Third_Party/FreeRTOS/Source/CMSIS_RTOS/cmsis_os.c **** */
1145:Middlewares/Third_Party/FreeRTOS/Source/CMSIS_RTOS/cmsis_os.c **** osEvent osMessageGet (osMessageQId queue_id, uint32_t millisec)
1146:Middlewares/Third_Party/FreeRTOS/Source/CMSIS_RTOS/cmsis_os.c **** {
 2390              		.loc 1 1146 0
 2391              		.cfi_startproc
 2392              		@ args = 0, pretend = 0, frame = 40
 2393              		@ frame_needed = 1, uses_anonymous_args = 0
 2394 0000 90B5     		push	{r4, r7, lr}
 2395              	.LCFI160:
 2396              		.cfi_def_cfa_offset 12
 2397              		.cfi_offset 4, -12
 2398              		.cfi_offset 7, -8
 2399              		.cfi_offset 14, -4
 2400 0002 8BB0     		sub	sp, sp, #44
 2401              	.LCFI161:
 2402              		.cfi_def_cfa_offset 56
 2403 0004 00AF     		add	r7, sp, #0
 2404              	.LCFI162:
 2405              		.cfi_def_cfa_register 7
 2406 0006 F860     		str	r0, [r7, #12]
 2407 0008 B960     		str	r1, [r7, #8]
 2408 000a 7A60     		str	r2, [r7, #4]
1147:Middlewares/Third_Party/FreeRTOS/Source/CMSIS_RTOS/cmsis_os.c ****   portBASE_TYPE taskWoken;
1148:Middlewares/Third_Party/FreeRTOS/Source/CMSIS_RTOS/cmsis_os.c ****   TickType_t ticks;
1149:Middlewares/Third_Party/FreeRTOS/Source/CMSIS_RTOS/cmsis_os.c ****   osEvent event;
ARM GAS  /tmp/ccVQttFk.s 			page 69


1150:Middlewares/Third_Party/FreeRTOS/Source/CMSIS_RTOS/cmsis_os.c ****   
1151:Middlewares/Third_Party/FreeRTOS/Source/CMSIS_RTOS/cmsis_os.c ****   event.def.message_id = queue_id;
 2409              		.loc 1 1151 0
 2410 000c BB68     		ldr	r3, [r7, #8]
 2411 000e FB61     		str	r3, [r7, #28]
1152:Middlewares/Third_Party/FreeRTOS/Source/CMSIS_RTOS/cmsis_os.c ****   event.value.v = 0;
 2412              		.loc 1 1152 0
 2413 0010 0023     		movs	r3, #0
 2414 0012 BB61     		str	r3, [r7, #24]
1153:Middlewares/Third_Party/FreeRTOS/Source/CMSIS_RTOS/cmsis_os.c ****   
1154:Middlewares/Third_Party/FreeRTOS/Source/CMSIS_RTOS/cmsis_os.c ****   if (queue_id == NULL) {
 2415              		.loc 1 1154 0
 2416 0014 BB68     		ldr	r3, [r7, #8]
 2417 0016 002B     		cmp	r3, #0
 2418 0018 0AD1     		bne	.L163
1155:Middlewares/Third_Party/FreeRTOS/Source/CMSIS_RTOS/cmsis_os.c ****     event.status = osErrorParameter;
 2419              		.loc 1 1155 0
 2420 001a 8023     		movs	r3, #128
 2421 001c 7B61     		str	r3, [r7, #20]
1156:Middlewares/Third_Party/FreeRTOS/Source/CMSIS_RTOS/cmsis_os.c ****     return event;
 2422              		.loc 1 1156 0
 2423 001e FB68     		ldr	r3, [r7, #12]
 2424 0020 1C46     		mov	r4, r3
 2425 0022 07F11403 		add	r3, r7, #20
 2426 0026 93E80700 		ldmia	r3, {r0, r1, r2}
 2427 002a 84E80700 		stmia	r4, {r0, r1, r2}
 2428 002e 56E0     		b	.L162
 2429              	.L163:
1157:Middlewares/Third_Party/FreeRTOS/Source/CMSIS_RTOS/cmsis_os.c ****   }
1158:Middlewares/Third_Party/FreeRTOS/Source/CMSIS_RTOS/cmsis_os.c ****   
1159:Middlewares/Third_Party/FreeRTOS/Source/CMSIS_RTOS/cmsis_os.c ****   taskWoken = pdFALSE;
 2430              		.loc 1 1159 0
 2431 0030 0023     		movs	r3, #0
 2432 0032 3B62     		str	r3, [r7, #32]
1160:Middlewares/Third_Party/FreeRTOS/Source/CMSIS_RTOS/cmsis_os.c ****   
1161:Middlewares/Third_Party/FreeRTOS/Source/CMSIS_RTOS/cmsis_os.c ****   ticks = 0;
 2433              		.loc 1 1161 0
 2434 0034 0023     		movs	r3, #0
 2435 0036 7B62     		str	r3, [r7, #36]
1162:Middlewares/Third_Party/FreeRTOS/Source/CMSIS_RTOS/cmsis_os.c ****   if (millisec == osWaitForever) {
 2436              		.loc 1 1162 0
 2437 0038 7B68     		ldr	r3, [r7, #4]
 2438 003a B3F1FF3F 		cmp	r3, #-1
 2439 003e 03D1     		bne	.L165
1163:Middlewares/Third_Party/FreeRTOS/Source/CMSIS_RTOS/cmsis_os.c ****     ticks = portMAX_DELAY;
 2440              		.loc 1 1163 0
 2441 0040 4FF0FF33 		mov	r3, #-1
 2442 0044 7B62     		str	r3, [r7, #36]
 2443 0046 09E0     		b	.L166
 2444              	.L165:
1164:Middlewares/Third_Party/FreeRTOS/Source/CMSIS_RTOS/cmsis_os.c ****   }
1165:Middlewares/Third_Party/FreeRTOS/Source/CMSIS_RTOS/cmsis_os.c ****   else if (millisec != 0) {
 2445              		.loc 1 1165 0
 2446 0048 7B68     		ldr	r3, [r7, #4]
 2447 004a 002B     		cmp	r3, #0
 2448 004c 06D0     		beq	.L166
1166:Middlewares/Third_Party/FreeRTOS/Source/CMSIS_RTOS/cmsis_os.c ****     ticks = millisec / portTICK_PERIOD_MS;
ARM GAS  /tmp/ccVQttFk.s 			page 70


 2449              		.loc 1 1166 0
 2450 004e 7B68     		ldr	r3, [r7, #4]
 2451 0050 7B62     		str	r3, [r7, #36]
1167:Middlewares/Third_Party/FreeRTOS/Source/CMSIS_RTOS/cmsis_os.c ****     if (ticks == 0) {
 2452              		.loc 1 1167 0
 2453 0052 7B6A     		ldr	r3, [r7, #36]
 2454 0054 002B     		cmp	r3, #0
 2455 0056 01D1     		bne	.L166
1168:Middlewares/Third_Party/FreeRTOS/Source/CMSIS_RTOS/cmsis_os.c ****       ticks = 1;
 2456              		.loc 1 1168 0
 2457 0058 0123     		movs	r3, #1
 2458 005a 7B62     		str	r3, [r7, #36]
 2459              	.L166:
1169:Middlewares/Third_Party/FreeRTOS/Source/CMSIS_RTOS/cmsis_os.c ****     }
1170:Middlewares/Third_Party/FreeRTOS/Source/CMSIS_RTOS/cmsis_os.c ****   }
1171:Middlewares/Third_Party/FreeRTOS/Source/CMSIS_RTOS/cmsis_os.c ****   
1172:Middlewares/Third_Party/FreeRTOS/Source/CMSIS_RTOS/cmsis_os.c ****   if (inHandlerMode()) {
 2460              		.loc 1 1172 0
 2461 005c FFF7FEFF 		bl	inHandlerMode
 2462 0060 0346     		mov	r3, r0
 2463 0062 002B     		cmp	r3, #0
 2464 0064 1DD0     		beq	.L167
1173:Middlewares/Third_Party/FreeRTOS/Source/CMSIS_RTOS/cmsis_os.c ****     if (xQueueReceiveFromISR(queue_id, &event.value.v, &taskWoken) == pdTRUE) {
 2465              		.loc 1 1173 0
 2466 0066 07F11403 		add	r3, r7, #20
 2467 006a 1A1D     		adds	r2, r3, #4
 2468 006c 07F12003 		add	r3, r7, #32
 2469 0070 B868     		ldr	r0, [r7, #8]
 2470 0072 1146     		mov	r1, r2
 2471 0074 1A46     		mov	r2, r3
 2472 0076 FFF7FEFF 		bl	xQueueReceiveFromISR
 2473 007a 0346     		mov	r3, r0
 2474 007c 012B     		cmp	r3, #1
 2475 007e 02D1     		bne	.L168
1174:Middlewares/Third_Party/FreeRTOS/Source/CMSIS_RTOS/cmsis_os.c ****       /* We have mail */
1175:Middlewares/Third_Party/FreeRTOS/Source/CMSIS_RTOS/cmsis_os.c ****       event.status = osEventMessage;
 2476              		.loc 1 1175 0
 2477 0080 1023     		movs	r3, #16
 2478 0082 7B61     		str	r3, [r7, #20]
 2479 0084 01E0     		b	.L169
 2480              	.L168:
1176:Middlewares/Third_Party/FreeRTOS/Source/CMSIS_RTOS/cmsis_os.c ****     }
1177:Middlewares/Third_Party/FreeRTOS/Source/CMSIS_RTOS/cmsis_os.c ****     else {
1178:Middlewares/Third_Party/FreeRTOS/Source/CMSIS_RTOS/cmsis_os.c ****       event.status = osOK;
 2481              		.loc 1 1178 0
 2482 0086 0023     		movs	r3, #0
 2483 0088 7B61     		str	r3, [r7, #20]
 2484              	.L169:
1179:Middlewares/Third_Party/FreeRTOS/Source/CMSIS_RTOS/cmsis_os.c ****     }
1180:Middlewares/Third_Party/FreeRTOS/Source/CMSIS_RTOS/cmsis_os.c ****     portEND_SWITCHING_ISR(taskWoken);
 2485              		.loc 1 1180 0
 2486 008a 3B6A     		ldr	r3, [r7, #32]
 2487 008c 002B     		cmp	r3, #0
 2488 008e 1ED0     		beq	.L171
 2489              		.loc 1 1180 0 is_stmt 0 discriminator 1
 2490 0090 154B     		ldr	r3, .L176
 2491 0092 4FF08052 		mov	r2, #268435456
ARM GAS  /tmp/ccVQttFk.s 			page 71


 2492 0096 1A60     		str	r2, [r3]
 2493              	@ 1180 "Middlewares/Third_Party/FreeRTOS/Source/CMSIS_RTOS/cmsis_os.c" 1
 2494 0098 BFF34F8F 		dsb
 2495              	@ 0 "" 2
 2496              	@ 1180 "Middlewares/Third_Party/FreeRTOS/Source/CMSIS_RTOS/cmsis_os.c" 1
 2497 009c BFF36F8F 		isb
 2498              	@ 0 "" 2
 2499              		.thumb
 2500 00a0 15E0     		b	.L171
 2501              	.L167:
1181:Middlewares/Third_Party/FreeRTOS/Source/CMSIS_RTOS/cmsis_os.c ****   }
1182:Middlewares/Third_Party/FreeRTOS/Source/CMSIS_RTOS/cmsis_os.c ****   else {
1183:Middlewares/Third_Party/FreeRTOS/Source/CMSIS_RTOS/cmsis_os.c ****     if (xQueueReceive(queue_id, &event.value.v, ticks) == pdTRUE) {
 2502              		.loc 1 1183 0 is_stmt 1
 2503 00a2 07F11403 		add	r3, r7, #20
 2504 00a6 0433     		adds	r3, r3, #4
 2505 00a8 B868     		ldr	r0, [r7, #8]
 2506 00aa 1946     		mov	r1, r3
 2507 00ac 7A6A     		ldr	r2, [r7, #36]
 2508 00ae 0023     		movs	r3, #0
 2509 00b0 FFF7FEFF 		bl	xQueueGenericReceive
 2510 00b4 0346     		mov	r3, r0
 2511 00b6 012B     		cmp	r3, #1
 2512 00b8 02D1     		bne	.L172
1184:Middlewares/Third_Party/FreeRTOS/Source/CMSIS_RTOS/cmsis_os.c ****       /* We have mail */
1185:Middlewares/Third_Party/FreeRTOS/Source/CMSIS_RTOS/cmsis_os.c ****       event.status = osEventMessage;
 2513              		.loc 1 1185 0
 2514 00ba 1023     		movs	r3, #16
 2515 00bc 7B61     		str	r3, [r7, #20]
 2516 00be 06E0     		b	.L171
 2517              	.L172:
1186:Middlewares/Third_Party/FreeRTOS/Source/CMSIS_RTOS/cmsis_os.c ****     }
1187:Middlewares/Third_Party/FreeRTOS/Source/CMSIS_RTOS/cmsis_os.c ****     else {
1188:Middlewares/Third_Party/FreeRTOS/Source/CMSIS_RTOS/cmsis_os.c ****       event.status = (ticks == 0) ? osOK : osEventTimeout;
 2518              		.loc 1 1188 0
 2519 00c0 7B6A     		ldr	r3, [r7, #36]
 2520 00c2 002B     		cmp	r3, #0
 2521 00c4 01D1     		bne	.L173
 2522              		.loc 1 1188 0 is_stmt 0 discriminator 1
 2523 00c6 0023     		movs	r3, #0
 2524 00c8 00E0     		b	.L174
 2525              	.L173:
 2526              		.loc 1 1188 0 discriminator 2
 2527 00ca 4023     		movs	r3, #64
 2528              	.L174:
 2529              		.loc 1 1188 0 discriminator 4
 2530 00cc 7B61     		str	r3, [r7, #20]
 2531              	.L171:
1189:Middlewares/Third_Party/FreeRTOS/Source/CMSIS_RTOS/cmsis_os.c ****     }
1190:Middlewares/Third_Party/FreeRTOS/Source/CMSIS_RTOS/cmsis_os.c ****   }
1191:Middlewares/Third_Party/FreeRTOS/Source/CMSIS_RTOS/cmsis_os.c ****   
1192:Middlewares/Third_Party/FreeRTOS/Source/CMSIS_RTOS/cmsis_os.c ****   return event;
 2532              		.loc 1 1192 0 is_stmt 1
 2533 00ce FB68     		ldr	r3, [r7, #12]
 2534 00d0 1C46     		mov	r4, r3
 2535 00d2 07F11403 		add	r3, r7, #20
 2536 00d6 93E80700 		ldmia	r3, {r0, r1, r2}
ARM GAS  /tmp/ccVQttFk.s 			page 72


 2537 00da 84E80700 		stmia	r4, {r0, r1, r2}
 2538              	.L162:
1193:Middlewares/Third_Party/FreeRTOS/Source/CMSIS_RTOS/cmsis_os.c **** }
 2539              		.loc 1 1193 0
 2540 00de F868     		ldr	r0, [r7, #12]
 2541 00e0 2C37     		adds	r7, r7, #44
 2542              	.LCFI163:
 2543              		.cfi_def_cfa_offset 12
 2544 00e2 BD46     		mov	sp, r7
 2545              	.LCFI164:
 2546              		.cfi_def_cfa_register 13
 2547              		@ sp needed
 2548 00e4 90BD     		pop	{r4, r7, pc}
 2549              	.L177:
 2550 00e6 00BF     		.align	2
 2551              	.L176:
 2552 00e8 04ED00E0 		.word	-536810236
 2553              		.cfi_endproc
 2554              	.LFE63:
 2556              		.section	.text.osMailCreate,"ax",%progbits
 2557              		.align	2
 2558              		.global	osMailCreate
 2559              		.thumb
 2560              		.thumb_func
 2562              	osMailCreate:
 2563              	.LFB64:
1194:Middlewares/Third_Party/FreeRTOS/Source/CMSIS_RTOS/cmsis_os.c **** 
1195:Middlewares/Third_Party/FreeRTOS/Source/CMSIS_RTOS/cmsis_os.c **** #endif     /* Use Message Queues */
1196:Middlewares/Third_Party/FreeRTOS/Source/CMSIS_RTOS/cmsis_os.c **** 
1197:Middlewares/Third_Party/FreeRTOS/Source/CMSIS_RTOS/cmsis_os.c **** /********************   Mail Queue Management Functions  ***********************/
1198:Middlewares/Third_Party/FreeRTOS/Source/CMSIS_RTOS/cmsis_os.c **** #if (defined (osFeature_MailQ)  &&  (osFeature_MailQ != 0))  /* Use Mail Queues */
1199:Middlewares/Third_Party/FreeRTOS/Source/CMSIS_RTOS/cmsis_os.c **** 
1200:Middlewares/Third_Party/FreeRTOS/Source/CMSIS_RTOS/cmsis_os.c **** 
1201:Middlewares/Third_Party/FreeRTOS/Source/CMSIS_RTOS/cmsis_os.c **** typedef struct os_mailQ_cb {
1202:Middlewares/Third_Party/FreeRTOS/Source/CMSIS_RTOS/cmsis_os.c ****   const osMailQDef_t *queue_def;
1203:Middlewares/Third_Party/FreeRTOS/Source/CMSIS_RTOS/cmsis_os.c ****   QueueHandle_t handle;
1204:Middlewares/Third_Party/FreeRTOS/Source/CMSIS_RTOS/cmsis_os.c ****   osPoolId pool;
1205:Middlewares/Third_Party/FreeRTOS/Source/CMSIS_RTOS/cmsis_os.c **** } os_mailQ_cb_t;
1206:Middlewares/Third_Party/FreeRTOS/Source/CMSIS_RTOS/cmsis_os.c **** 
1207:Middlewares/Third_Party/FreeRTOS/Source/CMSIS_RTOS/cmsis_os.c **** /**
1208:Middlewares/Third_Party/FreeRTOS/Source/CMSIS_RTOS/cmsis_os.c **** * @brief Create and Initialize mail queue
1209:Middlewares/Third_Party/FreeRTOS/Source/CMSIS_RTOS/cmsis_os.c **** * @param  queue_def     reference to the mail queue definition obtain with \ref osMailQ
1210:Middlewares/Third_Party/FreeRTOS/Source/CMSIS_RTOS/cmsis_os.c **** * @param   thread_id     thread ID (obtained by \ref osThreadCreate or \ref osThreadGetId) or NULL.
1211:Middlewares/Third_Party/FreeRTOS/Source/CMSIS_RTOS/cmsis_os.c **** * @retval mail queue ID for reference by other functions or NULL in case of error.
1212:Middlewares/Third_Party/FreeRTOS/Source/CMSIS_RTOS/cmsis_os.c **** * @note   MUST REMAIN UNCHANGED: \b osMailCreate shall be consistent in every CMSIS-RTOS.
1213:Middlewares/Third_Party/FreeRTOS/Source/CMSIS_RTOS/cmsis_os.c **** */
1214:Middlewares/Third_Party/FreeRTOS/Source/CMSIS_RTOS/cmsis_os.c **** osMailQId osMailCreate (const osMailQDef_t *queue_def, osThreadId thread_id)
1215:Middlewares/Third_Party/FreeRTOS/Source/CMSIS_RTOS/cmsis_os.c **** {
 2564              		.loc 1 1215 0
 2565              		.cfi_startproc
 2566              		@ args = 0, pretend = 0, frame = 24
 2567              		@ frame_needed = 1, uses_anonymous_args = 0
 2568 0000 90B5     		push	{r4, r7, lr}
 2569              	.LCFI165:
 2570              		.cfi_def_cfa_offset 12
 2571              		.cfi_offset 4, -12
 2572              		.cfi_offset 7, -8
ARM GAS  /tmp/ccVQttFk.s 			page 73


 2573              		.cfi_offset 14, -4
 2574 0002 87B0     		sub	sp, sp, #28
 2575              	.LCFI166:
 2576              		.cfi_def_cfa_offset 40
 2577 0004 00AF     		add	r7, sp, #0
 2578              	.LCFI167:
 2579              		.cfi_def_cfa_register 7
 2580 0006 7860     		str	r0, [r7, #4]
 2581 0008 3960     		str	r1, [r7]
1216:Middlewares/Third_Party/FreeRTOS/Source/CMSIS_RTOS/cmsis_os.c **** #if (configSUPPORT_DYNAMIC_ALLOCATION == 1)
1217:Middlewares/Third_Party/FreeRTOS/Source/CMSIS_RTOS/cmsis_os.c ****   (void) thread_id;
1218:Middlewares/Third_Party/FreeRTOS/Source/CMSIS_RTOS/cmsis_os.c ****   
1219:Middlewares/Third_Party/FreeRTOS/Source/CMSIS_RTOS/cmsis_os.c ****   osPoolDef_t pool_def = {queue_def->queue_sz, queue_def->item_sz, NULL};
 2582              		.loc 1 1219 0
 2583 000a 7B68     		ldr	r3, [r7, #4]
 2584 000c 1B68     		ldr	r3, [r3]
 2585 000e FB60     		str	r3, [r7, #12]
 2586 0010 7B68     		ldr	r3, [r7, #4]
 2587 0012 5B68     		ldr	r3, [r3, #4]
 2588 0014 3B61     		str	r3, [r7, #16]
 2589 0016 0023     		movs	r3, #0
 2590 0018 7B61     		str	r3, [r7, #20]
1220:Middlewares/Third_Party/FreeRTOS/Source/CMSIS_RTOS/cmsis_os.c ****   
1221:Middlewares/Third_Party/FreeRTOS/Source/CMSIS_RTOS/cmsis_os.c ****   /* Create a mail queue control block */
1222:Middlewares/Third_Party/FreeRTOS/Source/CMSIS_RTOS/cmsis_os.c **** 
1223:Middlewares/Third_Party/FreeRTOS/Source/CMSIS_RTOS/cmsis_os.c ****   *(queue_def->cb) = pvPortMalloc(sizeof(struct os_mailQ_cb));
 2591              		.loc 1 1223 0
 2592 001a 7B68     		ldr	r3, [r7, #4]
 2593 001c 9C68     		ldr	r4, [r3, #8]
 2594 001e 0C20     		movs	r0, #12
 2595 0020 FFF7FEFF 		bl	pvPortMalloc
 2596 0024 0346     		mov	r3, r0
 2597 0026 2360     		str	r3, [r4]
1224:Middlewares/Third_Party/FreeRTOS/Source/CMSIS_RTOS/cmsis_os.c **** 
1225:Middlewares/Third_Party/FreeRTOS/Source/CMSIS_RTOS/cmsis_os.c ****   if (*(queue_def->cb) == NULL) {
 2598              		.loc 1 1225 0
 2599 0028 7B68     		ldr	r3, [r7, #4]
 2600 002a 9B68     		ldr	r3, [r3, #8]
 2601 002c 1B68     		ldr	r3, [r3]
 2602 002e 002B     		cmp	r3, #0
 2603 0030 01D1     		bne	.L179
1226:Middlewares/Third_Party/FreeRTOS/Source/CMSIS_RTOS/cmsis_os.c ****     return NULL;
 2604              		.loc 1 1226 0
 2605 0032 0023     		movs	r3, #0
 2606 0034 39E0     		b	.L183
 2607              	.L179:
1227:Middlewares/Third_Party/FreeRTOS/Source/CMSIS_RTOS/cmsis_os.c ****   }
1228:Middlewares/Third_Party/FreeRTOS/Source/CMSIS_RTOS/cmsis_os.c ****   (*(queue_def->cb))->queue_def = queue_def;
 2608              		.loc 1 1228 0
 2609 0036 7B68     		ldr	r3, [r7, #4]
 2610 0038 9B68     		ldr	r3, [r3, #8]
 2611 003a 1B68     		ldr	r3, [r3]
 2612 003c 7A68     		ldr	r2, [r7, #4]
 2613 003e 1A60     		str	r2, [r3]
1229:Middlewares/Third_Party/FreeRTOS/Source/CMSIS_RTOS/cmsis_os.c ****   
1230:Middlewares/Third_Party/FreeRTOS/Source/CMSIS_RTOS/cmsis_os.c ****   /* Create a queue in FreeRTOS */
1231:Middlewares/Third_Party/FreeRTOS/Source/CMSIS_RTOS/cmsis_os.c ****   (*(queue_def->cb))->handle = xQueueCreate(queue_def->queue_sz, sizeof(void *));
ARM GAS  /tmp/ccVQttFk.s 			page 74


 2614              		.loc 1 1231 0
 2615 0040 7B68     		ldr	r3, [r7, #4]
 2616 0042 9B68     		ldr	r3, [r3, #8]
 2617 0044 1C68     		ldr	r4, [r3]
 2618 0046 7B68     		ldr	r3, [r7, #4]
 2619 0048 1B68     		ldr	r3, [r3]
 2620 004a 1846     		mov	r0, r3
 2621 004c 0421     		movs	r1, #4
 2622 004e 0022     		movs	r2, #0
 2623 0050 FFF7FEFF 		bl	xQueueGenericCreate
 2624 0054 0346     		mov	r3, r0
 2625 0056 6360     		str	r3, [r4, #4]
1232:Middlewares/Third_Party/FreeRTOS/Source/CMSIS_RTOS/cmsis_os.c **** 
1233:Middlewares/Third_Party/FreeRTOS/Source/CMSIS_RTOS/cmsis_os.c **** 
1234:Middlewares/Third_Party/FreeRTOS/Source/CMSIS_RTOS/cmsis_os.c ****   if ((*(queue_def->cb))->handle == NULL) {
 2626              		.loc 1 1234 0
 2627 0058 7B68     		ldr	r3, [r7, #4]
 2628 005a 9B68     		ldr	r3, [r3, #8]
 2629 005c 1B68     		ldr	r3, [r3]
 2630 005e 5B68     		ldr	r3, [r3, #4]
 2631 0060 002B     		cmp	r3, #0
 2632 0062 07D1     		bne	.L181
1235:Middlewares/Third_Party/FreeRTOS/Source/CMSIS_RTOS/cmsis_os.c ****     vPortFree(*(queue_def->cb));
 2633              		.loc 1 1235 0
 2634 0064 7B68     		ldr	r3, [r7, #4]
 2635 0066 9B68     		ldr	r3, [r3, #8]
 2636 0068 1B68     		ldr	r3, [r3]
 2637 006a 1846     		mov	r0, r3
 2638 006c FFF7FEFF 		bl	vPortFree
1236:Middlewares/Third_Party/FreeRTOS/Source/CMSIS_RTOS/cmsis_os.c ****     return NULL;
 2639              		.loc 1 1236 0
 2640 0070 0023     		movs	r3, #0
 2641 0072 1AE0     		b	.L183
 2642              	.L181:
1237:Middlewares/Third_Party/FreeRTOS/Source/CMSIS_RTOS/cmsis_os.c ****   }
1238:Middlewares/Third_Party/FreeRTOS/Source/CMSIS_RTOS/cmsis_os.c ****   
1239:Middlewares/Third_Party/FreeRTOS/Source/CMSIS_RTOS/cmsis_os.c ****   /* Create a mail pool */
1240:Middlewares/Third_Party/FreeRTOS/Source/CMSIS_RTOS/cmsis_os.c ****   (*(queue_def->cb))->pool = osPoolCreate(&pool_def);
 2643              		.loc 1 1240 0
 2644 0074 7B68     		ldr	r3, [r7, #4]
 2645 0076 9B68     		ldr	r3, [r3, #8]
 2646 0078 1C68     		ldr	r4, [r3]
 2647 007a 07F10C03 		add	r3, r7, #12
 2648 007e 1846     		mov	r0, r3
 2649 0080 FFF7FEFF 		bl	osPoolCreate
 2650 0084 0346     		mov	r3, r0
 2651 0086 A360     		str	r3, [r4, #8]
1241:Middlewares/Third_Party/FreeRTOS/Source/CMSIS_RTOS/cmsis_os.c ****   if ((*(queue_def->cb))->pool == NULL) {
 2652              		.loc 1 1241 0
 2653 0088 7B68     		ldr	r3, [r7, #4]
 2654 008a 9B68     		ldr	r3, [r3, #8]
 2655 008c 1B68     		ldr	r3, [r3]
 2656 008e 9B68     		ldr	r3, [r3, #8]
 2657 0090 002B     		cmp	r3, #0
 2658 0092 07D1     		bne	.L182
1242:Middlewares/Third_Party/FreeRTOS/Source/CMSIS_RTOS/cmsis_os.c ****     //TODO: Delete queue. How to do it in FreeRTOS?
1243:Middlewares/Third_Party/FreeRTOS/Source/CMSIS_RTOS/cmsis_os.c ****     vPortFree(*(queue_def->cb));
ARM GAS  /tmp/ccVQttFk.s 			page 75


 2659              		.loc 1 1243 0
 2660 0094 7B68     		ldr	r3, [r7, #4]
 2661 0096 9B68     		ldr	r3, [r3, #8]
 2662 0098 1B68     		ldr	r3, [r3]
 2663 009a 1846     		mov	r0, r3
 2664 009c FFF7FEFF 		bl	vPortFree
1244:Middlewares/Third_Party/FreeRTOS/Source/CMSIS_RTOS/cmsis_os.c ****     return NULL;
 2665              		.loc 1 1244 0
 2666 00a0 0023     		movs	r3, #0
 2667 00a2 02E0     		b	.L183
 2668              	.L182:
1245:Middlewares/Third_Party/FreeRTOS/Source/CMSIS_RTOS/cmsis_os.c ****   }
1246:Middlewares/Third_Party/FreeRTOS/Source/CMSIS_RTOS/cmsis_os.c ****   
1247:Middlewares/Third_Party/FreeRTOS/Source/CMSIS_RTOS/cmsis_os.c ****   return *(queue_def->cb);
 2669              		.loc 1 1247 0
 2670 00a4 7B68     		ldr	r3, [r7, #4]
 2671 00a6 9B68     		ldr	r3, [r3, #8]
 2672 00a8 1B68     		ldr	r3, [r3]
 2673              	.L183:
1248:Middlewares/Third_Party/FreeRTOS/Source/CMSIS_RTOS/cmsis_os.c **** #else
1249:Middlewares/Third_Party/FreeRTOS/Source/CMSIS_RTOS/cmsis_os.c ****   return NULL;
1250:Middlewares/Third_Party/FreeRTOS/Source/CMSIS_RTOS/cmsis_os.c **** #endif
1251:Middlewares/Third_Party/FreeRTOS/Source/CMSIS_RTOS/cmsis_os.c **** }
 2674              		.loc 1 1251 0 discriminator 1
 2675 00aa 1846     		mov	r0, r3
 2676 00ac 1C37     		adds	r7, r7, #28
 2677              	.LCFI168:
 2678              		.cfi_def_cfa_offset 12
 2679 00ae BD46     		mov	sp, r7
 2680              	.LCFI169:
 2681              		.cfi_def_cfa_register 13
 2682              		@ sp needed
 2683 00b0 90BD     		pop	{r4, r7, pc}
 2684              		.cfi_endproc
 2685              	.LFE64:
 2687 00b2 00BF     		.section	.text.osMailAlloc,"ax",%progbits
 2688              		.align	2
 2689              		.global	osMailAlloc
 2690              		.thumb
 2691              		.thumb_func
 2693              	osMailAlloc:
 2694              	.LFB65:
1252:Middlewares/Third_Party/FreeRTOS/Source/CMSIS_RTOS/cmsis_os.c **** 
1253:Middlewares/Third_Party/FreeRTOS/Source/CMSIS_RTOS/cmsis_os.c **** /**
1254:Middlewares/Third_Party/FreeRTOS/Source/CMSIS_RTOS/cmsis_os.c **** * @brief Allocate a memory block from a mail
1255:Middlewares/Third_Party/FreeRTOS/Source/CMSIS_RTOS/cmsis_os.c **** * @param  queue_id      mail queue ID obtained with \ref osMailCreate.
1256:Middlewares/Third_Party/FreeRTOS/Source/CMSIS_RTOS/cmsis_os.c **** * @param  millisec      timeout value or 0 in case of no time-out.
1257:Middlewares/Third_Party/FreeRTOS/Source/CMSIS_RTOS/cmsis_os.c **** * @retval pointer to memory block that can be filled with mail or NULL in case error.
1258:Middlewares/Third_Party/FreeRTOS/Source/CMSIS_RTOS/cmsis_os.c **** * @note   MUST REMAIN UNCHANGED: \b osMailAlloc shall be consistent in every CMSIS-RTOS.
1259:Middlewares/Third_Party/FreeRTOS/Source/CMSIS_RTOS/cmsis_os.c **** */
1260:Middlewares/Third_Party/FreeRTOS/Source/CMSIS_RTOS/cmsis_os.c **** void *osMailAlloc (osMailQId queue_id, uint32_t millisec)
1261:Middlewares/Third_Party/FreeRTOS/Source/CMSIS_RTOS/cmsis_os.c **** {
 2695              		.loc 1 1261 0
 2696              		.cfi_startproc
 2697              		@ args = 0, pretend = 0, frame = 16
 2698              		@ frame_needed = 1, uses_anonymous_args = 0
 2699 0000 80B5     		push	{r7, lr}
ARM GAS  /tmp/ccVQttFk.s 			page 76


 2700              	.LCFI170:
 2701              		.cfi_def_cfa_offset 8
 2702              		.cfi_offset 7, -8
 2703              		.cfi_offset 14, -4
 2704 0002 84B0     		sub	sp, sp, #16
 2705              	.LCFI171:
 2706              		.cfi_def_cfa_offset 24
 2707 0004 00AF     		add	r7, sp, #0
 2708              	.LCFI172:
 2709              		.cfi_def_cfa_register 7
 2710 0006 7860     		str	r0, [r7, #4]
 2711 0008 3960     		str	r1, [r7]
1262:Middlewares/Third_Party/FreeRTOS/Source/CMSIS_RTOS/cmsis_os.c ****   (void) millisec;
1263:Middlewares/Third_Party/FreeRTOS/Source/CMSIS_RTOS/cmsis_os.c ****   void *p;
1264:Middlewares/Third_Party/FreeRTOS/Source/CMSIS_RTOS/cmsis_os.c ****   
1265:Middlewares/Third_Party/FreeRTOS/Source/CMSIS_RTOS/cmsis_os.c ****   
1266:Middlewares/Third_Party/FreeRTOS/Source/CMSIS_RTOS/cmsis_os.c ****   if (queue_id == NULL) {
 2712              		.loc 1 1266 0
 2713 000a 7B68     		ldr	r3, [r7, #4]
 2714 000c 002B     		cmp	r3, #0
 2715 000e 01D1     		bne	.L185
1267:Middlewares/Third_Party/FreeRTOS/Source/CMSIS_RTOS/cmsis_os.c ****     return NULL;
 2716              		.loc 1 1267 0
 2717 0010 0023     		movs	r3, #0
 2718 0012 06E0     		b	.L186
 2719              	.L185:
1268:Middlewares/Third_Party/FreeRTOS/Source/CMSIS_RTOS/cmsis_os.c ****   }
1269:Middlewares/Third_Party/FreeRTOS/Source/CMSIS_RTOS/cmsis_os.c ****   
1270:Middlewares/Third_Party/FreeRTOS/Source/CMSIS_RTOS/cmsis_os.c ****   p = osPoolAlloc(queue_id->pool);
 2720              		.loc 1 1270 0
 2721 0014 7B68     		ldr	r3, [r7, #4]
 2722 0016 9B68     		ldr	r3, [r3, #8]
 2723 0018 1846     		mov	r0, r3
 2724 001a FFF7FEFF 		bl	osPoolAlloc
 2725 001e F860     		str	r0, [r7, #12]
1271:Middlewares/Third_Party/FreeRTOS/Source/CMSIS_RTOS/cmsis_os.c ****   
1272:Middlewares/Third_Party/FreeRTOS/Source/CMSIS_RTOS/cmsis_os.c ****   return p;
 2726              		.loc 1 1272 0
 2727 0020 FB68     		ldr	r3, [r7, #12]
 2728              	.L186:
1273:Middlewares/Third_Party/FreeRTOS/Source/CMSIS_RTOS/cmsis_os.c **** }
 2729              		.loc 1 1273 0
 2730 0022 1846     		mov	r0, r3
 2731 0024 1037     		adds	r7, r7, #16
 2732              	.LCFI173:
 2733              		.cfi_def_cfa_offset 8
 2734 0026 BD46     		mov	sp, r7
 2735              	.LCFI174:
 2736              		.cfi_def_cfa_register 13
 2737              		@ sp needed
 2738 0028 80BD     		pop	{r7, pc}
 2739              		.cfi_endproc
 2740              	.LFE65:
 2742 002a 00BF     		.section	.text.osMailCAlloc,"ax",%progbits
 2743              		.align	2
 2744              		.global	osMailCAlloc
 2745              		.thumb
ARM GAS  /tmp/ccVQttFk.s 			page 77


 2746              		.thumb_func
 2748              	osMailCAlloc:
 2749              	.LFB66:
1274:Middlewares/Third_Party/FreeRTOS/Source/CMSIS_RTOS/cmsis_os.c **** 
1275:Middlewares/Third_Party/FreeRTOS/Source/CMSIS_RTOS/cmsis_os.c **** /**
1276:Middlewares/Third_Party/FreeRTOS/Source/CMSIS_RTOS/cmsis_os.c **** * @brief Allocate a memory block from a mail and set memory block to zero
1277:Middlewares/Third_Party/FreeRTOS/Source/CMSIS_RTOS/cmsis_os.c **** * @param  queue_id      mail queue ID obtained with \ref osMailCreate.
1278:Middlewares/Third_Party/FreeRTOS/Source/CMSIS_RTOS/cmsis_os.c **** * @param  millisec      timeout value or 0 in case of no time-out.
1279:Middlewares/Third_Party/FreeRTOS/Source/CMSIS_RTOS/cmsis_os.c **** * @retval pointer to memory block that can be filled with mail or NULL in case error.
1280:Middlewares/Third_Party/FreeRTOS/Source/CMSIS_RTOS/cmsis_os.c **** * @note   MUST REMAIN UNCHANGED: \b osMailCAlloc shall be consistent in every CMSIS-RTOS.
1281:Middlewares/Third_Party/FreeRTOS/Source/CMSIS_RTOS/cmsis_os.c **** */
1282:Middlewares/Third_Party/FreeRTOS/Source/CMSIS_RTOS/cmsis_os.c **** void *osMailCAlloc (osMailQId queue_id, uint32_t millisec)
1283:Middlewares/Third_Party/FreeRTOS/Source/CMSIS_RTOS/cmsis_os.c **** {
 2750              		.loc 1 1283 0
 2751              		.cfi_startproc
 2752              		@ args = 0, pretend = 0, frame = 16
 2753              		@ frame_needed = 1, uses_anonymous_args = 0
 2754 0000 80B5     		push	{r7, lr}
 2755              	.LCFI175:
 2756              		.cfi_def_cfa_offset 8
 2757              		.cfi_offset 7, -8
 2758              		.cfi_offset 14, -4
 2759 0002 84B0     		sub	sp, sp, #16
 2760              	.LCFI176:
 2761              		.cfi_def_cfa_offset 24
 2762 0004 00AF     		add	r7, sp, #0
 2763              	.LCFI177:
 2764              		.cfi_def_cfa_register 7
 2765 0006 7860     		str	r0, [r7, #4]
 2766 0008 3960     		str	r1, [r7]
1284:Middlewares/Third_Party/FreeRTOS/Source/CMSIS_RTOS/cmsis_os.c ****   uint32_t i;
1285:Middlewares/Third_Party/FreeRTOS/Source/CMSIS_RTOS/cmsis_os.c ****   void *p = osMailAlloc(queue_id, millisec);
 2767              		.loc 1 1285 0
 2768 000a 7868     		ldr	r0, [r7, #4]
 2769 000c 3968     		ldr	r1, [r7]
 2770 000e FFF7FEFF 		bl	osMailAlloc
 2771 0012 B860     		str	r0, [r7, #8]
1286:Middlewares/Third_Party/FreeRTOS/Source/CMSIS_RTOS/cmsis_os.c ****   
1287:Middlewares/Third_Party/FreeRTOS/Source/CMSIS_RTOS/cmsis_os.c ****   if (p) {
 2772              		.loc 1 1287 0
 2773 0014 BB68     		ldr	r3, [r7, #8]
 2774 0016 002B     		cmp	r3, #0
 2775 0018 10D0     		beq	.L188
1288:Middlewares/Third_Party/FreeRTOS/Source/CMSIS_RTOS/cmsis_os.c ****     for (i = 0; i < queue_id->queue_def->item_sz; i++) {
 2776              		.loc 1 1288 0
 2777 001a 0023     		movs	r3, #0
 2778 001c FB60     		str	r3, [r7, #12]
 2779 001e 07E0     		b	.L189
 2780              	.L190:
1289:Middlewares/Third_Party/FreeRTOS/Source/CMSIS_RTOS/cmsis_os.c ****       ((uint8_t *)p)[i] = 0;
 2781              		.loc 1 1289 0 discriminator 3
 2782 0020 BA68     		ldr	r2, [r7, #8]
 2783 0022 FB68     		ldr	r3, [r7, #12]
 2784 0024 1344     		add	r3, r3, r2
 2785 0026 0022     		movs	r2, #0
 2786 0028 1A70     		strb	r2, [r3]
1288:Middlewares/Third_Party/FreeRTOS/Source/CMSIS_RTOS/cmsis_os.c ****     for (i = 0; i < queue_id->queue_def->item_sz; i++) {
ARM GAS  /tmp/ccVQttFk.s 			page 78


 2787              		.loc 1 1288 0 discriminator 3
 2788 002a FB68     		ldr	r3, [r7, #12]
 2789 002c 0133     		adds	r3, r3, #1
 2790 002e FB60     		str	r3, [r7, #12]
 2791              	.L189:
1288:Middlewares/Third_Party/FreeRTOS/Source/CMSIS_RTOS/cmsis_os.c ****     for (i = 0; i < queue_id->queue_def->item_sz; i++) {
 2792              		.loc 1 1288 0 is_stmt 0 discriminator 1
 2793 0030 7B68     		ldr	r3, [r7, #4]
 2794 0032 1B68     		ldr	r3, [r3]
 2795 0034 5A68     		ldr	r2, [r3, #4]
 2796 0036 FB68     		ldr	r3, [r7, #12]
 2797 0038 9A42     		cmp	r2, r3
 2798 003a F1D8     		bhi	.L190
 2799              	.L188:
1290:Middlewares/Third_Party/FreeRTOS/Source/CMSIS_RTOS/cmsis_os.c ****     }
1291:Middlewares/Third_Party/FreeRTOS/Source/CMSIS_RTOS/cmsis_os.c ****   }
1292:Middlewares/Third_Party/FreeRTOS/Source/CMSIS_RTOS/cmsis_os.c ****   
1293:Middlewares/Third_Party/FreeRTOS/Source/CMSIS_RTOS/cmsis_os.c ****   return p;
 2800              		.loc 1 1293 0 is_stmt 1
 2801 003c BB68     		ldr	r3, [r7, #8]
1294:Middlewares/Third_Party/FreeRTOS/Source/CMSIS_RTOS/cmsis_os.c **** }
 2802              		.loc 1 1294 0
 2803 003e 1846     		mov	r0, r3
 2804 0040 1037     		adds	r7, r7, #16
 2805              	.LCFI178:
 2806              		.cfi_def_cfa_offset 8
 2807 0042 BD46     		mov	sp, r7
 2808              	.LCFI179:
 2809              		.cfi_def_cfa_register 13
 2810              		@ sp needed
 2811 0044 80BD     		pop	{r7, pc}
 2812              		.cfi_endproc
 2813              	.LFE66:
 2815 0046 00BF     		.section	.text.osMailPut,"ax",%progbits
 2816              		.align	2
 2817              		.global	osMailPut
 2818              		.thumb
 2819              		.thumb_func
 2821              	osMailPut:
 2822              	.LFB67:
1295:Middlewares/Third_Party/FreeRTOS/Source/CMSIS_RTOS/cmsis_os.c **** 
1296:Middlewares/Third_Party/FreeRTOS/Source/CMSIS_RTOS/cmsis_os.c **** /**
1297:Middlewares/Third_Party/FreeRTOS/Source/CMSIS_RTOS/cmsis_os.c **** * @brief Put a mail to a queue
1298:Middlewares/Third_Party/FreeRTOS/Source/CMSIS_RTOS/cmsis_os.c **** * @param  queue_id      mail queue ID obtained with \ref osMailCreate.
1299:Middlewares/Third_Party/FreeRTOS/Source/CMSIS_RTOS/cmsis_os.c **** * @param  mail          memory block previously allocated with \ref osMailAlloc or \ref osMailCAllo
1300:Middlewares/Third_Party/FreeRTOS/Source/CMSIS_RTOS/cmsis_os.c **** * @retval status code that indicates the execution status of the function.
1301:Middlewares/Third_Party/FreeRTOS/Source/CMSIS_RTOS/cmsis_os.c **** * @note   MUST REMAIN UNCHANGED: \b osMailPut shall be consistent in every CMSIS-RTOS.
1302:Middlewares/Third_Party/FreeRTOS/Source/CMSIS_RTOS/cmsis_os.c **** */
1303:Middlewares/Third_Party/FreeRTOS/Source/CMSIS_RTOS/cmsis_os.c **** osStatus osMailPut (osMailQId queue_id, void *mail)
1304:Middlewares/Third_Party/FreeRTOS/Source/CMSIS_RTOS/cmsis_os.c **** {
 2823              		.loc 1 1304 0
 2824              		.cfi_startproc
 2825              		@ args = 0, pretend = 0, frame = 16
 2826              		@ frame_needed = 1, uses_anonymous_args = 0
 2827 0000 80B5     		push	{r7, lr}
 2828              	.LCFI180:
 2829              		.cfi_def_cfa_offset 8
ARM GAS  /tmp/ccVQttFk.s 			page 79


 2830              		.cfi_offset 7, -8
 2831              		.cfi_offset 14, -4
 2832 0002 84B0     		sub	sp, sp, #16
 2833              	.LCFI181:
 2834              		.cfi_def_cfa_offset 24
 2835 0004 00AF     		add	r7, sp, #0
 2836              	.LCFI182:
 2837              		.cfi_def_cfa_register 7
 2838 0006 7860     		str	r0, [r7, #4]
 2839 0008 3960     		str	r1, [r7]
1305:Middlewares/Third_Party/FreeRTOS/Source/CMSIS_RTOS/cmsis_os.c ****   portBASE_TYPE taskWoken;
1306:Middlewares/Third_Party/FreeRTOS/Source/CMSIS_RTOS/cmsis_os.c ****   
1307:Middlewares/Third_Party/FreeRTOS/Source/CMSIS_RTOS/cmsis_os.c ****   
1308:Middlewares/Third_Party/FreeRTOS/Source/CMSIS_RTOS/cmsis_os.c ****   if (queue_id == NULL) {
 2840              		.loc 1 1308 0
 2841 000a 7B68     		ldr	r3, [r7, #4]
 2842 000c 002B     		cmp	r3, #0
 2843 000e 01D1     		bne	.L193
1309:Middlewares/Third_Party/FreeRTOS/Source/CMSIS_RTOS/cmsis_os.c ****     return osErrorParameter;
 2844              		.loc 1 1309 0
 2845 0010 8023     		movs	r3, #128
 2846 0012 31E0     		b	.L199
 2847              	.L193:
1310:Middlewares/Third_Party/FreeRTOS/Source/CMSIS_RTOS/cmsis_os.c ****   }
1311:Middlewares/Third_Party/FreeRTOS/Source/CMSIS_RTOS/cmsis_os.c ****   
1312:Middlewares/Third_Party/FreeRTOS/Source/CMSIS_RTOS/cmsis_os.c ****   taskWoken = pdFALSE;
 2848              		.loc 1 1312 0
 2849 0014 0023     		movs	r3, #0
 2850 0016 FB60     		str	r3, [r7, #12]
1313:Middlewares/Third_Party/FreeRTOS/Source/CMSIS_RTOS/cmsis_os.c ****   
1314:Middlewares/Third_Party/FreeRTOS/Source/CMSIS_RTOS/cmsis_os.c ****   if (inHandlerMode()) {
 2851              		.loc 1 1314 0
 2852 0018 FFF7FEFF 		bl	inHandlerMode
 2853 001c 0346     		mov	r3, r0
 2854 001e 002B     		cmp	r3, #0
 2855 0020 1BD0     		beq	.L195
1315:Middlewares/Third_Party/FreeRTOS/Source/CMSIS_RTOS/cmsis_os.c ****     if (xQueueSendFromISR(queue_id->handle, &mail, &taskWoken) != pdTRUE) {
 2856              		.loc 1 1315 0
 2857 0022 7B68     		ldr	r3, [r7, #4]
 2858 0024 5968     		ldr	r1, [r3, #4]
 2859 0026 3A46     		mov	r2, r7
 2860 0028 07F10C03 		add	r3, r7, #12
 2861 002c 0846     		mov	r0, r1
 2862 002e 1146     		mov	r1, r2
 2863 0030 1A46     		mov	r2, r3
 2864 0032 0023     		movs	r3, #0
 2865 0034 FFF7FEFF 		bl	xQueueGenericSendFromISR
 2866 0038 0346     		mov	r3, r0
 2867 003a 012B     		cmp	r3, #1
 2868 003c 01D0     		beq	.L196
1316:Middlewares/Third_Party/FreeRTOS/Source/CMSIS_RTOS/cmsis_os.c ****       return osErrorOS;
 2869              		.loc 1 1316 0
 2870 003e FF23     		movs	r3, #255
 2871 0040 1AE0     		b	.L199
 2872              	.L196:
1317:Middlewares/Third_Party/FreeRTOS/Source/CMSIS_RTOS/cmsis_os.c ****     }
1318:Middlewares/Third_Party/FreeRTOS/Source/CMSIS_RTOS/cmsis_os.c ****     portEND_SWITCHING_ISR(taskWoken);
ARM GAS  /tmp/ccVQttFk.s 			page 80


 2873              		.loc 1 1318 0
 2874 0042 FB68     		ldr	r3, [r7, #12]
 2875 0044 002B     		cmp	r3, #0
 2876 0046 16D0     		beq	.L198
 2877              		.loc 1 1318 0 is_stmt 0 discriminator 1
 2878 0048 0D4B     		ldr	r3, .L200
 2879 004a 4FF08052 		mov	r2, #268435456
 2880 004e 1A60     		str	r2, [r3]
 2881              	@ 1318 "Middlewares/Third_Party/FreeRTOS/Source/CMSIS_RTOS/cmsis_os.c" 1
 2882 0050 BFF34F8F 		dsb
 2883              	@ 0 "" 2
 2884              	@ 1318 "Middlewares/Third_Party/FreeRTOS/Source/CMSIS_RTOS/cmsis_os.c" 1
 2885 0054 BFF36F8F 		isb
 2886              	@ 0 "" 2
 2887              		.thumb
 2888 0058 0DE0     		b	.L198
 2889              	.L195:
1319:Middlewares/Third_Party/FreeRTOS/Source/CMSIS_RTOS/cmsis_os.c ****   }
1320:Middlewares/Third_Party/FreeRTOS/Source/CMSIS_RTOS/cmsis_os.c ****   else {
1321:Middlewares/Third_Party/FreeRTOS/Source/CMSIS_RTOS/cmsis_os.c ****     if (xQueueSend(queue_id->handle, &mail, 0) != pdTRUE) { 
 2890              		.loc 1 1321 0 is_stmt 1
 2891 005a 7B68     		ldr	r3, [r7, #4]
 2892 005c 5A68     		ldr	r2, [r3, #4]
 2893 005e 3B46     		mov	r3, r7
 2894 0060 1046     		mov	r0, r2
 2895 0062 1946     		mov	r1, r3
 2896 0064 0022     		movs	r2, #0
 2897 0066 0023     		movs	r3, #0
 2898 0068 FFF7FEFF 		bl	xQueueGenericSend
 2899 006c 0346     		mov	r3, r0
 2900 006e 012B     		cmp	r3, #1
 2901 0070 01D0     		beq	.L198
1322:Middlewares/Third_Party/FreeRTOS/Source/CMSIS_RTOS/cmsis_os.c ****       return osErrorOS;
 2902              		.loc 1 1322 0
 2903 0072 FF23     		movs	r3, #255
 2904 0074 00E0     		b	.L199
 2905              	.L198:
1323:Middlewares/Third_Party/FreeRTOS/Source/CMSIS_RTOS/cmsis_os.c ****     }
1324:Middlewares/Third_Party/FreeRTOS/Source/CMSIS_RTOS/cmsis_os.c ****   }
1325:Middlewares/Third_Party/FreeRTOS/Source/CMSIS_RTOS/cmsis_os.c ****   
1326:Middlewares/Third_Party/FreeRTOS/Source/CMSIS_RTOS/cmsis_os.c ****   return osOK;
 2906              		.loc 1 1326 0
 2907 0076 0023     		movs	r3, #0
 2908              	.L199:
1327:Middlewares/Third_Party/FreeRTOS/Source/CMSIS_RTOS/cmsis_os.c **** }
 2909              		.loc 1 1327 0 discriminator 1
 2910 0078 1846     		mov	r0, r3
 2911 007a 1037     		adds	r7, r7, #16
 2912              	.LCFI183:
 2913              		.cfi_def_cfa_offset 8
 2914 007c BD46     		mov	sp, r7
 2915              	.LCFI184:
 2916              		.cfi_def_cfa_register 13
 2917              		@ sp needed
 2918 007e 80BD     		pop	{r7, pc}
 2919              	.L201:
 2920              		.align	2
ARM GAS  /tmp/ccVQttFk.s 			page 81


 2921              	.L200:
 2922 0080 04ED00E0 		.word	-536810236
 2923              		.cfi_endproc
 2924              	.LFE67:
 2926              		.section	.text.osMailGet,"ax",%progbits
 2927              		.align	2
 2928              		.global	osMailGet
 2929              		.thumb
 2930              		.thumb_func
 2932              	osMailGet:
 2933              	.LFB68:
1328:Middlewares/Third_Party/FreeRTOS/Source/CMSIS_RTOS/cmsis_os.c **** 
1329:Middlewares/Third_Party/FreeRTOS/Source/CMSIS_RTOS/cmsis_os.c **** /**
1330:Middlewares/Third_Party/FreeRTOS/Source/CMSIS_RTOS/cmsis_os.c **** * @brief Get a mail from a queue
1331:Middlewares/Third_Party/FreeRTOS/Source/CMSIS_RTOS/cmsis_os.c **** * @param  queue_id   mail queue ID obtained with \ref osMailCreate.
1332:Middlewares/Third_Party/FreeRTOS/Source/CMSIS_RTOS/cmsis_os.c **** * @param millisec    timeout value or 0 in case of no time-out
1333:Middlewares/Third_Party/FreeRTOS/Source/CMSIS_RTOS/cmsis_os.c **** * @retval event that contains mail information or error code.
1334:Middlewares/Third_Party/FreeRTOS/Source/CMSIS_RTOS/cmsis_os.c **** * @note   MUST REMAIN UNCHANGED: \b osMailGet shall be consistent in every CMSIS-RTOS.
1335:Middlewares/Third_Party/FreeRTOS/Source/CMSIS_RTOS/cmsis_os.c **** */
1336:Middlewares/Third_Party/FreeRTOS/Source/CMSIS_RTOS/cmsis_os.c **** osEvent osMailGet (osMailQId queue_id, uint32_t millisec)
1337:Middlewares/Third_Party/FreeRTOS/Source/CMSIS_RTOS/cmsis_os.c **** {
 2934              		.loc 1 1337 0
 2935              		.cfi_startproc
 2936              		@ args = 0, pretend = 0, frame = 40
 2937              		@ frame_needed = 1, uses_anonymous_args = 0
 2938 0000 90B5     		push	{r4, r7, lr}
 2939              	.LCFI185:
 2940              		.cfi_def_cfa_offset 12
 2941              		.cfi_offset 4, -12
 2942              		.cfi_offset 7, -8
 2943              		.cfi_offset 14, -4
 2944 0002 8BB0     		sub	sp, sp, #44
 2945              	.LCFI186:
 2946              		.cfi_def_cfa_offset 56
 2947 0004 00AF     		add	r7, sp, #0
 2948              	.LCFI187:
 2949              		.cfi_def_cfa_register 7
 2950 0006 F860     		str	r0, [r7, #12]
 2951 0008 B960     		str	r1, [r7, #8]
 2952 000a 7A60     		str	r2, [r7, #4]
1338:Middlewares/Third_Party/FreeRTOS/Source/CMSIS_RTOS/cmsis_os.c ****   portBASE_TYPE taskWoken;
1339:Middlewares/Third_Party/FreeRTOS/Source/CMSIS_RTOS/cmsis_os.c ****   TickType_t ticks;
1340:Middlewares/Third_Party/FreeRTOS/Source/CMSIS_RTOS/cmsis_os.c ****   osEvent event;
1341:Middlewares/Third_Party/FreeRTOS/Source/CMSIS_RTOS/cmsis_os.c ****   
1342:Middlewares/Third_Party/FreeRTOS/Source/CMSIS_RTOS/cmsis_os.c ****   event.def.mail_id = queue_id;
 2953              		.loc 1 1342 0
 2954 000c BB68     		ldr	r3, [r7, #8]
 2955 000e FB61     		str	r3, [r7, #28]
1343:Middlewares/Third_Party/FreeRTOS/Source/CMSIS_RTOS/cmsis_os.c ****   
1344:Middlewares/Third_Party/FreeRTOS/Source/CMSIS_RTOS/cmsis_os.c ****   if (queue_id == NULL) {
 2956              		.loc 1 1344 0
 2957 0010 BB68     		ldr	r3, [r7, #8]
 2958 0012 002B     		cmp	r3, #0
 2959 0014 0AD1     		bne	.L203
1345:Middlewares/Third_Party/FreeRTOS/Source/CMSIS_RTOS/cmsis_os.c ****     event.status = osErrorParameter;
 2960              		.loc 1 1345 0
 2961 0016 8023     		movs	r3, #128
ARM GAS  /tmp/ccVQttFk.s 			page 82


 2962 0018 7B61     		str	r3, [r7, #20]
1346:Middlewares/Third_Party/FreeRTOS/Source/CMSIS_RTOS/cmsis_os.c ****     return event;
 2963              		.loc 1 1346 0
 2964 001a FB68     		ldr	r3, [r7, #12]
 2965 001c 1C46     		mov	r4, r3
 2966 001e 07F11403 		add	r3, r7, #20
 2967 0022 93E80700 		ldmia	r3, {r0, r1, r2}
 2968 0026 84E80700 		stmia	r4, {r0, r1, r2}
 2969 002a 5AE0     		b	.L202
 2970              	.L203:
1347:Middlewares/Third_Party/FreeRTOS/Source/CMSIS_RTOS/cmsis_os.c ****   }
1348:Middlewares/Third_Party/FreeRTOS/Source/CMSIS_RTOS/cmsis_os.c ****   
1349:Middlewares/Third_Party/FreeRTOS/Source/CMSIS_RTOS/cmsis_os.c ****   taskWoken = pdFALSE;
 2971              		.loc 1 1349 0
 2972 002c 0023     		movs	r3, #0
 2973 002e 3B62     		str	r3, [r7, #32]
1350:Middlewares/Third_Party/FreeRTOS/Source/CMSIS_RTOS/cmsis_os.c ****   
1351:Middlewares/Third_Party/FreeRTOS/Source/CMSIS_RTOS/cmsis_os.c ****   ticks = 0;
 2974              		.loc 1 1351 0
 2975 0030 0023     		movs	r3, #0
 2976 0032 7B62     		str	r3, [r7, #36]
1352:Middlewares/Third_Party/FreeRTOS/Source/CMSIS_RTOS/cmsis_os.c ****   if (millisec == osWaitForever) {
 2977              		.loc 1 1352 0
 2978 0034 7B68     		ldr	r3, [r7, #4]
 2979 0036 B3F1FF3F 		cmp	r3, #-1
 2980 003a 03D1     		bne	.L205
1353:Middlewares/Third_Party/FreeRTOS/Source/CMSIS_RTOS/cmsis_os.c ****     ticks = portMAX_DELAY;
 2981              		.loc 1 1353 0
 2982 003c 4FF0FF33 		mov	r3, #-1
 2983 0040 7B62     		str	r3, [r7, #36]
 2984 0042 09E0     		b	.L206
 2985              	.L205:
1354:Middlewares/Third_Party/FreeRTOS/Source/CMSIS_RTOS/cmsis_os.c ****   }
1355:Middlewares/Third_Party/FreeRTOS/Source/CMSIS_RTOS/cmsis_os.c ****   else if (millisec != 0) {
 2986              		.loc 1 1355 0
 2987 0044 7B68     		ldr	r3, [r7, #4]
 2988 0046 002B     		cmp	r3, #0
 2989 0048 06D0     		beq	.L206
1356:Middlewares/Third_Party/FreeRTOS/Source/CMSIS_RTOS/cmsis_os.c ****     ticks = millisec / portTICK_PERIOD_MS;
 2990              		.loc 1 1356 0
 2991 004a 7B68     		ldr	r3, [r7, #4]
 2992 004c 7B62     		str	r3, [r7, #36]
1357:Middlewares/Third_Party/FreeRTOS/Source/CMSIS_RTOS/cmsis_os.c ****     if (ticks == 0) {
 2993              		.loc 1 1357 0
 2994 004e 7B6A     		ldr	r3, [r7, #36]
 2995 0050 002B     		cmp	r3, #0
 2996 0052 01D1     		bne	.L206
1358:Middlewares/Third_Party/FreeRTOS/Source/CMSIS_RTOS/cmsis_os.c ****       ticks = 1;
 2997              		.loc 1 1358 0
 2998 0054 0123     		movs	r3, #1
 2999 0056 7B62     		str	r3, [r7, #36]
 3000              	.L206:
1359:Middlewares/Third_Party/FreeRTOS/Source/CMSIS_RTOS/cmsis_os.c ****     }
1360:Middlewares/Third_Party/FreeRTOS/Source/CMSIS_RTOS/cmsis_os.c ****   }
1361:Middlewares/Third_Party/FreeRTOS/Source/CMSIS_RTOS/cmsis_os.c ****   
1362:Middlewares/Third_Party/FreeRTOS/Source/CMSIS_RTOS/cmsis_os.c ****   if (inHandlerMode()) {
 3001              		.loc 1 1362 0
ARM GAS  /tmp/ccVQttFk.s 			page 83


 3002 0058 FFF7FEFF 		bl	inHandlerMode
 3003 005c 0346     		mov	r3, r0
 3004 005e 002B     		cmp	r3, #0
 3005 0060 1FD0     		beq	.L207
1363:Middlewares/Third_Party/FreeRTOS/Source/CMSIS_RTOS/cmsis_os.c ****     if (xQueueReceiveFromISR(queue_id->handle, &event.value.p, &taskWoken) == pdTRUE) {
 3006              		.loc 1 1363 0
 3007 0062 BB68     		ldr	r3, [r7, #8]
 3008 0064 5968     		ldr	r1, [r3, #4]
 3009 0066 07F11403 		add	r3, r7, #20
 3010 006a 1A1D     		adds	r2, r3, #4
 3011 006c 07F12003 		add	r3, r7, #32
 3012 0070 0846     		mov	r0, r1
 3013 0072 1146     		mov	r1, r2
 3014 0074 1A46     		mov	r2, r3
 3015 0076 FFF7FEFF 		bl	xQueueReceiveFromISR
 3016 007a 0346     		mov	r3, r0
 3017 007c 012B     		cmp	r3, #1
 3018 007e 02D1     		bne	.L208
1364:Middlewares/Third_Party/FreeRTOS/Source/CMSIS_RTOS/cmsis_os.c ****       /* We have mail */
1365:Middlewares/Third_Party/FreeRTOS/Source/CMSIS_RTOS/cmsis_os.c ****       event.status = osEventMail;
 3019              		.loc 1 1365 0
 3020 0080 2023     		movs	r3, #32
 3021 0082 7B61     		str	r3, [r7, #20]
 3022 0084 01E0     		b	.L209
 3023              	.L208:
1366:Middlewares/Third_Party/FreeRTOS/Source/CMSIS_RTOS/cmsis_os.c ****     }
1367:Middlewares/Third_Party/FreeRTOS/Source/CMSIS_RTOS/cmsis_os.c ****     else {
1368:Middlewares/Third_Party/FreeRTOS/Source/CMSIS_RTOS/cmsis_os.c ****       event.status = osOK;
 3024              		.loc 1 1368 0
 3025 0086 0023     		movs	r3, #0
 3026 0088 7B61     		str	r3, [r7, #20]
 3027              	.L209:
1369:Middlewares/Third_Party/FreeRTOS/Source/CMSIS_RTOS/cmsis_os.c ****     }
1370:Middlewares/Third_Party/FreeRTOS/Source/CMSIS_RTOS/cmsis_os.c ****     portEND_SWITCHING_ISR(taskWoken);
 3028              		.loc 1 1370 0
 3029 008a 3B6A     		ldr	r3, [r7, #32]
 3030 008c 002B     		cmp	r3, #0
 3031 008e 20D0     		beq	.L211
 3032              		.loc 1 1370 0 is_stmt 0 discriminator 1
 3033 0090 164B     		ldr	r3, .L216
 3034 0092 4FF08052 		mov	r2, #268435456
 3035 0096 1A60     		str	r2, [r3]
 3036              	@ 1370 "Middlewares/Third_Party/FreeRTOS/Source/CMSIS_RTOS/cmsis_os.c" 1
 3037 0098 BFF34F8F 		dsb
 3038              	@ 0 "" 2
 3039              	@ 1370 "Middlewares/Third_Party/FreeRTOS/Source/CMSIS_RTOS/cmsis_os.c" 1
 3040 009c BFF36F8F 		isb
 3041              	@ 0 "" 2
 3042              		.thumb
 3043 00a0 17E0     		b	.L211
 3044              	.L207:
1371:Middlewares/Third_Party/FreeRTOS/Source/CMSIS_RTOS/cmsis_os.c ****   }
1372:Middlewares/Third_Party/FreeRTOS/Source/CMSIS_RTOS/cmsis_os.c ****   else {
1373:Middlewares/Third_Party/FreeRTOS/Source/CMSIS_RTOS/cmsis_os.c ****     if (xQueueReceive(queue_id->handle, &event.value.p, ticks) == pdTRUE) {
 3045              		.loc 1 1373 0 is_stmt 1
 3046 00a2 BB68     		ldr	r3, [r7, #8]
 3047 00a4 5A68     		ldr	r2, [r3, #4]
ARM GAS  /tmp/ccVQttFk.s 			page 84


 3048 00a6 07F11403 		add	r3, r7, #20
 3049 00aa 0433     		adds	r3, r3, #4
 3050 00ac 1046     		mov	r0, r2
 3051 00ae 1946     		mov	r1, r3
 3052 00b0 7A6A     		ldr	r2, [r7, #36]
 3053 00b2 0023     		movs	r3, #0
 3054 00b4 FFF7FEFF 		bl	xQueueGenericReceive
 3055 00b8 0346     		mov	r3, r0
 3056 00ba 012B     		cmp	r3, #1
 3057 00bc 02D1     		bne	.L212
1374:Middlewares/Third_Party/FreeRTOS/Source/CMSIS_RTOS/cmsis_os.c ****       /* We have mail */
1375:Middlewares/Third_Party/FreeRTOS/Source/CMSIS_RTOS/cmsis_os.c ****       event.status = osEventMail;
 3058              		.loc 1 1375 0
 3059 00be 2023     		movs	r3, #32
 3060 00c0 7B61     		str	r3, [r7, #20]
 3061 00c2 06E0     		b	.L211
 3062              	.L212:
1376:Middlewares/Third_Party/FreeRTOS/Source/CMSIS_RTOS/cmsis_os.c ****     }
1377:Middlewares/Third_Party/FreeRTOS/Source/CMSIS_RTOS/cmsis_os.c ****     else {
1378:Middlewares/Third_Party/FreeRTOS/Source/CMSIS_RTOS/cmsis_os.c ****       event.status = (ticks == 0) ? osOK : osEventTimeout;
 3063              		.loc 1 1378 0
 3064 00c4 7B6A     		ldr	r3, [r7, #36]
 3065 00c6 002B     		cmp	r3, #0
 3066 00c8 01D1     		bne	.L213
 3067              		.loc 1 1378 0 is_stmt 0 discriminator 1
 3068 00ca 0023     		movs	r3, #0
 3069 00cc 00E0     		b	.L214
 3070              	.L213:
 3071              		.loc 1 1378 0 discriminator 2
 3072 00ce 4023     		movs	r3, #64
 3073              	.L214:
 3074              		.loc 1 1378 0 discriminator 4
 3075 00d0 7B61     		str	r3, [r7, #20]
 3076              	.L211:
1379:Middlewares/Third_Party/FreeRTOS/Source/CMSIS_RTOS/cmsis_os.c ****     }
1380:Middlewares/Third_Party/FreeRTOS/Source/CMSIS_RTOS/cmsis_os.c ****   }
1381:Middlewares/Third_Party/FreeRTOS/Source/CMSIS_RTOS/cmsis_os.c ****   
1382:Middlewares/Third_Party/FreeRTOS/Source/CMSIS_RTOS/cmsis_os.c ****   return event;
 3077              		.loc 1 1382 0 is_stmt 1
 3078 00d2 FB68     		ldr	r3, [r7, #12]
 3079 00d4 1C46     		mov	r4, r3
 3080 00d6 07F11403 		add	r3, r7, #20
 3081 00da 93E80700 		ldmia	r3, {r0, r1, r2}
 3082 00de 84E80700 		stmia	r4, {r0, r1, r2}
 3083              	.L202:
1383:Middlewares/Third_Party/FreeRTOS/Source/CMSIS_RTOS/cmsis_os.c **** }
 3084              		.loc 1 1383 0
 3085 00e2 F868     		ldr	r0, [r7, #12]
 3086 00e4 2C37     		adds	r7, r7, #44
 3087              	.LCFI188:
 3088              		.cfi_def_cfa_offset 12
 3089 00e6 BD46     		mov	sp, r7
 3090              	.LCFI189:
 3091              		.cfi_def_cfa_register 13
 3092              		@ sp needed
 3093 00e8 90BD     		pop	{r4, r7, pc}
 3094              	.L217:
ARM GAS  /tmp/ccVQttFk.s 			page 85


 3095 00ea 00BF     		.align	2
 3096              	.L216:
 3097 00ec 04ED00E0 		.word	-536810236
 3098              		.cfi_endproc
 3099              	.LFE68:
 3101              		.section	.text.osMailFree,"ax",%progbits
 3102              		.align	2
 3103              		.global	osMailFree
 3104              		.thumb
 3105              		.thumb_func
 3107              	osMailFree:
 3108              	.LFB69:
1384:Middlewares/Third_Party/FreeRTOS/Source/CMSIS_RTOS/cmsis_os.c **** 
1385:Middlewares/Third_Party/FreeRTOS/Source/CMSIS_RTOS/cmsis_os.c **** /**
1386:Middlewares/Third_Party/FreeRTOS/Source/CMSIS_RTOS/cmsis_os.c **** * @brief Free a memory block from a mail
1387:Middlewares/Third_Party/FreeRTOS/Source/CMSIS_RTOS/cmsis_os.c **** * @param  queue_id mail queue ID obtained with \ref osMailCreate.
1388:Middlewares/Third_Party/FreeRTOS/Source/CMSIS_RTOS/cmsis_os.c **** * @param  mail     pointer to the memory block that was obtained with \ref osMailGet.
1389:Middlewares/Third_Party/FreeRTOS/Source/CMSIS_RTOS/cmsis_os.c **** * @retval status code that indicates the execution status of the function.
1390:Middlewares/Third_Party/FreeRTOS/Source/CMSIS_RTOS/cmsis_os.c **** * @note   MUST REMAIN UNCHANGED: \b osMailFree shall be consistent in every CMSIS-RTOS.
1391:Middlewares/Third_Party/FreeRTOS/Source/CMSIS_RTOS/cmsis_os.c **** */
1392:Middlewares/Third_Party/FreeRTOS/Source/CMSIS_RTOS/cmsis_os.c **** osStatus osMailFree (osMailQId queue_id, void *mail)
1393:Middlewares/Third_Party/FreeRTOS/Source/CMSIS_RTOS/cmsis_os.c **** {
 3109              		.loc 1 1393 0
 3110              		.cfi_startproc
 3111              		@ args = 0, pretend = 0, frame = 8
 3112              		@ frame_needed = 1, uses_anonymous_args = 0
 3113 0000 80B5     		push	{r7, lr}
 3114              	.LCFI190:
 3115              		.cfi_def_cfa_offset 8
 3116              		.cfi_offset 7, -8
 3117              		.cfi_offset 14, -4
 3118 0002 82B0     		sub	sp, sp, #8
 3119              	.LCFI191:
 3120              		.cfi_def_cfa_offset 16
 3121 0004 00AF     		add	r7, sp, #0
 3122              	.LCFI192:
 3123              		.cfi_def_cfa_register 7
 3124 0006 7860     		str	r0, [r7, #4]
 3125 0008 3960     		str	r1, [r7]
1394:Middlewares/Third_Party/FreeRTOS/Source/CMSIS_RTOS/cmsis_os.c ****   if (queue_id == NULL) {
 3126              		.loc 1 1394 0
 3127 000a 7B68     		ldr	r3, [r7, #4]
 3128 000c 002B     		cmp	r3, #0
 3129 000e 01D1     		bne	.L219
1395:Middlewares/Third_Party/FreeRTOS/Source/CMSIS_RTOS/cmsis_os.c ****     return osErrorParameter;
 3130              		.loc 1 1395 0
 3131 0010 8023     		movs	r3, #128
 3132 0012 06E0     		b	.L220
 3133              	.L219:
1396:Middlewares/Third_Party/FreeRTOS/Source/CMSIS_RTOS/cmsis_os.c ****   }
1397:Middlewares/Third_Party/FreeRTOS/Source/CMSIS_RTOS/cmsis_os.c ****   
1398:Middlewares/Third_Party/FreeRTOS/Source/CMSIS_RTOS/cmsis_os.c ****   return osPoolFree(queue_id->pool, mail);
 3134              		.loc 1 1398 0
 3135 0014 7B68     		ldr	r3, [r7, #4]
 3136 0016 9B68     		ldr	r3, [r3, #8]
 3137 0018 1846     		mov	r0, r3
 3138 001a 3968     		ldr	r1, [r7]
ARM GAS  /tmp/ccVQttFk.s 			page 86


 3139 001c FFF7FEFF 		bl	osPoolFree
 3140 0020 0346     		mov	r3, r0
 3141              	.L220:
1399:Middlewares/Third_Party/FreeRTOS/Source/CMSIS_RTOS/cmsis_os.c **** }
 3142              		.loc 1 1399 0
 3143 0022 1846     		mov	r0, r3
 3144 0024 0837     		adds	r7, r7, #8
 3145              	.LCFI193:
 3146              		.cfi_def_cfa_offset 8
 3147 0026 BD46     		mov	sp, r7
 3148              	.LCFI194:
 3149              		.cfi_def_cfa_register 13
 3150              		@ sp needed
 3151 0028 80BD     		pop	{r7, pc}
 3152              		.cfi_endproc
 3153              	.LFE69:
 3155 002a 00BF     		.section	.text.osSystickHandler,"ax",%progbits
 3156              		.align	2
 3157              		.global	osSystickHandler
 3158              		.thumb
 3159              		.thumb_func
 3161              	osSystickHandler:
 3162              	.LFB70:
1400:Middlewares/Third_Party/FreeRTOS/Source/CMSIS_RTOS/cmsis_os.c **** #endif  /* Use Mail Queues */
1401:Middlewares/Third_Party/FreeRTOS/Source/CMSIS_RTOS/cmsis_os.c **** 
1402:Middlewares/Third_Party/FreeRTOS/Source/CMSIS_RTOS/cmsis_os.c **** /*************************** Additional specific APIs to Free RTOS ************/
1403:Middlewares/Third_Party/FreeRTOS/Source/CMSIS_RTOS/cmsis_os.c **** /**
1404:Middlewares/Third_Party/FreeRTOS/Source/CMSIS_RTOS/cmsis_os.c **** * @brief  Handles the tick increment
1405:Middlewares/Third_Party/FreeRTOS/Source/CMSIS_RTOS/cmsis_os.c **** * @param  none.
1406:Middlewares/Third_Party/FreeRTOS/Source/CMSIS_RTOS/cmsis_os.c **** * @retval none.
1407:Middlewares/Third_Party/FreeRTOS/Source/CMSIS_RTOS/cmsis_os.c **** */
1408:Middlewares/Third_Party/FreeRTOS/Source/CMSIS_RTOS/cmsis_os.c **** void osSystickHandler(void)
1409:Middlewares/Third_Party/FreeRTOS/Source/CMSIS_RTOS/cmsis_os.c **** {
 3163              		.loc 1 1409 0
 3164              		.cfi_startproc
 3165              		@ args = 0, pretend = 0, frame = 0
 3166              		@ frame_needed = 1, uses_anonymous_args = 0
 3167 0000 80B5     		push	{r7, lr}
 3168              	.LCFI195:
 3169              		.cfi_def_cfa_offset 8
 3170              		.cfi_offset 7, -8
 3171              		.cfi_offset 14, -4
 3172 0002 00AF     		add	r7, sp, #0
 3173              	.LCFI196:
 3174              		.cfi_def_cfa_register 7
1410:Middlewares/Third_Party/FreeRTOS/Source/CMSIS_RTOS/cmsis_os.c **** 
1411:Middlewares/Third_Party/FreeRTOS/Source/CMSIS_RTOS/cmsis_os.c **** #if (INCLUDE_xTaskGetSchedulerState  == 1 )
1412:Middlewares/Third_Party/FreeRTOS/Source/CMSIS_RTOS/cmsis_os.c ****   if (xTaskGetSchedulerState() != taskSCHEDULER_NOT_STARTED)
 3175              		.loc 1 1412 0
 3176 0004 FFF7FEFF 		bl	xTaskGetSchedulerState
 3177 0008 0346     		mov	r3, r0
 3178 000a 012B     		cmp	r3, #1
 3179 000c 01D0     		beq	.L221
1413:Middlewares/Third_Party/FreeRTOS/Source/CMSIS_RTOS/cmsis_os.c ****   {
1414:Middlewares/Third_Party/FreeRTOS/Source/CMSIS_RTOS/cmsis_os.c **** #endif  /* INCLUDE_xTaskGetSchedulerState */  
1415:Middlewares/Third_Party/FreeRTOS/Source/CMSIS_RTOS/cmsis_os.c ****     xPortSysTickHandler();
 3180              		.loc 1 1415 0
ARM GAS  /tmp/ccVQttFk.s 			page 87


 3181 000e FFF7FEFF 		bl	xPortSysTickHandler
 3182              	.L221:
1416:Middlewares/Third_Party/FreeRTOS/Source/CMSIS_RTOS/cmsis_os.c **** #if (INCLUDE_xTaskGetSchedulerState  == 1 )
1417:Middlewares/Third_Party/FreeRTOS/Source/CMSIS_RTOS/cmsis_os.c ****   }
1418:Middlewares/Third_Party/FreeRTOS/Source/CMSIS_RTOS/cmsis_os.c **** #endif  /* INCLUDE_xTaskGetSchedulerState */  
1419:Middlewares/Third_Party/FreeRTOS/Source/CMSIS_RTOS/cmsis_os.c **** }
 3183              		.loc 1 1419 0
 3184 0012 80BD     		pop	{r7, pc}
 3185              		.cfi_endproc
 3186              	.LFE70:
 3188              		.section	.text.osThreadSuspend,"ax",%progbits
 3189              		.align	2
 3190              		.global	osThreadSuspend
 3191              		.thumb
 3192              		.thumb_func
 3194              	osThreadSuspend:
 3195              	.LFB71:
1420:Middlewares/Third_Party/FreeRTOS/Source/CMSIS_RTOS/cmsis_os.c **** 
1421:Middlewares/Third_Party/FreeRTOS/Source/CMSIS_RTOS/cmsis_os.c **** #if ( INCLUDE_eTaskGetState == 1 )
1422:Middlewares/Third_Party/FreeRTOS/Source/CMSIS_RTOS/cmsis_os.c **** /**
1423:Middlewares/Third_Party/FreeRTOS/Source/CMSIS_RTOS/cmsis_os.c **** * @brief  Obtain the state of any thread.
1424:Middlewares/Third_Party/FreeRTOS/Source/CMSIS_RTOS/cmsis_os.c **** * @param   thread_id   thread ID obtained by \ref osThreadCreate or \ref osThreadGetId.
1425:Middlewares/Third_Party/FreeRTOS/Source/CMSIS_RTOS/cmsis_os.c **** * @retval  the stae of the thread, states are encoded by the osThreadState enumerated type.
1426:Middlewares/Third_Party/FreeRTOS/Source/CMSIS_RTOS/cmsis_os.c **** */
1427:Middlewares/Third_Party/FreeRTOS/Source/CMSIS_RTOS/cmsis_os.c **** osThreadState osThreadGetState(osThreadId thread_id)
1428:Middlewares/Third_Party/FreeRTOS/Source/CMSIS_RTOS/cmsis_os.c **** {
1429:Middlewares/Third_Party/FreeRTOS/Source/CMSIS_RTOS/cmsis_os.c ****   eTaskState ThreadState;
1430:Middlewares/Third_Party/FreeRTOS/Source/CMSIS_RTOS/cmsis_os.c ****   osThreadState result;
1431:Middlewares/Third_Party/FreeRTOS/Source/CMSIS_RTOS/cmsis_os.c ****   
1432:Middlewares/Third_Party/FreeRTOS/Source/CMSIS_RTOS/cmsis_os.c ****   ThreadState = eTaskGetState(thread_id);
1433:Middlewares/Third_Party/FreeRTOS/Source/CMSIS_RTOS/cmsis_os.c ****   
1434:Middlewares/Third_Party/FreeRTOS/Source/CMSIS_RTOS/cmsis_os.c ****   switch (ThreadState)
1435:Middlewares/Third_Party/FreeRTOS/Source/CMSIS_RTOS/cmsis_os.c ****   {
1436:Middlewares/Third_Party/FreeRTOS/Source/CMSIS_RTOS/cmsis_os.c ****   case eRunning :
1437:Middlewares/Third_Party/FreeRTOS/Source/CMSIS_RTOS/cmsis_os.c ****     result = osThreadRunning;
1438:Middlewares/Third_Party/FreeRTOS/Source/CMSIS_RTOS/cmsis_os.c ****     break;
1439:Middlewares/Third_Party/FreeRTOS/Source/CMSIS_RTOS/cmsis_os.c ****   case eReady :
1440:Middlewares/Third_Party/FreeRTOS/Source/CMSIS_RTOS/cmsis_os.c ****     result = osThreadReady;
1441:Middlewares/Third_Party/FreeRTOS/Source/CMSIS_RTOS/cmsis_os.c ****     break;
1442:Middlewares/Third_Party/FreeRTOS/Source/CMSIS_RTOS/cmsis_os.c ****   case eBlocked :
1443:Middlewares/Third_Party/FreeRTOS/Source/CMSIS_RTOS/cmsis_os.c ****     result = osThreadBlocked;
1444:Middlewares/Third_Party/FreeRTOS/Source/CMSIS_RTOS/cmsis_os.c ****     break;
1445:Middlewares/Third_Party/FreeRTOS/Source/CMSIS_RTOS/cmsis_os.c ****   case eSuspended :
1446:Middlewares/Third_Party/FreeRTOS/Source/CMSIS_RTOS/cmsis_os.c ****     result = osThreadSuspended;
1447:Middlewares/Third_Party/FreeRTOS/Source/CMSIS_RTOS/cmsis_os.c ****     break;
1448:Middlewares/Third_Party/FreeRTOS/Source/CMSIS_RTOS/cmsis_os.c ****   case eDeleted :
1449:Middlewares/Third_Party/FreeRTOS/Source/CMSIS_RTOS/cmsis_os.c ****     result = osThreadDeleted;
1450:Middlewares/Third_Party/FreeRTOS/Source/CMSIS_RTOS/cmsis_os.c ****     break;
1451:Middlewares/Third_Party/FreeRTOS/Source/CMSIS_RTOS/cmsis_os.c ****   default:
1452:Middlewares/Third_Party/FreeRTOS/Source/CMSIS_RTOS/cmsis_os.c ****     result = osThreadError;
1453:Middlewares/Third_Party/FreeRTOS/Source/CMSIS_RTOS/cmsis_os.c ****   } 
1454:Middlewares/Third_Party/FreeRTOS/Source/CMSIS_RTOS/cmsis_os.c ****   
1455:Middlewares/Third_Party/FreeRTOS/Source/CMSIS_RTOS/cmsis_os.c ****   return result;
1456:Middlewares/Third_Party/FreeRTOS/Source/CMSIS_RTOS/cmsis_os.c **** }
1457:Middlewares/Third_Party/FreeRTOS/Source/CMSIS_RTOS/cmsis_os.c **** #endif /* INCLUDE_eTaskGetState */
1458:Middlewares/Third_Party/FreeRTOS/Source/CMSIS_RTOS/cmsis_os.c **** 
1459:Middlewares/Third_Party/FreeRTOS/Source/CMSIS_RTOS/cmsis_os.c **** #if (INCLUDE_eTaskGetState == 1)
ARM GAS  /tmp/ccVQttFk.s 			page 88


1460:Middlewares/Third_Party/FreeRTOS/Source/CMSIS_RTOS/cmsis_os.c **** /**
1461:Middlewares/Third_Party/FreeRTOS/Source/CMSIS_RTOS/cmsis_os.c **** * @brief Check if a thread is already suspended or not.
1462:Middlewares/Third_Party/FreeRTOS/Source/CMSIS_RTOS/cmsis_os.c **** * @param thread_id thread ID obtained by \ref osThreadCreate or \ref osThreadGetId.
1463:Middlewares/Third_Party/FreeRTOS/Source/CMSIS_RTOS/cmsis_os.c **** * @retval status code that indicates the execution status of the function.
1464:Middlewares/Third_Party/FreeRTOS/Source/CMSIS_RTOS/cmsis_os.c **** */
1465:Middlewares/Third_Party/FreeRTOS/Source/CMSIS_RTOS/cmsis_os.c **** osStatus osThreadIsSuspended(osThreadId thread_id)
1466:Middlewares/Third_Party/FreeRTOS/Source/CMSIS_RTOS/cmsis_os.c **** {
1467:Middlewares/Third_Party/FreeRTOS/Source/CMSIS_RTOS/cmsis_os.c ****   if (eTaskGetState(thread_id) == eSuspended)
1468:Middlewares/Third_Party/FreeRTOS/Source/CMSIS_RTOS/cmsis_os.c ****     return osOK;
1469:Middlewares/Third_Party/FreeRTOS/Source/CMSIS_RTOS/cmsis_os.c ****   else
1470:Middlewares/Third_Party/FreeRTOS/Source/CMSIS_RTOS/cmsis_os.c ****     return osErrorOS;
1471:Middlewares/Third_Party/FreeRTOS/Source/CMSIS_RTOS/cmsis_os.c **** }
1472:Middlewares/Third_Party/FreeRTOS/Source/CMSIS_RTOS/cmsis_os.c **** #endif /* INCLUDE_eTaskGetState */
1473:Middlewares/Third_Party/FreeRTOS/Source/CMSIS_RTOS/cmsis_os.c **** /**
1474:Middlewares/Third_Party/FreeRTOS/Source/CMSIS_RTOS/cmsis_os.c **** * @brief  Suspend execution of a thread.
1475:Middlewares/Third_Party/FreeRTOS/Source/CMSIS_RTOS/cmsis_os.c **** * @param   thread_id   thread ID obtained by \ref osThreadCreate or \ref osThreadGetId.
1476:Middlewares/Third_Party/FreeRTOS/Source/CMSIS_RTOS/cmsis_os.c **** * @retval  status code that indicates the execution status of the function.
1477:Middlewares/Third_Party/FreeRTOS/Source/CMSIS_RTOS/cmsis_os.c **** */
1478:Middlewares/Third_Party/FreeRTOS/Source/CMSIS_RTOS/cmsis_os.c **** osStatus osThreadSuspend (osThreadId thread_id)
1479:Middlewares/Third_Party/FreeRTOS/Source/CMSIS_RTOS/cmsis_os.c **** {
 3196              		.loc 1 1479 0
 3197              		.cfi_startproc
 3198              		@ args = 0, pretend = 0, frame = 8
 3199              		@ frame_needed = 1, uses_anonymous_args = 0
 3200 0000 80B5     		push	{r7, lr}
 3201              	.LCFI197:
 3202              		.cfi_def_cfa_offset 8
 3203              		.cfi_offset 7, -8
 3204              		.cfi_offset 14, -4
 3205 0002 82B0     		sub	sp, sp, #8
 3206              	.LCFI198:
 3207              		.cfi_def_cfa_offset 16
 3208 0004 00AF     		add	r7, sp, #0
 3209              	.LCFI199:
 3210              		.cfi_def_cfa_register 7
 3211 0006 7860     		str	r0, [r7, #4]
1480:Middlewares/Third_Party/FreeRTOS/Source/CMSIS_RTOS/cmsis_os.c **** #if (INCLUDE_vTaskSuspend == 1)
1481:Middlewares/Third_Party/FreeRTOS/Source/CMSIS_RTOS/cmsis_os.c ****     vTaskSuspend(thread_id);
 3212              		.loc 1 1481 0
 3213 0008 7868     		ldr	r0, [r7, #4]
 3214 000a FFF7FEFF 		bl	vTaskSuspend
1482:Middlewares/Third_Party/FreeRTOS/Source/CMSIS_RTOS/cmsis_os.c ****   
1483:Middlewares/Third_Party/FreeRTOS/Source/CMSIS_RTOS/cmsis_os.c ****   return osOK;
 3215              		.loc 1 1483 0
 3216 000e 0023     		movs	r3, #0
1484:Middlewares/Third_Party/FreeRTOS/Source/CMSIS_RTOS/cmsis_os.c **** #else
1485:Middlewares/Third_Party/FreeRTOS/Source/CMSIS_RTOS/cmsis_os.c ****   return osErrorResource;
1486:Middlewares/Third_Party/FreeRTOS/Source/CMSIS_RTOS/cmsis_os.c **** #endif
1487:Middlewares/Third_Party/FreeRTOS/Source/CMSIS_RTOS/cmsis_os.c **** }
 3217              		.loc 1 1487 0
 3218 0010 1846     		mov	r0, r3
 3219 0012 0837     		adds	r7, r7, #8
 3220              	.LCFI200:
 3221              		.cfi_def_cfa_offset 8
 3222 0014 BD46     		mov	sp, r7
 3223              	.LCFI201:
 3224              		.cfi_def_cfa_register 13
ARM GAS  /tmp/ccVQttFk.s 			page 89


 3225              		@ sp needed
 3226 0016 80BD     		pop	{r7, pc}
 3227              		.cfi_endproc
 3228              	.LFE71:
 3230              		.section	.text.osThreadResume,"ax",%progbits
 3231              		.align	2
 3232              		.global	osThreadResume
 3233              		.thumb
 3234              		.thumb_func
 3236              	osThreadResume:
 3237              	.LFB72:
1488:Middlewares/Third_Party/FreeRTOS/Source/CMSIS_RTOS/cmsis_os.c **** 
1489:Middlewares/Third_Party/FreeRTOS/Source/CMSIS_RTOS/cmsis_os.c **** /**
1490:Middlewares/Third_Party/FreeRTOS/Source/CMSIS_RTOS/cmsis_os.c **** * @brief  Resume execution of a suspended thread.
1491:Middlewares/Third_Party/FreeRTOS/Source/CMSIS_RTOS/cmsis_os.c **** * @param   thread_id   thread ID obtained by \ref osThreadCreate or \ref osThreadGetId.
1492:Middlewares/Third_Party/FreeRTOS/Source/CMSIS_RTOS/cmsis_os.c **** * @retval  status code that indicates the execution status of the function.
1493:Middlewares/Third_Party/FreeRTOS/Source/CMSIS_RTOS/cmsis_os.c **** */
1494:Middlewares/Third_Party/FreeRTOS/Source/CMSIS_RTOS/cmsis_os.c **** osStatus osThreadResume (osThreadId thread_id)
1495:Middlewares/Third_Party/FreeRTOS/Source/CMSIS_RTOS/cmsis_os.c **** {
 3238              		.loc 1 1495 0
 3239              		.cfi_startproc
 3240              		@ args = 0, pretend = 0, frame = 8
 3241              		@ frame_needed = 1, uses_anonymous_args = 0
 3242 0000 80B5     		push	{r7, lr}
 3243              	.LCFI202:
 3244              		.cfi_def_cfa_offset 8
 3245              		.cfi_offset 7, -8
 3246              		.cfi_offset 14, -4
 3247 0002 82B0     		sub	sp, sp, #8
 3248              	.LCFI203:
 3249              		.cfi_def_cfa_offset 16
 3250 0004 00AF     		add	r7, sp, #0
 3251              	.LCFI204:
 3252              		.cfi_def_cfa_register 7
 3253 0006 7860     		str	r0, [r7, #4]
1496:Middlewares/Third_Party/FreeRTOS/Source/CMSIS_RTOS/cmsis_os.c **** #if (INCLUDE_vTaskSuspend == 1)  
1497:Middlewares/Third_Party/FreeRTOS/Source/CMSIS_RTOS/cmsis_os.c ****   if(inHandlerMode())
 3254              		.loc 1 1497 0
 3255 0008 FFF7FEFF 		bl	inHandlerMode
 3256 000c 0346     		mov	r3, r0
 3257 000e 002B     		cmp	r3, #0
 3258 0010 0ED0     		beq	.L226
1498:Middlewares/Third_Party/FreeRTOS/Source/CMSIS_RTOS/cmsis_os.c ****   {
1499:Middlewares/Third_Party/FreeRTOS/Source/CMSIS_RTOS/cmsis_os.c ****     if (xTaskResumeFromISR(thread_id) == pdTRUE)
 3259              		.loc 1 1499 0
 3260 0012 7868     		ldr	r0, [r7, #4]
 3261 0014 FFF7FEFF 		bl	xTaskResumeFromISR
 3262 0018 0346     		mov	r3, r0
 3263 001a 012B     		cmp	r3, #1
 3264 001c 0BD1     		bne	.L228
1500:Middlewares/Third_Party/FreeRTOS/Source/CMSIS_RTOS/cmsis_os.c ****     {
1501:Middlewares/Third_Party/FreeRTOS/Source/CMSIS_RTOS/cmsis_os.c ****       portYIELD_FROM_ISR(pdTRUE);
 3265              		.loc 1 1501 0 discriminator 1
 3266 001e 084B     		ldr	r3, .L230
 3267 0020 4FF08052 		mov	r2, #268435456
 3268 0024 1A60     		str	r2, [r3]
 3269              	@ 1501 "Middlewares/Third_Party/FreeRTOS/Source/CMSIS_RTOS/cmsis_os.c" 1
ARM GAS  /tmp/ccVQttFk.s 			page 90


 3270 0026 BFF34F8F 		dsb
 3271              	@ 0 "" 2
 3272              	@ 1501 "Middlewares/Third_Party/FreeRTOS/Source/CMSIS_RTOS/cmsis_os.c" 1
 3273 002a BFF36F8F 		isb
 3274              	@ 0 "" 2
 3275              		.thumb
 3276 002e 02E0     		b	.L228
 3277              	.L226:
1502:Middlewares/Third_Party/FreeRTOS/Source/CMSIS_RTOS/cmsis_os.c ****     }
1503:Middlewares/Third_Party/FreeRTOS/Source/CMSIS_RTOS/cmsis_os.c ****   }
1504:Middlewares/Third_Party/FreeRTOS/Source/CMSIS_RTOS/cmsis_os.c ****   else
1505:Middlewares/Third_Party/FreeRTOS/Source/CMSIS_RTOS/cmsis_os.c ****   {
1506:Middlewares/Third_Party/FreeRTOS/Source/CMSIS_RTOS/cmsis_os.c ****     vTaskResume(thread_id);
 3278              		.loc 1 1506 0
 3279 0030 7868     		ldr	r0, [r7, #4]
 3280 0032 FFF7FEFF 		bl	vTaskResume
 3281              	.L228:
1507:Middlewares/Third_Party/FreeRTOS/Source/CMSIS_RTOS/cmsis_os.c ****   }
1508:Middlewares/Third_Party/FreeRTOS/Source/CMSIS_RTOS/cmsis_os.c ****   return osOK;
 3282              		.loc 1 1508 0
 3283 0036 0023     		movs	r3, #0
1509:Middlewares/Third_Party/FreeRTOS/Source/CMSIS_RTOS/cmsis_os.c **** #else
1510:Middlewares/Third_Party/FreeRTOS/Source/CMSIS_RTOS/cmsis_os.c ****   return osErrorResource;
1511:Middlewares/Third_Party/FreeRTOS/Source/CMSIS_RTOS/cmsis_os.c **** #endif
1512:Middlewares/Third_Party/FreeRTOS/Source/CMSIS_RTOS/cmsis_os.c **** }
 3284              		.loc 1 1512 0
 3285 0038 1846     		mov	r0, r3
 3286 003a 0837     		adds	r7, r7, #8
 3287              	.LCFI205:
 3288              		.cfi_def_cfa_offset 8
 3289 003c BD46     		mov	sp, r7
 3290              	.LCFI206:
 3291              		.cfi_def_cfa_register 13
 3292              		@ sp needed
 3293 003e 80BD     		pop	{r7, pc}
 3294              	.L231:
 3295              		.align	2
 3296              	.L230:
 3297 0040 04ED00E0 		.word	-536810236
 3298              		.cfi_endproc
 3299              	.LFE72:
 3301              		.section	.text.osThreadSuspendAll,"ax",%progbits
 3302              		.align	2
 3303              		.global	osThreadSuspendAll
 3304              		.thumb
 3305              		.thumb_func
 3307              	osThreadSuspendAll:
 3308              	.LFB73:
1513:Middlewares/Third_Party/FreeRTOS/Source/CMSIS_RTOS/cmsis_os.c **** 
1514:Middlewares/Third_Party/FreeRTOS/Source/CMSIS_RTOS/cmsis_os.c **** /**
1515:Middlewares/Third_Party/FreeRTOS/Source/CMSIS_RTOS/cmsis_os.c **** * @brief  Suspend execution of a all active threads.
1516:Middlewares/Third_Party/FreeRTOS/Source/CMSIS_RTOS/cmsis_os.c **** * @retval  status code that indicates the execution status of the function.
1517:Middlewares/Third_Party/FreeRTOS/Source/CMSIS_RTOS/cmsis_os.c **** */
1518:Middlewares/Third_Party/FreeRTOS/Source/CMSIS_RTOS/cmsis_os.c **** osStatus osThreadSuspendAll (void)
1519:Middlewares/Third_Party/FreeRTOS/Source/CMSIS_RTOS/cmsis_os.c **** {
 3309              		.loc 1 1519 0
 3310              		.cfi_startproc
ARM GAS  /tmp/ccVQttFk.s 			page 91


 3311              		@ args = 0, pretend = 0, frame = 0
 3312              		@ frame_needed = 1, uses_anonymous_args = 0
 3313 0000 80B5     		push	{r7, lr}
 3314              	.LCFI207:
 3315              		.cfi_def_cfa_offset 8
 3316              		.cfi_offset 7, -8
 3317              		.cfi_offset 14, -4
 3318 0002 00AF     		add	r7, sp, #0
 3319              	.LCFI208:
 3320              		.cfi_def_cfa_register 7
1520:Middlewares/Third_Party/FreeRTOS/Source/CMSIS_RTOS/cmsis_os.c ****   vTaskSuspendAll();
 3321              		.loc 1 1520 0
 3322 0004 FFF7FEFF 		bl	vTaskSuspendAll
1521:Middlewares/Third_Party/FreeRTOS/Source/CMSIS_RTOS/cmsis_os.c ****   
1522:Middlewares/Third_Party/FreeRTOS/Source/CMSIS_RTOS/cmsis_os.c ****   return osOK;
 3323              		.loc 1 1522 0
 3324 0008 0023     		movs	r3, #0
1523:Middlewares/Third_Party/FreeRTOS/Source/CMSIS_RTOS/cmsis_os.c **** }
 3325              		.loc 1 1523 0
 3326 000a 1846     		mov	r0, r3
 3327 000c 80BD     		pop	{r7, pc}
 3328              		.cfi_endproc
 3329              	.LFE73:
 3331 000e 00BF     		.section	.text.osThreadResumeAll,"ax",%progbits
 3332              		.align	2
 3333              		.global	osThreadResumeAll
 3334              		.thumb
 3335              		.thumb_func
 3337              	osThreadResumeAll:
 3338              	.LFB74:
1524:Middlewares/Third_Party/FreeRTOS/Source/CMSIS_RTOS/cmsis_os.c **** 
1525:Middlewares/Third_Party/FreeRTOS/Source/CMSIS_RTOS/cmsis_os.c **** /**
1526:Middlewares/Third_Party/FreeRTOS/Source/CMSIS_RTOS/cmsis_os.c **** * @brief  Resume execution of a all suspended threads.
1527:Middlewares/Third_Party/FreeRTOS/Source/CMSIS_RTOS/cmsis_os.c **** * @retval  status code that indicates the execution status of the function.
1528:Middlewares/Third_Party/FreeRTOS/Source/CMSIS_RTOS/cmsis_os.c **** */
1529:Middlewares/Third_Party/FreeRTOS/Source/CMSIS_RTOS/cmsis_os.c **** osStatus osThreadResumeAll (void)
1530:Middlewares/Third_Party/FreeRTOS/Source/CMSIS_RTOS/cmsis_os.c **** {
 3339              		.loc 1 1530 0
 3340              		.cfi_startproc
 3341              		@ args = 0, pretend = 0, frame = 0
 3342              		@ frame_needed = 1, uses_anonymous_args = 0
 3343 0000 80B5     		push	{r7, lr}
 3344              	.LCFI209:
 3345              		.cfi_def_cfa_offset 8
 3346              		.cfi_offset 7, -8
 3347              		.cfi_offset 14, -4
 3348 0002 00AF     		add	r7, sp, #0
 3349              	.LCFI210:
 3350              		.cfi_def_cfa_register 7
1531:Middlewares/Third_Party/FreeRTOS/Source/CMSIS_RTOS/cmsis_os.c ****   if (xTaskResumeAll() == pdTRUE)
 3351              		.loc 1 1531 0
 3352 0004 FFF7FEFF 		bl	xTaskResumeAll
 3353 0008 0346     		mov	r3, r0
 3354 000a 012B     		cmp	r3, #1
 3355 000c 01D1     		bne	.L235
1532:Middlewares/Third_Party/FreeRTOS/Source/CMSIS_RTOS/cmsis_os.c ****     return osOK;
 3356              		.loc 1 1532 0
ARM GAS  /tmp/ccVQttFk.s 			page 92


 3357 000e 0023     		movs	r3, #0
 3358 0010 00E0     		b	.L236
 3359              	.L235:
1533:Middlewares/Third_Party/FreeRTOS/Source/CMSIS_RTOS/cmsis_os.c ****   else
1534:Middlewares/Third_Party/FreeRTOS/Source/CMSIS_RTOS/cmsis_os.c ****     return osErrorOS;
 3360              		.loc 1 1534 0
 3361 0012 FF23     		movs	r3, #255
 3362              	.L236:
1535:Middlewares/Third_Party/FreeRTOS/Source/CMSIS_RTOS/cmsis_os.c ****   
1536:Middlewares/Third_Party/FreeRTOS/Source/CMSIS_RTOS/cmsis_os.c **** }
 3363              		.loc 1 1536 0
 3364 0014 1846     		mov	r0, r3
 3365 0016 80BD     		pop	{r7, pc}
 3366              		.cfi_endproc
 3367              	.LFE74:
 3369              		.section	.text.osDelayUntil,"ax",%progbits
 3370              		.align	2
 3371              		.global	osDelayUntil
 3372              		.thumb
 3373              		.thumb_func
 3375              	osDelayUntil:
 3376              	.LFB75:
1537:Middlewares/Third_Party/FreeRTOS/Source/CMSIS_RTOS/cmsis_os.c **** 
1538:Middlewares/Third_Party/FreeRTOS/Source/CMSIS_RTOS/cmsis_os.c **** /**
1539:Middlewares/Third_Party/FreeRTOS/Source/CMSIS_RTOS/cmsis_os.c **** * @brief  Delay a task until a specified time
1540:Middlewares/Third_Party/FreeRTOS/Source/CMSIS_RTOS/cmsis_os.c **** * @param   PreviousWakeTime   Pointer to a variable that holds the time at which the 
1541:Middlewares/Third_Party/FreeRTOS/Source/CMSIS_RTOS/cmsis_os.c **** *          task was last unblocked. PreviousWakeTime must be initialised with the current time
1542:Middlewares/Third_Party/FreeRTOS/Source/CMSIS_RTOS/cmsis_os.c **** *          prior to its first use (PreviousWakeTime = osKernelSysTick() )
1543:Middlewares/Third_Party/FreeRTOS/Source/CMSIS_RTOS/cmsis_os.c **** * @param   millisec    time delay value
1544:Middlewares/Third_Party/FreeRTOS/Source/CMSIS_RTOS/cmsis_os.c **** * @retval  status code that indicates the execution status of the function.
1545:Middlewares/Third_Party/FreeRTOS/Source/CMSIS_RTOS/cmsis_os.c **** */
1546:Middlewares/Third_Party/FreeRTOS/Source/CMSIS_RTOS/cmsis_os.c **** osStatus osDelayUntil (uint32_t *PreviousWakeTime, uint32_t millisec)
1547:Middlewares/Third_Party/FreeRTOS/Source/CMSIS_RTOS/cmsis_os.c **** {
 3377              		.loc 1 1547 0
 3378              		.cfi_startproc
 3379              		@ args = 0, pretend = 0, frame = 16
 3380              		@ frame_needed = 1, uses_anonymous_args = 0
 3381 0000 80B5     		push	{r7, lr}
 3382              	.LCFI211:
 3383              		.cfi_def_cfa_offset 8
 3384              		.cfi_offset 7, -8
 3385              		.cfi_offset 14, -4
 3386 0002 84B0     		sub	sp, sp, #16
 3387              	.LCFI212:
 3388              		.cfi_def_cfa_offset 24
 3389 0004 00AF     		add	r7, sp, #0
 3390              	.LCFI213:
 3391              		.cfi_def_cfa_register 7
 3392 0006 7860     		str	r0, [r7, #4]
 3393 0008 3960     		str	r1, [r7]
1548:Middlewares/Third_Party/FreeRTOS/Source/CMSIS_RTOS/cmsis_os.c **** #if 1//INCLUDE_vTaskDelayUntil
1549:Middlewares/Third_Party/FreeRTOS/Source/CMSIS_RTOS/cmsis_os.c ****   TickType_t ticks = (millisec / portTICK_PERIOD_MS);
 3394              		.loc 1 1549 0
 3395 000a 3B68     		ldr	r3, [r7]
 3396 000c FB60     		str	r3, [r7, #12]
1550:Middlewares/Third_Party/FreeRTOS/Source/CMSIS_RTOS/cmsis_os.c ****   vTaskDelayUntil((TickType_t *) PreviousWakeTime, ticks ? ticks : 1);
 3397              		.loc 1 1550 0
ARM GAS  /tmp/ccVQttFk.s 			page 93


 3398 000e FB68     		ldr	r3, [r7, #12]
 3399 0010 002B     		cmp	r3, #0
 3400 0012 01D0     		beq	.L238
 3401              		.loc 1 1550 0 is_stmt 0 discriminator 1
 3402 0014 FB68     		ldr	r3, [r7, #12]
 3403 0016 00E0     		b	.L239
 3404              	.L238:
 3405              		.loc 1 1550 0 discriminator 2
 3406 0018 0123     		movs	r3, #1
 3407              	.L239:
 3408              		.loc 1 1550 0 discriminator 4
 3409 001a 7868     		ldr	r0, [r7, #4]
 3410 001c 1946     		mov	r1, r3
 3411 001e FFF7FEFF 		bl	vTaskDelayUntil
1551:Middlewares/Third_Party/FreeRTOS/Source/CMSIS_RTOS/cmsis_os.c ****   
1552:Middlewares/Third_Party/FreeRTOS/Source/CMSIS_RTOS/cmsis_os.c ****   return osOK;
 3412              		.loc 1 1552 0 is_stmt 1 discriminator 4
 3413 0022 0023     		movs	r3, #0
1553:Middlewares/Third_Party/FreeRTOS/Source/CMSIS_RTOS/cmsis_os.c **** #else
1554:Middlewares/Third_Party/FreeRTOS/Source/CMSIS_RTOS/cmsis_os.c ****   (void) millisec;
1555:Middlewares/Third_Party/FreeRTOS/Source/CMSIS_RTOS/cmsis_os.c ****   (void) PreviousWakeTime;
1556:Middlewares/Third_Party/FreeRTOS/Source/CMSIS_RTOS/cmsis_os.c ****   
1557:Middlewares/Third_Party/FreeRTOS/Source/CMSIS_RTOS/cmsis_os.c ****   return osErrorResource;
1558:Middlewares/Third_Party/FreeRTOS/Source/CMSIS_RTOS/cmsis_os.c **** #endif
1559:Middlewares/Third_Party/FreeRTOS/Source/CMSIS_RTOS/cmsis_os.c **** }
 3414              		.loc 1 1559 0 discriminator 4
 3415 0024 1846     		mov	r0, r3
 3416 0026 1037     		adds	r7, r7, #16
 3417              	.LCFI214:
 3418              		.cfi_def_cfa_offset 8
 3419 0028 BD46     		mov	sp, r7
 3420              	.LCFI215:
 3421              		.cfi_def_cfa_register 13
 3422              		@ sp needed
 3423 002a 80BD     		pop	{r7, pc}
 3424              		.cfi_endproc
 3425              	.LFE75:
 3427              		.section	.text.osAbortDelay,"ax",%progbits
 3428              		.align	2
 3429              		.global	osAbortDelay
 3430              		.thumb
 3431              		.thumb_func
 3433              	osAbortDelay:
 3434              	.LFB76:
1560:Middlewares/Third_Party/FreeRTOS/Source/CMSIS_RTOS/cmsis_os.c **** 
1561:Middlewares/Third_Party/FreeRTOS/Source/CMSIS_RTOS/cmsis_os.c **** /**
1562:Middlewares/Third_Party/FreeRTOS/Source/CMSIS_RTOS/cmsis_os.c **** * @brief   Abort the delay for a specific thread
1563:Middlewares/Third_Party/FreeRTOS/Source/CMSIS_RTOS/cmsis_os.c **** * @param   thread_id   thread ID obtained by \ref osThreadCreate or \ref osThreadGetId   
1564:Middlewares/Third_Party/FreeRTOS/Source/CMSIS_RTOS/cmsis_os.c **** * @retval  status code that indicates the execution status of the function.
1565:Middlewares/Third_Party/FreeRTOS/Source/CMSIS_RTOS/cmsis_os.c **** */
1566:Middlewares/Third_Party/FreeRTOS/Source/CMSIS_RTOS/cmsis_os.c **** osStatus osAbortDelay(osThreadId thread_id)
1567:Middlewares/Third_Party/FreeRTOS/Source/CMSIS_RTOS/cmsis_os.c **** {
 3435              		.loc 1 1567 0
 3436              		.cfi_startproc
 3437              		@ args = 0, pretend = 0, frame = 8
 3438              		@ frame_needed = 1, uses_anonymous_args = 0
 3439              		@ link register save eliminated.
ARM GAS  /tmp/ccVQttFk.s 			page 94


 3440 0000 80B4     		push	{r7}
 3441              	.LCFI216:
 3442              		.cfi_def_cfa_offset 4
 3443              		.cfi_offset 7, -4
 3444 0002 83B0     		sub	sp, sp, #12
 3445              	.LCFI217:
 3446              		.cfi_def_cfa_offset 16
 3447 0004 00AF     		add	r7, sp, #0
 3448              	.LCFI218:
 3449              		.cfi_def_cfa_register 7
 3450 0006 7860     		str	r0, [r7, #4]
1568:Middlewares/Third_Party/FreeRTOS/Source/CMSIS_RTOS/cmsis_os.c **** #if INCLUDE_xTaskAbortDelay
1569:Middlewares/Third_Party/FreeRTOS/Source/CMSIS_RTOS/cmsis_os.c ****   
1570:Middlewares/Third_Party/FreeRTOS/Source/CMSIS_RTOS/cmsis_os.c ****   xTaskAbortDelay(thread_id);
1571:Middlewares/Third_Party/FreeRTOS/Source/CMSIS_RTOS/cmsis_os.c ****   
1572:Middlewares/Third_Party/FreeRTOS/Source/CMSIS_RTOS/cmsis_os.c ****   return osOK;
1573:Middlewares/Third_Party/FreeRTOS/Source/CMSIS_RTOS/cmsis_os.c **** #else
1574:Middlewares/Third_Party/FreeRTOS/Source/CMSIS_RTOS/cmsis_os.c ****   (void) thread_id;
1575:Middlewares/Third_Party/FreeRTOS/Source/CMSIS_RTOS/cmsis_os.c ****   
1576:Middlewares/Third_Party/FreeRTOS/Source/CMSIS_RTOS/cmsis_os.c ****   return osErrorResource;
 3451              		.loc 1 1576 0
 3452 0008 8123     		movs	r3, #129
1577:Middlewares/Third_Party/FreeRTOS/Source/CMSIS_RTOS/cmsis_os.c **** #endif
1578:Middlewares/Third_Party/FreeRTOS/Source/CMSIS_RTOS/cmsis_os.c **** }
 3453              		.loc 1 1578 0
 3454 000a 1846     		mov	r0, r3
 3455 000c 0C37     		adds	r7, r7, #12
 3456              	.LCFI219:
 3457              		.cfi_def_cfa_offset 4
 3458 000e BD46     		mov	sp, r7
 3459              	.LCFI220:
 3460              		.cfi_def_cfa_register 13
 3461              		@ sp needed
 3462 0010 5DF8047B 		ldr	r7, [sp], #4
 3463              	.LCFI221:
 3464              		.cfi_restore 7
 3465              		.cfi_def_cfa_offset 0
 3466 0014 7047     		bx	lr
 3467              		.cfi_endproc
 3468              	.LFE76:
 3470 0016 00BF     		.section	.text.osThreadList,"ax",%progbits
 3471              		.align	2
 3472              		.global	osThreadList
 3473              		.thumb
 3474              		.thumb_func
 3476              	osThreadList:
 3477              	.LFB77:
1579:Middlewares/Third_Party/FreeRTOS/Source/CMSIS_RTOS/cmsis_os.c **** 
1580:Middlewares/Third_Party/FreeRTOS/Source/CMSIS_RTOS/cmsis_os.c **** /**
1581:Middlewares/Third_Party/FreeRTOS/Source/CMSIS_RTOS/cmsis_os.c **** * @brief   Lists all the current threads, along with their current state 
1582:Middlewares/Third_Party/FreeRTOS/Source/CMSIS_RTOS/cmsis_os.c **** *          and stack usage high water mark.
1583:Middlewares/Third_Party/FreeRTOS/Source/CMSIS_RTOS/cmsis_os.c **** * @param   buffer   A buffer into which the above mentioned details
1584:Middlewares/Third_Party/FreeRTOS/Source/CMSIS_RTOS/cmsis_os.c **** *          will be written
1585:Middlewares/Third_Party/FreeRTOS/Source/CMSIS_RTOS/cmsis_os.c **** * @retval  status code that indicates the execution status of the function.
1586:Middlewares/Third_Party/FreeRTOS/Source/CMSIS_RTOS/cmsis_os.c **** */
1587:Middlewares/Third_Party/FreeRTOS/Source/CMSIS_RTOS/cmsis_os.c **** osStatus osThreadList (uint8_t *buffer)
1588:Middlewares/Third_Party/FreeRTOS/Source/CMSIS_RTOS/cmsis_os.c **** {
ARM GAS  /tmp/ccVQttFk.s 			page 95


 3478              		.loc 1 1588 0
 3479              		.cfi_startproc
 3480              		@ args = 0, pretend = 0, frame = 8
 3481              		@ frame_needed = 1, uses_anonymous_args = 0
 3482              		@ link register save eliminated.
 3483 0000 80B4     		push	{r7}
 3484              	.LCFI222:
 3485              		.cfi_def_cfa_offset 4
 3486              		.cfi_offset 7, -4
 3487 0002 83B0     		sub	sp, sp, #12
 3488              	.LCFI223:
 3489              		.cfi_def_cfa_offset 16
 3490 0004 00AF     		add	r7, sp, #0
 3491              	.LCFI224:
 3492              		.cfi_def_cfa_register 7
 3493 0006 7860     		str	r0, [r7, #4]
1589:Middlewares/Third_Party/FreeRTOS/Source/CMSIS_RTOS/cmsis_os.c **** #if ( ( configUSE_TRACE_FACILITY == 1 ) && ( configUSE_STATS_FORMATTING_FUNCTIONS == 1 ) )
1590:Middlewares/Third_Party/FreeRTOS/Source/CMSIS_RTOS/cmsis_os.c ****   vTaskList((char *)buffer);
1591:Middlewares/Third_Party/FreeRTOS/Source/CMSIS_RTOS/cmsis_os.c **** #endif
1592:Middlewares/Third_Party/FreeRTOS/Source/CMSIS_RTOS/cmsis_os.c ****   return osOK;
 3494              		.loc 1 1592 0
 3495 0008 0023     		movs	r3, #0
1593:Middlewares/Third_Party/FreeRTOS/Source/CMSIS_RTOS/cmsis_os.c **** }
 3496              		.loc 1 1593 0
 3497 000a 1846     		mov	r0, r3
 3498 000c 0C37     		adds	r7, r7, #12
 3499              	.LCFI225:
 3500              		.cfi_def_cfa_offset 4
 3501 000e BD46     		mov	sp, r7
 3502              	.LCFI226:
 3503              		.cfi_def_cfa_register 13
 3504              		@ sp needed
 3505 0010 5DF8047B 		ldr	r7, [sp], #4
 3506              	.LCFI227:
 3507              		.cfi_restore 7
 3508              		.cfi_def_cfa_offset 0
 3509 0014 7047     		bx	lr
 3510              		.cfi_endproc
 3511              	.LFE77:
 3513 0016 00BF     		.section	.text.osMessagePeek,"ax",%progbits
 3514              		.align	2
 3515              		.global	osMessagePeek
 3516              		.thumb
 3517              		.thumb_func
 3519              	osMessagePeek:
 3520              	.LFB78:
1594:Middlewares/Third_Party/FreeRTOS/Source/CMSIS_RTOS/cmsis_os.c **** 
1595:Middlewares/Third_Party/FreeRTOS/Source/CMSIS_RTOS/cmsis_os.c **** /**
1596:Middlewares/Third_Party/FreeRTOS/Source/CMSIS_RTOS/cmsis_os.c **** * @brief  Receive an item from a queue without removing the item from the queue.
1597:Middlewares/Third_Party/FreeRTOS/Source/CMSIS_RTOS/cmsis_os.c **** * @param  queue_id  message queue ID obtained with \ref osMessageCreate.
1598:Middlewares/Third_Party/FreeRTOS/Source/CMSIS_RTOS/cmsis_os.c **** * @param  millisec  timeout value or 0 in case of no time-out.
1599:Middlewares/Third_Party/FreeRTOS/Source/CMSIS_RTOS/cmsis_os.c **** * @retval event information that includes status code.
1600:Middlewares/Third_Party/FreeRTOS/Source/CMSIS_RTOS/cmsis_os.c **** */
1601:Middlewares/Third_Party/FreeRTOS/Source/CMSIS_RTOS/cmsis_os.c **** osEvent osMessagePeek (osMessageQId queue_id, uint32_t millisec)
1602:Middlewares/Third_Party/FreeRTOS/Source/CMSIS_RTOS/cmsis_os.c **** {
 3521              		.loc 1 1602 0
 3522              		.cfi_startproc
ARM GAS  /tmp/ccVQttFk.s 			page 96


 3523              		@ args = 0, pretend = 0, frame = 32
 3524              		@ frame_needed = 1, uses_anonymous_args = 0
 3525 0000 90B5     		push	{r4, r7, lr}
 3526              	.LCFI228:
 3527              		.cfi_def_cfa_offset 12
 3528              		.cfi_offset 4, -12
 3529              		.cfi_offset 7, -8
 3530              		.cfi_offset 14, -4
 3531 0002 89B0     		sub	sp, sp, #36
 3532              	.LCFI229:
 3533              		.cfi_def_cfa_offset 48
 3534 0004 00AF     		add	r7, sp, #0
 3535              	.LCFI230:
 3536              		.cfi_def_cfa_register 7
 3537 0006 F860     		str	r0, [r7, #12]
 3538 0008 B960     		str	r1, [r7, #8]
 3539 000a 7A60     		str	r2, [r7, #4]
1603:Middlewares/Third_Party/FreeRTOS/Source/CMSIS_RTOS/cmsis_os.c ****   TickType_t ticks;
1604:Middlewares/Third_Party/FreeRTOS/Source/CMSIS_RTOS/cmsis_os.c ****   osEvent event;
1605:Middlewares/Third_Party/FreeRTOS/Source/CMSIS_RTOS/cmsis_os.c ****   
1606:Middlewares/Third_Party/FreeRTOS/Source/CMSIS_RTOS/cmsis_os.c ****   event.def.message_id = queue_id;
 3540              		.loc 1 1606 0
 3541 000c BB68     		ldr	r3, [r7, #8]
 3542 000e BB61     		str	r3, [r7, #24]
1607:Middlewares/Third_Party/FreeRTOS/Source/CMSIS_RTOS/cmsis_os.c ****   
1608:Middlewares/Third_Party/FreeRTOS/Source/CMSIS_RTOS/cmsis_os.c ****   if (queue_id == NULL) {
 3543              		.loc 1 1608 0
 3544 0010 BB68     		ldr	r3, [r7, #8]
 3545 0012 002B     		cmp	r3, #0
 3546 0014 0AD1     		bne	.L246
1609:Middlewares/Third_Party/FreeRTOS/Source/CMSIS_RTOS/cmsis_os.c ****     event.status = osErrorParameter;
 3547              		.loc 1 1609 0
 3548 0016 8023     		movs	r3, #128
 3549 0018 3B61     		str	r3, [r7, #16]
1610:Middlewares/Third_Party/FreeRTOS/Source/CMSIS_RTOS/cmsis_os.c ****     return event;
 3550              		.loc 1 1610 0
 3551 001a FB68     		ldr	r3, [r7, #12]
 3552 001c 1C46     		mov	r4, r3
 3553 001e 07F11003 		add	r3, r7, #16
 3554 0022 93E80700 		ldmia	r3, {r0, r1, r2}
 3555 0026 84E80700 		stmia	r4, {r0, r1, r2}
 3556 002a 31E0     		b	.L245
 3557              	.L246:
1611:Middlewares/Third_Party/FreeRTOS/Source/CMSIS_RTOS/cmsis_os.c ****   }
1612:Middlewares/Third_Party/FreeRTOS/Source/CMSIS_RTOS/cmsis_os.c ****   
1613:Middlewares/Third_Party/FreeRTOS/Source/CMSIS_RTOS/cmsis_os.c ****   ticks = 0;
 3558              		.loc 1 1613 0
 3559 002c 0023     		movs	r3, #0
 3560 002e FB61     		str	r3, [r7, #28]
1614:Middlewares/Third_Party/FreeRTOS/Source/CMSIS_RTOS/cmsis_os.c ****   if (millisec == osWaitForever) {
 3561              		.loc 1 1614 0
 3562 0030 7B68     		ldr	r3, [r7, #4]
 3563 0032 B3F1FF3F 		cmp	r3, #-1
 3564 0036 03D1     		bne	.L248
1615:Middlewares/Third_Party/FreeRTOS/Source/CMSIS_RTOS/cmsis_os.c ****     ticks = portMAX_DELAY;
 3565              		.loc 1 1615 0
 3566 0038 4FF0FF33 		mov	r3, #-1
ARM GAS  /tmp/ccVQttFk.s 			page 97


 3567 003c FB61     		str	r3, [r7, #28]
 3568 003e 09E0     		b	.L249
 3569              	.L248:
1616:Middlewares/Third_Party/FreeRTOS/Source/CMSIS_RTOS/cmsis_os.c ****   }
1617:Middlewares/Third_Party/FreeRTOS/Source/CMSIS_RTOS/cmsis_os.c ****   else if (millisec != 0) {
 3570              		.loc 1 1617 0
 3571 0040 7B68     		ldr	r3, [r7, #4]
 3572 0042 002B     		cmp	r3, #0
 3573 0044 06D0     		beq	.L249
1618:Middlewares/Third_Party/FreeRTOS/Source/CMSIS_RTOS/cmsis_os.c ****     ticks = millisec / portTICK_PERIOD_MS;
 3574              		.loc 1 1618 0
 3575 0046 7B68     		ldr	r3, [r7, #4]
 3576 0048 FB61     		str	r3, [r7, #28]
1619:Middlewares/Third_Party/FreeRTOS/Source/CMSIS_RTOS/cmsis_os.c ****     if (ticks == 0) {
 3577              		.loc 1 1619 0
 3578 004a FB69     		ldr	r3, [r7, #28]
 3579 004c 002B     		cmp	r3, #0
 3580 004e 01D1     		bne	.L249
1620:Middlewares/Third_Party/FreeRTOS/Source/CMSIS_RTOS/cmsis_os.c ****       ticks = 1;
 3581              		.loc 1 1620 0
 3582 0050 0123     		movs	r3, #1
 3583 0052 FB61     		str	r3, [r7, #28]
 3584              	.L249:
1621:Middlewares/Third_Party/FreeRTOS/Source/CMSIS_RTOS/cmsis_os.c ****     }
1622:Middlewares/Third_Party/FreeRTOS/Source/CMSIS_RTOS/cmsis_os.c ****   }
1623:Middlewares/Third_Party/FreeRTOS/Source/CMSIS_RTOS/cmsis_os.c ****   
1624:Middlewares/Third_Party/FreeRTOS/Source/CMSIS_RTOS/cmsis_os.c ****   if (xQueuePeek(queue_id, &event.value.v, ticks) == pdTRUE) 
 3585              		.loc 1 1624 0
 3586 0054 07F11003 		add	r3, r7, #16
 3587 0058 0433     		adds	r3, r3, #4
 3588 005a B868     		ldr	r0, [r7, #8]
 3589 005c 1946     		mov	r1, r3
 3590 005e FA69     		ldr	r2, [r7, #28]
 3591 0060 0123     		movs	r3, #1
 3592 0062 FFF7FEFF 		bl	xQueueGenericReceive
 3593 0066 0346     		mov	r3, r0
 3594 0068 012B     		cmp	r3, #1
 3595 006a 02D1     		bne	.L250
1625:Middlewares/Third_Party/FreeRTOS/Source/CMSIS_RTOS/cmsis_os.c ****   {
1626:Middlewares/Third_Party/FreeRTOS/Source/CMSIS_RTOS/cmsis_os.c ****     /* We have mail */
1627:Middlewares/Third_Party/FreeRTOS/Source/CMSIS_RTOS/cmsis_os.c ****     event.status = osEventMessage;
 3596              		.loc 1 1627 0
 3597 006c 1023     		movs	r3, #16
 3598 006e 3B61     		str	r3, [r7, #16]
 3599 0070 06E0     		b	.L251
 3600              	.L250:
1628:Middlewares/Third_Party/FreeRTOS/Source/CMSIS_RTOS/cmsis_os.c ****   }
1629:Middlewares/Third_Party/FreeRTOS/Source/CMSIS_RTOS/cmsis_os.c ****   else 
1630:Middlewares/Third_Party/FreeRTOS/Source/CMSIS_RTOS/cmsis_os.c ****   {
1631:Middlewares/Third_Party/FreeRTOS/Source/CMSIS_RTOS/cmsis_os.c ****     event.status = (ticks == 0) ? osOK : osEventTimeout;
 3601              		.loc 1 1631 0
 3602 0072 FB69     		ldr	r3, [r7, #28]
 3603 0074 002B     		cmp	r3, #0
 3604 0076 01D1     		bne	.L252
 3605              		.loc 1 1631 0 is_stmt 0 discriminator 1
 3606 0078 0023     		movs	r3, #0
 3607 007a 00E0     		b	.L253
ARM GAS  /tmp/ccVQttFk.s 			page 98


 3608              	.L252:
 3609              		.loc 1 1631 0 discriminator 2
 3610 007c 4023     		movs	r3, #64
 3611              	.L253:
 3612              		.loc 1 1631 0 discriminator 4
 3613 007e 3B61     		str	r3, [r7, #16]
 3614              	.L251:
1632:Middlewares/Third_Party/FreeRTOS/Source/CMSIS_RTOS/cmsis_os.c ****   }
1633:Middlewares/Third_Party/FreeRTOS/Source/CMSIS_RTOS/cmsis_os.c ****   
1634:Middlewares/Third_Party/FreeRTOS/Source/CMSIS_RTOS/cmsis_os.c ****   return event;
 3615              		.loc 1 1634 0 is_stmt 1
 3616 0080 FB68     		ldr	r3, [r7, #12]
 3617 0082 1C46     		mov	r4, r3
 3618 0084 07F11003 		add	r3, r7, #16
 3619 0088 93E80700 		ldmia	r3, {r0, r1, r2}
 3620 008c 84E80700 		stmia	r4, {r0, r1, r2}
 3621              	.L245:
1635:Middlewares/Third_Party/FreeRTOS/Source/CMSIS_RTOS/cmsis_os.c **** }
 3622              		.loc 1 1635 0
 3623 0090 F868     		ldr	r0, [r7, #12]
 3624 0092 2437     		adds	r7, r7, #36
 3625              	.LCFI231:
 3626              		.cfi_def_cfa_offset 12
 3627 0094 BD46     		mov	sp, r7
 3628              	.LCFI232:
 3629              		.cfi_def_cfa_register 13
 3630              		@ sp needed
 3631 0096 90BD     		pop	{r4, r7, pc}
 3632              		.cfi_endproc
 3633              	.LFE78:
 3635              		.section	.text.osMessageWaiting,"ax",%progbits
 3636              		.align	2
 3637              		.global	osMessageWaiting
 3638              		.thumb
 3639              		.thumb_func
 3641              	osMessageWaiting:
 3642              	.LFB79:
1636:Middlewares/Third_Party/FreeRTOS/Source/CMSIS_RTOS/cmsis_os.c **** 
1637:Middlewares/Third_Party/FreeRTOS/Source/CMSIS_RTOS/cmsis_os.c **** /**
1638:Middlewares/Third_Party/FreeRTOS/Source/CMSIS_RTOS/cmsis_os.c **** * @brief  Get the number of messaged stored in a queue.
1639:Middlewares/Third_Party/FreeRTOS/Source/CMSIS_RTOS/cmsis_os.c **** * @param  queue_id  message queue ID obtained with \ref osMessageCreate.
1640:Middlewares/Third_Party/FreeRTOS/Source/CMSIS_RTOS/cmsis_os.c **** * @retval number of messages stored in a queue.
1641:Middlewares/Third_Party/FreeRTOS/Source/CMSIS_RTOS/cmsis_os.c **** */
1642:Middlewares/Third_Party/FreeRTOS/Source/CMSIS_RTOS/cmsis_os.c **** uint32_t osMessageWaiting(osMessageQId queue_id)
1643:Middlewares/Third_Party/FreeRTOS/Source/CMSIS_RTOS/cmsis_os.c **** {
 3643              		.loc 1 1643 0
 3644              		.cfi_startproc
 3645              		@ args = 0, pretend = 0, frame = 8
 3646              		@ frame_needed = 1, uses_anonymous_args = 0
 3647 0000 80B5     		push	{r7, lr}
 3648              	.LCFI233:
 3649              		.cfi_def_cfa_offset 8
 3650              		.cfi_offset 7, -8
 3651              		.cfi_offset 14, -4
 3652 0002 82B0     		sub	sp, sp, #8
 3653              	.LCFI234:
 3654              		.cfi_def_cfa_offset 16
ARM GAS  /tmp/ccVQttFk.s 			page 99


 3655 0004 00AF     		add	r7, sp, #0
 3656              	.LCFI235:
 3657              		.cfi_def_cfa_register 7
 3658 0006 7860     		str	r0, [r7, #4]
1644:Middlewares/Third_Party/FreeRTOS/Source/CMSIS_RTOS/cmsis_os.c ****   if (inHandlerMode()) {
 3659              		.loc 1 1644 0
 3660 0008 FFF7FEFF 		bl	inHandlerMode
 3661 000c 0346     		mov	r3, r0
 3662 000e 002B     		cmp	r3, #0
 3663 0010 04D0     		beq	.L256
1645:Middlewares/Third_Party/FreeRTOS/Source/CMSIS_RTOS/cmsis_os.c ****     return uxQueueMessagesWaitingFromISR(queue_id);
 3664              		.loc 1 1645 0
 3665 0012 7868     		ldr	r0, [r7, #4]
 3666 0014 FFF7FEFF 		bl	uxQueueMessagesWaitingFromISR
 3667 0018 0346     		mov	r3, r0
 3668 001a 03E0     		b	.L257
 3669              	.L256:
1646:Middlewares/Third_Party/FreeRTOS/Source/CMSIS_RTOS/cmsis_os.c ****   }
1647:Middlewares/Third_Party/FreeRTOS/Source/CMSIS_RTOS/cmsis_os.c ****   else
1648:Middlewares/Third_Party/FreeRTOS/Source/CMSIS_RTOS/cmsis_os.c ****   {
1649:Middlewares/Third_Party/FreeRTOS/Source/CMSIS_RTOS/cmsis_os.c ****     return uxQueueMessagesWaiting(queue_id);
 3670              		.loc 1 1649 0
 3671 001c 7868     		ldr	r0, [r7, #4]
 3672 001e FFF7FEFF 		bl	uxQueueMessagesWaiting
 3673 0022 0346     		mov	r3, r0
 3674              	.L257:
1650:Middlewares/Third_Party/FreeRTOS/Source/CMSIS_RTOS/cmsis_os.c ****   }
1651:Middlewares/Third_Party/FreeRTOS/Source/CMSIS_RTOS/cmsis_os.c **** }
 3675              		.loc 1 1651 0
 3676 0024 1846     		mov	r0, r3
 3677 0026 0837     		adds	r7, r7, #8
 3678              	.LCFI236:
 3679              		.cfi_def_cfa_offset 8
 3680 0028 BD46     		mov	sp, r7
 3681              	.LCFI237:
 3682              		.cfi_def_cfa_register 13
 3683              		@ sp needed
 3684 002a 80BD     		pop	{r7, pc}
 3685              		.cfi_endproc
 3686              	.LFE79:
 3688              		.section	.text.osMessageAvailableSpace,"ax",%progbits
 3689              		.align	2
 3690              		.global	osMessageAvailableSpace
 3691              		.thumb
 3692              		.thumb_func
 3694              	osMessageAvailableSpace:
 3695              	.LFB80:
1652:Middlewares/Third_Party/FreeRTOS/Source/CMSIS_RTOS/cmsis_os.c **** 
1653:Middlewares/Third_Party/FreeRTOS/Source/CMSIS_RTOS/cmsis_os.c **** /**
1654:Middlewares/Third_Party/FreeRTOS/Source/CMSIS_RTOS/cmsis_os.c **** * @brief  Get the available space in a message queue.
1655:Middlewares/Third_Party/FreeRTOS/Source/CMSIS_RTOS/cmsis_os.c **** * @param  queue_id  message queue ID obtained with \ref osMessageCreate.
1656:Middlewares/Third_Party/FreeRTOS/Source/CMSIS_RTOS/cmsis_os.c **** * @retval available space in a message queue.
1657:Middlewares/Third_Party/FreeRTOS/Source/CMSIS_RTOS/cmsis_os.c **** */
1658:Middlewares/Third_Party/FreeRTOS/Source/CMSIS_RTOS/cmsis_os.c **** uint32_t osMessageAvailableSpace(osMessageQId queue_id)  
1659:Middlewares/Third_Party/FreeRTOS/Source/CMSIS_RTOS/cmsis_os.c **** {
 3696              		.loc 1 1659 0
 3697              		.cfi_startproc
ARM GAS  /tmp/ccVQttFk.s 			page 100


 3698              		@ args = 0, pretend = 0, frame = 8
 3699              		@ frame_needed = 1, uses_anonymous_args = 0
 3700 0000 80B5     		push	{r7, lr}
 3701              	.LCFI238:
 3702              		.cfi_def_cfa_offset 8
 3703              		.cfi_offset 7, -8
 3704              		.cfi_offset 14, -4
 3705 0002 82B0     		sub	sp, sp, #8
 3706              	.LCFI239:
 3707              		.cfi_def_cfa_offset 16
 3708 0004 00AF     		add	r7, sp, #0
 3709              	.LCFI240:
 3710              		.cfi_def_cfa_register 7
 3711 0006 7860     		str	r0, [r7, #4]
1660:Middlewares/Third_Party/FreeRTOS/Source/CMSIS_RTOS/cmsis_os.c ****   return uxQueueSpacesAvailable(queue_id);
 3712              		.loc 1 1660 0
 3713 0008 7868     		ldr	r0, [r7, #4]
 3714 000a FFF7FEFF 		bl	uxQueueSpacesAvailable
 3715 000e 0346     		mov	r3, r0
1661:Middlewares/Third_Party/FreeRTOS/Source/CMSIS_RTOS/cmsis_os.c **** }
 3716              		.loc 1 1661 0
 3717 0010 1846     		mov	r0, r3
 3718 0012 0837     		adds	r7, r7, #8
 3719              	.LCFI241:
 3720              		.cfi_def_cfa_offset 8
 3721 0014 BD46     		mov	sp, r7
 3722              	.LCFI242:
 3723              		.cfi_def_cfa_register 13
 3724              		@ sp needed
 3725 0016 80BD     		pop	{r7, pc}
 3726              		.cfi_endproc
 3727              	.LFE80:
 3729              		.section	.text.osMessageDelete,"ax",%progbits
 3730              		.align	2
 3731              		.global	osMessageDelete
 3732              		.thumb
 3733              		.thumb_func
 3735              	osMessageDelete:
 3736              	.LFB81:
1662:Middlewares/Third_Party/FreeRTOS/Source/CMSIS_RTOS/cmsis_os.c **** 
1663:Middlewares/Third_Party/FreeRTOS/Source/CMSIS_RTOS/cmsis_os.c **** /**
1664:Middlewares/Third_Party/FreeRTOS/Source/CMSIS_RTOS/cmsis_os.c **** * @brief Delete a Message Queue
1665:Middlewares/Third_Party/FreeRTOS/Source/CMSIS_RTOS/cmsis_os.c **** * @param  queue_id  message queue ID obtained with \ref osMessageCreate.
1666:Middlewares/Third_Party/FreeRTOS/Source/CMSIS_RTOS/cmsis_os.c **** * @retval  status code that indicates the execution status of the function.
1667:Middlewares/Third_Party/FreeRTOS/Source/CMSIS_RTOS/cmsis_os.c **** */
1668:Middlewares/Third_Party/FreeRTOS/Source/CMSIS_RTOS/cmsis_os.c **** osStatus osMessageDelete (osMessageQId queue_id)
1669:Middlewares/Third_Party/FreeRTOS/Source/CMSIS_RTOS/cmsis_os.c **** {
 3737              		.loc 1 1669 0
 3738              		.cfi_startproc
 3739              		@ args = 0, pretend = 0, frame = 8
 3740              		@ frame_needed = 1, uses_anonymous_args = 0
 3741 0000 80B5     		push	{r7, lr}
 3742              	.LCFI243:
 3743              		.cfi_def_cfa_offset 8
 3744              		.cfi_offset 7, -8
 3745              		.cfi_offset 14, -4
 3746 0002 82B0     		sub	sp, sp, #8
ARM GAS  /tmp/ccVQttFk.s 			page 101


 3747              	.LCFI244:
 3748              		.cfi_def_cfa_offset 16
 3749 0004 00AF     		add	r7, sp, #0
 3750              	.LCFI245:
 3751              		.cfi_def_cfa_register 7
 3752 0006 7860     		str	r0, [r7, #4]
1670:Middlewares/Third_Party/FreeRTOS/Source/CMSIS_RTOS/cmsis_os.c ****   if (inHandlerMode()) {
 3753              		.loc 1 1670 0
 3754 0008 FFF7FEFF 		bl	inHandlerMode
 3755 000c 0346     		mov	r3, r0
 3756 000e 002B     		cmp	r3, #0
 3757 0010 01D0     		beq	.L261
1671:Middlewares/Third_Party/FreeRTOS/Source/CMSIS_RTOS/cmsis_os.c ****     return osErrorISR;
 3758              		.loc 1 1671 0
 3759 0012 8223     		movs	r3, #130
 3760 0014 03E0     		b	.L262
 3761              	.L261:
1672:Middlewares/Third_Party/FreeRTOS/Source/CMSIS_RTOS/cmsis_os.c ****   }
1673:Middlewares/Third_Party/FreeRTOS/Source/CMSIS_RTOS/cmsis_os.c **** 
1674:Middlewares/Third_Party/FreeRTOS/Source/CMSIS_RTOS/cmsis_os.c ****   vQueueDelete(queue_id);
 3762              		.loc 1 1674 0
 3763 0016 7868     		ldr	r0, [r7, #4]
 3764 0018 FFF7FEFF 		bl	vQueueDelete
1675:Middlewares/Third_Party/FreeRTOS/Source/CMSIS_RTOS/cmsis_os.c **** 
1676:Middlewares/Third_Party/FreeRTOS/Source/CMSIS_RTOS/cmsis_os.c ****   return osOK; 
 3765              		.loc 1 1676 0
 3766 001c 0023     		movs	r3, #0
 3767              	.L262:
1677:Middlewares/Third_Party/FreeRTOS/Source/CMSIS_RTOS/cmsis_os.c **** }
 3768              		.loc 1 1677 0
 3769 001e 1846     		mov	r0, r3
 3770 0020 0837     		adds	r7, r7, #8
 3771              	.LCFI246:
 3772              		.cfi_def_cfa_offset 8
 3773 0022 BD46     		mov	sp, r7
 3774              	.LCFI247:
 3775              		.cfi_def_cfa_register 13
 3776              		@ sp needed
 3777 0024 80BD     		pop	{r7, pc}
 3778              		.cfi_endproc
 3779              	.LFE81:
 3781 0026 00BF     		.section	.text.osRecursiveMutexCreate,"ax",%progbits
 3782              		.align	2
 3783              		.global	osRecursiveMutexCreate
 3784              		.thumb
 3785              		.thumb_func
 3787              	osRecursiveMutexCreate:
 3788              	.LFB82:
1678:Middlewares/Third_Party/FreeRTOS/Source/CMSIS_RTOS/cmsis_os.c **** 
1679:Middlewares/Third_Party/FreeRTOS/Source/CMSIS_RTOS/cmsis_os.c **** /**
1680:Middlewares/Third_Party/FreeRTOS/Source/CMSIS_RTOS/cmsis_os.c **** * @brief  Create and Initialize a Recursive Mutex
1681:Middlewares/Third_Party/FreeRTOS/Source/CMSIS_RTOS/cmsis_os.c **** * @param  mutex_def     mutex definition referenced with \ref osMutex.
1682:Middlewares/Third_Party/FreeRTOS/Source/CMSIS_RTOS/cmsis_os.c **** * @retval  mutex ID for reference by other functions or NULL in case of error..
1683:Middlewares/Third_Party/FreeRTOS/Source/CMSIS_RTOS/cmsis_os.c **** */
1684:Middlewares/Third_Party/FreeRTOS/Source/CMSIS_RTOS/cmsis_os.c **** osMutexId osRecursiveMutexCreate (const osMutexDef_t *mutex_def)
1685:Middlewares/Third_Party/FreeRTOS/Source/CMSIS_RTOS/cmsis_os.c **** {
 3789              		.loc 1 1685 0
ARM GAS  /tmp/ccVQttFk.s 			page 102


 3790              		.cfi_startproc
 3791              		@ args = 0, pretend = 0, frame = 8
 3792              		@ frame_needed = 1, uses_anonymous_args = 0
 3793              		@ link register save eliminated.
 3794 0000 80B4     		push	{r7}
 3795              	.LCFI248:
 3796              		.cfi_def_cfa_offset 4
 3797              		.cfi_offset 7, -4
 3798 0002 83B0     		sub	sp, sp, #12
 3799              	.LCFI249:
 3800              		.cfi_def_cfa_offset 16
 3801 0004 00AF     		add	r7, sp, #0
 3802              	.LCFI250:
 3803              		.cfi_def_cfa_register 7
 3804 0006 7860     		str	r0, [r7, #4]
1686:Middlewares/Third_Party/FreeRTOS/Source/CMSIS_RTOS/cmsis_os.c **** #if (configUSE_RECURSIVE_MUTEXES == 1)
1687:Middlewares/Third_Party/FreeRTOS/Source/CMSIS_RTOS/cmsis_os.c **** #if( configSUPPORT_STATIC_ALLOCATION == 1 ) && ( configSUPPORT_DYNAMIC_ALLOCATION == 1 )
1688:Middlewares/Third_Party/FreeRTOS/Source/CMSIS_RTOS/cmsis_os.c **** 
1689:Middlewares/Third_Party/FreeRTOS/Source/CMSIS_RTOS/cmsis_os.c ****   if (mutex_def->controlblock != NULL){
1690:Middlewares/Third_Party/FreeRTOS/Source/CMSIS_RTOS/cmsis_os.c ****     return xSemaphoreCreateRecursiveMutexStatic( mutex_def->controlblock );
1691:Middlewares/Third_Party/FreeRTOS/Source/CMSIS_RTOS/cmsis_os.c ****   }
1692:Middlewares/Third_Party/FreeRTOS/Source/CMSIS_RTOS/cmsis_os.c ****   else {
1693:Middlewares/Third_Party/FreeRTOS/Source/CMSIS_RTOS/cmsis_os.c ****     return xSemaphoreCreateRecursiveMutex();
1694:Middlewares/Third_Party/FreeRTOS/Source/CMSIS_RTOS/cmsis_os.c ****   }
1695:Middlewares/Third_Party/FreeRTOS/Source/CMSIS_RTOS/cmsis_os.c **** #elif ( configSUPPORT_STATIC_ALLOCATION == 1 )
1696:Middlewares/Third_Party/FreeRTOS/Source/CMSIS_RTOS/cmsis_os.c ****   return xSemaphoreCreateRecursiveMutexStatic( mutex_def->controlblock );
1697:Middlewares/Third_Party/FreeRTOS/Source/CMSIS_RTOS/cmsis_os.c **** #else 
1698:Middlewares/Third_Party/FreeRTOS/Source/CMSIS_RTOS/cmsis_os.c ****   return xSemaphoreCreateRecursiveMutex();
1699:Middlewares/Third_Party/FreeRTOS/Source/CMSIS_RTOS/cmsis_os.c **** #endif
1700:Middlewares/Third_Party/FreeRTOS/Source/CMSIS_RTOS/cmsis_os.c **** #else
1701:Middlewares/Third_Party/FreeRTOS/Source/CMSIS_RTOS/cmsis_os.c ****   return NULL;
 3805              		.loc 1 1701 0
 3806 0008 0023     		movs	r3, #0
1702:Middlewares/Third_Party/FreeRTOS/Source/CMSIS_RTOS/cmsis_os.c **** #endif	
1703:Middlewares/Third_Party/FreeRTOS/Source/CMSIS_RTOS/cmsis_os.c **** }
 3807              		.loc 1 1703 0
 3808 000a 1846     		mov	r0, r3
 3809 000c 0C37     		adds	r7, r7, #12
 3810              	.LCFI251:
 3811              		.cfi_def_cfa_offset 4
 3812 000e BD46     		mov	sp, r7
 3813              	.LCFI252:
 3814              		.cfi_def_cfa_register 13
 3815              		@ sp needed
 3816 0010 5DF8047B 		ldr	r7, [sp], #4
 3817              	.LCFI253:
 3818              		.cfi_restore 7
 3819              		.cfi_def_cfa_offset 0
 3820 0014 7047     		bx	lr
 3821              		.cfi_endproc
 3822              	.LFE82:
 3824 0016 00BF     		.section	.text.osRecursiveMutexRelease,"ax",%progbits
 3825              		.align	2
 3826              		.global	osRecursiveMutexRelease
 3827              		.thumb
 3828              		.thumb_func
 3830              	osRecursiveMutexRelease:
ARM GAS  /tmp/ccVQttFk.s 			page 103


 3831              	.LFB83:
1704:Middlewares/Third_Party/FreeRTOS/Source/CMSIS_RTOS/cmsis_os.c **** 
1705:Middlewares/Third_Party/FreeRTOS/Source/CMSIS_RTOS/cmsis_os.c **** /**
1706:Middlewares/Third_Party/FreeRTOS/Source/CMSIS_RTOS/cmsis_os.c **** * @brief  Release a Recursive Mutex
1707:Middlewares/Third_Party/FreeRTOS/Source/CMSIS_RTOS/cmsis_os.c **** * @param   mutex_id      mutex ID obtained by \ref osRecursiveMutexCreate.
1708:Middlewares/Third_Party/FreeRTOS/Source/CMSIS_RTOS/cmsis_os.c **** * @retval  status code that indicates the execution status of the function.
1709:Middlewares/Third_Party/FreeRTOS/Source/CMSIS_RTOS/cmsis_os.c **** */
1710:Middlewares/Third_Party/FreeRTOS/Source/CMSIS_RTOS/cmsis_os.c **** osStatus osRecursiveMutexRelease (osMutexId mutex_id)
1711:Middlewares/Third_Party/FreeRTOS/Source/CMSIS_RTOS/cmsis_os.c **** {
 3832              		.loc 1 1711 0
 3833              		.cfi_startproc
 3834              		@ args = 0, pretend = 0, frame = 8
 3835              		@ frame_needed = 1, uses_anonymous_args = 0
 3836              		@ link register save eliminated.
 3837 0000 80B4     		push	{r7}
 3838              	.LCFI254:
 3839              		.cfi_def_cfa_offset 4
 3840              		.cfi_offset 7, -4
 3841 0002 83B0     		sub	sp, sp, #12
 3842              	.LCFI255:
 3843              		.cfi_def_cfa_offset 16
 3844 0004 00AF     		add	r7, sp, #0
 3845              	.LCFI256:
 3846              		.cfi_def_cfa_register 7
 3847 0006 7860     		str	r0, [r7, #4]
1712:Middlewares/Third_Party/FreeRTOS/Source/CMSIS_RTOS/cmsis_os.c **** #if (configUSE_RECURSIVE_MUTEXES == 1)
1713:Middlewares/Third_Party/FreeRTOS/Source/CMSIS_RTOS/cmsis_os.c ****   osStatus result = osOK;
1714:Middlewares/Third_Party/FreeRTOS/Source/CMSIS_RTOS/cmsis_os.c ****  
1715:Middlewares/Third_Party/FreeRTOS/Source/CMSIS_RTOS/cmsis_os.c ****   if (xSemaphoreGiveRecursive(mutex_id) != pdTRUE) 
1716:Middlewares/Third_Party/FreeRTOS/Source/CMSIS_RTOS/cmsis_os.c ****   {
1717:Middlewares/Third_Party/FreeRTOS/Source/CMSIS_RTOS/cmsis_os.c ****     result = osErrorOS;
1718:Middlewares/Third_Party/FreeRTOS/Source/CMSIS_RTOS/cmsis_os.c ****   }
1719:Middlewares/Third_Party/FreeRTOS/Source/CMSIS_RTOS/cmsis_os.c ****   return result;
1720:Middlewares/Third_Party/FreeRTOS/Source/CMSIS_RTOS/cmsis_os.c **** #else
1721:Middlewares/Third_Party/FreeRTOS/Source/CMSIS_RTOS/cmsis_os.c **** 	return osErrorResource;
 3848              		.loc 1 1721 0
 3849 0008 8123     		movs	r3, #129
1722:Middlewares/Third_Party/FreeRTOS/Source/CMSIS_RTOS/cmsis_os.c **** #endif
1723:Middlewares/Third_Party/FreeRTOS/Source/CMSIS_RTOS/cmsis_os.c **** }
 3850              		.loc 1 1723 0
 3851 000a 1846     		mov	r0, r3
 3852 000c 0C37     		adds	r7, r7, #12
 3853              	.LCFI257:
 3854              		.cfi_def_cfa_offset 4
 3855 000e BD46     		mov	sp, r7
 3856              	.LCFI258:
 3857              		.cfi_def_cfa_register 13
 3858              		@ sp needed
 3859 0010 5DF8047B 		ldr	r7, [sp], #4
 3860              	.LCFI259:
 3861              		.cfi_restore 7
 3862              		.cfi_def_cfa_offset 0
 3863 0014 7047     		bx	lr
 3864              		.cfi_endproc
 3865              	.LFE83:
 3867 0016 00BF     		.section	.text.osRecursiveMutexWait,"ax",%progbits
 3868              		.align	2
ARM GAS  /tmp/ccVQttFk.s 			page 104


 3869              		.global	osRecursiveMutexWait
 3870              		.thumb
 3871              		.thumb_func
 3873              	osRecursiveMutexWait:
 3874              	.LFB84:
1724:Middlewares/Third_Party/FreeRTOS/Source/CMSIS_RTOS/cmsis_os.c **** 
1725:Middlewares/Third_Party/FreeRTOS/Source/CMSIS_RTOS/cmsis_os.c **** /**
1726:Middlewares/Third_Party/FreeRTOS/Source/CMSIS_RTOS/cmsis_os.c **** * @brief  Release a Recursive Mutex
1727:Middlewares/Third_Party/FreeRTOS/Source/CMSIS_RTOS/cmsis_os.c **** * @param   mutex_id    mutex ID obtained by \ref osRecursiveMutexCreate.
1728:Middlewares/Third_Party/FreeRTOS/Source/CMSIS_RTOS/cmsis_os.c **** * @param millisec      timeout value or 0 in case of no time-out.
1729:Middlewares/Third_Party/FreeRTOS/Source/CMSIS_RTOS/cmsis_os.c **** * @retval  status code that indicates the execution status of the function.
1730:Middlewares/Third_Party/FreeRTOS/Source/CMSIS_RTOS/cmsis_os.c **** */
1731:Middlewares/Third_Party/FreeRTOS/Source/CMSIS_RTOS/cmsis_os.c **** osStatus osRecursiveMutexWait (osMutexId mutex_id, uint32_t millisec)
1732:Middlewares/Third_Party/FreeRTOS/Source/CMSIS_RTOS/cmsis_os.c **** {
 3875              		.loc 1 1732 0
 3876              		.cfi_startproc
 3877              		@ args = 0, pretend = 0, frame = 8
 3878              		@ frame_needed = 1, uses_anonymous_args = 0
 3879              		@ link register save eliminated.
 3880 0000 80B4     		push	{r7}
 3881              	.LCFI260:
 3882              		.cfi_def_cfa_offset 4
 3883              		.cfi_offset 7, -4
 3884 0002 83B0     		sub	sp, sp, #12
 3885              	.LCFI261:
 3886              		.cfi_def_cfa_offset 16
 3887 0004 00AF     		add	r7, sp, #0
 3888              	.LCFI262:
 3889              		.cfi_def_cfa_register 7
 3890 0006 7860     		str	r0, [r7, #4]
 3891 0008 3960     		str	r1, [r7]
1733:Middlewares/Third_Party/FreeRTOS/Source/CMSIS_RTOS/cmsis_os.c **** #if (configUSE_RECURSIVE_MUTEXES == 1)
1734:Middlewares/Third_Party/FreeRTOS/Source/CMSIS_RTOS/cmsis_os.c ****   TickType_t ticks;
1735:Middlewares/Third_Party/FreeRTOS/Source/CMSIS_RTOS/cmsis_os.c ****   
1736:Middlewares/Third_Party/FreeRTOS/Source/CMSIS_RTOS/cmsis_os.c ****   if (mutex_id == NULL)
1737:Middlewares/Third_Party/FreeRTOS/Source/CMSIS_RTOS/cmsis_os.c ****   {
1738:Middlewares/Third_Party/FreeRTOS/Source/CMSIS_RTOS/cmsis_os.c ****     return osErrorParameter;
1739:Middlewares/Third_Party/FreeRTOS/Source/CMSIS_RTOS/cmsis_os.c ****   }
1740:Middlewares/Third_Party/FreeRTOS/Source/CMSIS_RTOS/cmsis_os.c ****   
1741:Middlewares/Third_Party/FreeRTOS/Source/CMSIS_RTOS/cmsis_os.c ****   ticks = 0;
1742:Middlewares/Third_Party/FreeRTOS/Source/CMSIS_RTOS/cmsis_os.c ****   if (millisec == osWaitForever) 
1743:Middlewares/Third_Party/FreeRTOS/Source/CMSIS_RTOS/cmsis_os.c ****   {
1744:Middlewares/Third_Party/FreeRTOS/Source/CMSIS_RTOS/cmsis_os.c ****     ticks = portMAX_DELAY;
1745:Middlewares/Third_Party/FreeRTOS/Source/CMSIS_RTOS/cmsis_os.c ****   }
1746:Middlewares/Third_Party/FreeRTOS/Source/CMSIS_RTOS/cmsis_os.c ****   else if (millisec != 0) 
1747:Middlewares/Third_Party/FreeRTOS/Source/CMSIS_RTOS/cmsis_os.c ****   {
1748:Middlewares/Third_Party/FreeRTOS/Source/CMSIS_RTOS/cmsis_os.c ****     ticks = millisec / portTICK_PERIOD_MS;
1749:Middlewares/Third_Party/FreeRTOS/Source/CMSIS_RTOS/cmsis_os.c ****     if (ticks == 0) 
1750:Middlewares/Third_Party/FreeRTOS/Source/CMSIS_RTOS/cmsis_os.c ****     {
1751:Middlewares/Third_Party/FreeRTOS/Source/CMSIS_RTOS/cmsis_os.c ****       ticks = 1;
1752:Middlewares/Third_Party/FreeRTOS/Source/CMSIS_RTOS/cmsis_os.c ****     }
1753:Middlewares/Third_Party/FreeRTOS/Source/CMSIS_RTOS/cmsis_os.c ****   }
1754:Middlewares/Third_Party/FreeRTOS/Source/CMSIS_RTOS/cmsis_os.c ****   
1755:Middlewares/Third_Party/FreeRTOS/Source/CMSIS_RTOS/cmsis_os.c ****   if (xSemaphoreTakeRecursive(mutex_id, ticks) != pdTRUE) 
1756:Middlewares/Third_Party/FreeRTOS/Source/CMSIS_RTOS/cmsis_os.c ****   {
1757:Middlewares/Third_Party/FreeRTOS/Source/CMSIS_RTOS/cmsis_os.c ****     return osErrorOS;
1758:Middlewares/Third_Party/FreeRTOS/Source/CMSIS_RTOS/cmsis_os.c ****   }
ARM GAS  /tmp/ccVQttFk.s 			page 105


1759:Middlewares/Third_Party/FreeRTOS/Source/CMSIS_RTOS/cmsis_os.c ****   return osOK;
1760:Middlewares/Third_Party/FreeRTOS/Source/CMSIS_RTOS/cmsis_os.c **** #else
1761:Middlewares/Third_Party/FreeRTOS/Source/CMSIS_RTOS/cmsis_os.c **** 	return osErrorResource;
 3892              		.loc 1 1761 0
 3893 000a 8123     		movs	r3, #129
1762:Middlewares/Third_Party/FreeRTOS/Source/CMSIS_RTOS/cmsis_os.c **** #endif
1763:Middlewares/Third_Party/FreeRTOS/Source/CMSIS_RTOS/cmsis_os.c **** }
 3894              		.loc 1 1763 0
 3895 000c 1846     		mov	r0, r3
 3896 000e 0C37     		adds	r7, r7, #12
 3897              	.LCFI263:
 3898              		.cfi_def_cfa_offset 4
 3899 0010 BD46     		mov	sp, r7
 3900              	.LCFI264:
 3901              		.cfi_def_cfa_register 13
 3902              		@ sp needed
 3903 0012 5DF8047B 		ldr	r7, [sp], #4
 3904              	.LCFI265:
 3905              		.cfi_restore 7
 3906              		.cfi_def_cfa_offset 0
 3907 0016 7047     		bx	lr
 3908              		.cfi_endproc
 3909              	.LFE84:
 3911              		.section	.text.osSemaphoreGetCount,"ax",%progbits
 3912              		.align	2
 3913              		.global	osSemaphoreGetCount
 3914              		.thumb
 3915              		.thumb_func
 3917              	osSemaphoreGetCount:
 3918              	.LFB85:
1764:Middlewares/Third_Party/FreeRTOS/Source/CMSIS_RTOS/cmsis_os.c **** 
1765:Middlewares/Third_Party/FreeRTOS/Source/CMSIS_RTOS/cmsis_os.c **** /**
1766:Middlewares/Third_Party/FreeRTOS/Source/CMSIS_RTOS/cmsis_os.c **** * @brief  Returns the current count value of a counting semaphore
1767:Middlewares/Third_Party/FreeRTOS/Source/CMSIS_RTOS/cmsis_os.c **** * @param  semaphore_id  semaphore_id ID obtained by \ref osSemaphoreCreate.
1768:Middlewares/Third_Party/FreeRTOS/Source/CMSIS_RTOS/cmsis_os.c **** * @retval  count value
1769:Middlewares/Third_Party/FreeRTOS/Source/CMSIS_RTOS/cmsis_os.c **** */
1770:Middlewares/Third_Party/FreeRTOS/Source/CMSIS_RTOS/cmsis_os.c **** uint32_t osSemaphoreGetCount(osSemaphoreId semaphore_id)
1771:Middlewares/Third_Party/FreeRTOS/Source/CMSIS_RTOS/cmsis_os.c **** {
 3919              		.loc 1 1771 0
 3920              		.cfi_startproc
 3921              		@ args = 0, pretend = 0, frame = 8
 3922              		@ frame_needed = 1, uses_anonymous_args = 0
 3923 0000 80B5     		push	{r7, lr}
 3924              	.LCFI266:
 3925              		.cfi_def_cfa_offset 8
 3926              		.cfi_offset 7, -8
 3927              		.cfi_offset 14, -4
 3928 0002 82B0     		sub	sp, sp, #8
 3929              	.LCFI267:
 3930              		.cfi_def_cfa_offset 16
 3931 0004 00AF     		add	r7, sp, #0
 3932              	.LCFI268:
 3933              		.cfi_def_cfa_register 7
 3934 0006 7860     		str	r0, [r7, #4]
1772:Middlewares/Third_Party/FreeRTOS/Source/CMSIS_RTOS/cmsis_os.c ****   return uxSemaphoreGetCount(semaphore_id);
 3935              		.loc 1 1772 0
 3936 0008 7868     		ldr	r0, [r7, #4]
ARM GAS  /tmp/ccVQttFk.s 			page 106


 3937 000a FFF7FEFF 		bl	uxQueueMessagesWaiting
 3938 000e 0346     		mov	r3, r0
1773:Middlewares/Third_Party/FreeRTOS/Source/CMSIS_RTOS/cmsis_os.c **** }
 3939              		.loc 1 1773 0
 3940 0010 1846     		mov	r0, r3
 3941 0012 0837     		adds	r7, r7, #8
 3942              	.LCFI269:
 3943              		.cfi_def_cfa_offset 8
 3944 0014 BD46     		mov	sp, r7
 3945              	.LCFI270:
 3946              		.cfi_def_cfa_register 13
 3947              		@ sp needed
 3948 0016 80BD     		pop	{r7, pc}
 3949              		.cfi_endproc
 3950              	.LFE85:
 3952              		.text
 3953              	.Letext0:
 3954              		.file 4 "/usr/include/newlib/machine/_default_types.h"
 3955              		.file 5 "/usr/include/newlib/sys/_stdint.h"
 3956              		.file 6 "Middlewares/Third_Party/FreeRTOS/Source/include/projdefs.h"
 3957              		.file 7 "Middlewares/Third_Party/FreeRTOS/Source/include/task.h"
 3958              		.file 8 "Middlewares/Third_Party/FreeRTOS/Source/include/timers.h"
 3959              		.file 9 "Middlewares/Third_Party/FreeRTOS/Source/include/queue.h"
 3960              		.file 10 "Middlewares/Third_Party/FreeRTOS/Source/include/semphr.h"
 3961              		.file 11 "Middlewares/Third_Party/FreeRTOS/Source/CMSIS_RTOS/cmsis_os.h"
ARM GAS  /tmp/ccVQttFk.s 			page 107


DEFINED SYMBOLS
                            *ABS*:0000000000000000 cmsis_os.c
     /tmp/ccVQttFk.s:21     .text.makeFreeRtosPriority:0000000000000000 $t
     /tmp/ccVQttFk.s:25     .text.makeFreeRtosPriority:0000000000000000 makeFreeRtosPriority
     /tmp/ccVQttFk.s:79     .text.makeCmsisPriority:0000000000000000 $t
     /tmp/ccVQttFk.s:83     .text.makeCmsisPriority:0000000000000000 makeCmsisPriority
     /tmp/ccVQttFk.s:136    .text.inHandlerMode:0000000000000000 $t
     /tmp/ccVQttFk.s:140    .text.inHandlerMode:0000000000000000 inHandlerMode
     /tmp/ccVQttFk.s:194    .text.osKernelStart:0000000000000000 $t
     /tmp/ccVQttFk.s:199    .text.osKernelStart:0000000000000000 osKernelStart
     /tmp/ccVQttFk.s:224    .text.osKernelRunning:0000000000000000 $t
     /tmp/ccVQttFk.s:229    .text.osKernelRunning:0000000000000000 osKernelRunning
     /tmp/ccVQttFk.s:262    .text.osKernelSysTick:0000000000000000 $t
     /tmp/ccVQttFk.s:267    .text.osKernelSysTick:0000000000000000 osKernelSysTick
     /tmp/ccVQttFk.s:302    .text.osThreadCreate:0000000000000000 $t
     /tmp/ccVQttFk.s:307    .text.osThreadCreate:0000000000000000 osThreadCreate
     /tmp/ccVQttFk.s:377    .text.osThreadGetId:0000000000000000 $t
     /tmp/ccVQttFk.s:382    .text.osThreadGetId:0000000000000000 osThreadGetId
     /tmp/ccVQttFk.s:406    .text.osThreadTerminate:0000000000000000 $t
     /tmp/ccVQttFk.s:411    .text.osThreadTerminate:0000000000000000 osThreadTerminate
     /tmp/ccVQttFk.s:448    .text.osThreadYield:0000000000000000 $t
     /tmp/ccVQttFk.s:453    .text.osThreadYield:0000000000000000 osThreadYield
     /tmp/ccVQttFk.s:494    .text.osThreadYield:0000000000000020 $d
     /tmp/ccVQttFk.s:499    .text.osThreadSetPriority:0000000000000000 $t
     /tmp/ccVQttFk.s:504    .text.osThreadSetPriority:0000000000000000 osThreadSetPriority
     /tmp/ccVQttFk.s:548    .text.osThreadGetPriority:0000000000000000 $t
     /tmp/ccVQttFk.s:553    .text.osThreadGetPriority:0000000000000000 osThreadGetPriority
     /tmp/ccVQttFk.s:608    .text.osDelay:0000000000000000 $t
     /tmp/ccVQttFk.s:613    .text.osDelay:0000000000000000 osDelay
     /tmp/ccVQttFk.s:664    .text.osTimerCreate:0000000000000000 $t
     /tmp/ccVQttFk.s:669    .text.osTimerCreate:0000000000000000 osTimerCreate
     /tmp/ccVQttFk.s:710    .text.osTimerStart:0000000000000000 $t
     /tmp/ccVQttFk.s:715    .text.osTimerStart:0000000000000000 osTimerStart
     /tmp/ccVQttFk.s:760    .text.osTimerStop:0000000000000000 $t
     /tmp/ccVQttFk.s:765    .text.osTimerStop:0000000000000000 osTimerStop
     /tmp/ccVQttFk.s:809    .text.osTimerDelete:0000000000000000 $t
     /tmp/ccVQttFk.s:814    .text.osTimerDelete:0000000000000000 osTimerDelete
     /tmp/ccVQttFk.s:858    .text.osSignalSet:0000000000000000 $t
     /tmp/ccVQttFk.s:863    .text.osSignalSet:0000000000000000 osSignalSet
     /tmp/ccVQttFk.s:958    .text.osSignalSet:0000000000000080 $d
     /tmp/ccVQttFk.s:963    .text.osSignalWait:0000000000000000 $t
     /tmp/ccVQttFk.s:968    .text.osSignalWait:0000000000000000 osSignalWait
     /tmp/ccVQttFk.s:1088   .text.osMutexCreate:0000000000000000 $t
     /tmp/ccVQttFk.s:1093   .text.osMutexCreate:0000000000000000 osMutexCreate
     /tmp/ccVQttFk.s:1129   .text.osMutexWait:0000000000000000 $t
     /tmp/ccVQttFk.s:1134   .text.osMutexWait:0000000000000000 osMutexWait
     /tmp/ccVQttFk.s:1255   .text.osMutexWait:000000000000009c $d
     /tmp/ccVQttFk.s:1260   .text.osMutexRelease:0000000000000000 $t
     /tmp/ccVQttFk.s:1265   .text.osMutexRelease:0000000000000000 osMutexRelease
     /tmp/ccVQttFk.s:1352   .text.osMutexRelease:0000000000000068 $d
     /tmp/ccVQttFk.s:1357   .text.osMutexDelete:0000000000000000 $t
     /tmp/ccVQttFk.s:1362   .text.osMutexDelete:0000000000000000 osMutexDelete
     /tmp/ccVQttFk.s:1409   .text.osSemaphoreCreate:0000000000000000 $t
     /tmp/ccVQttFk.s:1414   .text.osSemaphoreCreate:0000000000000000 osSemaphoreCreate
     /tmp/ccVQttFk.s:1474   .text.osSemaphoreWait:0000000000000000 $t
     /tmp/ccVQttFk.s:1479   .text.osSemaphoreWait:0000000000000000 osSemaphoreWait
     /tmp/ccVQttFk.s:1600   .text.osSemaphoreWait:000000000000009c $d
ARM GAS  /tmp/ccVQttFk.s 			page 108


     /tmp/ccVQttFk.s:1605   .text.osSemaphoreRelease:0000000000000000 $t
     /tmp/ccVQttFk.s:1610   .text.osSemaphoreRelease:0000000000000000 osSemaphoreRelease
     /tmp/ccVQttFk.s:1697   .text.osSemaphoreRelease:0000000000000068 $d
     /tmp/ccVQttFk.s:1702   .text.osSemaphoreDelete:0000000000000000 $t
     /tmp/ccVQttFk.s:1707   .text.osSemaphoreDelete:0000000000000000 osSemaphoreDelete
     /tmp/ccVQttFk.s:1754   .text.osPoolCreate:0000000000000000 $t
     /tmp/ccVQttFk.s:1759   .text.osPoolCreate:0000000000000000 osPoolCreate
     /tmp/ccVQttFk.s:1894   .text.osPoolAlloc:0000000000000000 $t
     /tmp/ccVQttFk.s:1899   .text.osPoolAlloc:0000000000000000 osPoolAlloc
     /tmp/ccVQttFk.s:2058   .text.osPoolCAlloc:0000000000000000 $t
     /tmp/ccVQttFk.s:2063   .text.osPoolCAlloc:0000000000000000 osPoolCAlloc
     /tmp/ccVQttFk.s:2111   .text.osPoolFree:0000000000000000 $t
     /tmp/ccVQttFk.s:2116   .text.osPoolFree:0000000000000000 osPoolFree
     /tmp/ccVQttFk.s:2224   .text.osMessageCreate:0000000000000000 $t
     /tmp/ccVQttFk.s:2229   .text.osMessageCreate:0000000000000000 osMessageCreate
     /tmp/ccVQttFk.s:2272   .text.osMessagePut:0000000000000000 $t
     /tmp/ccVQttFk.s:2277   .text.osMessagePut:0000000000000000 osMessagePut
     /tmp/ccVQttFk.s:2378   .text.osMessagePut:0000000000000084 $d
     /tmp/ccVQttFk.s:2383   .text.osMessageGet:0000000000000000 $t
     /tmp/ccVQttFk.s:2388   .text.osMessageGet:0000000000000000 osMessageGet
     /tmp/ccVQttFk.s:2552   .text.osMessageGet:00000000000000e8 $d
     /tmp/ccVQttFk.s:2557   .text.osMailCreate:0000000000000000 $t
     /tmp/ccVQttFk.s:2562   .text.osMailCreate:0000000000000000 osMailCreate
     /tmp/ccVQttFk.s:2688   .text.osMailAlloc:0000000000000000 $t
     /tmp/ccVQttFk.s:2693   .text.osMailAlloc:0000000000000000 osMailAlloc
     /tmp/ccVQttFk.s:2743   .text.osMailCAlloc:0000000000000000 $t
     /tmp/ccVQttFk.s:2748   .text.osMailCAlloc:0000000000000000 osMailCAlloc
     /tmp/ccVQttFk.s:2816   .text.osMailPut:0000000000000000 $t
     /tmp/ccVQttFk.s:2821   .text.osMailPut:0000000000000000 osMailPut
     /tmp/ccVQttFk.s:2922   .text.osMailPut:0000000000000080 $d
     /tmp/ccVQttFk.s:2927   .text.osMailGet:0000000000000000 $t
     /tmp/ccVQttFk.s:2932   .text.osMailGet:0000000000000000 osMailGet
     /tmp/ccVQttFk.s:3097   .text.osMailGet:00000000000000ec $d
     /tmp/ccVQttFk.s:3102   .text.osMailFree:0000000000000000 $t
     /tmp/ccVQttFk.s:3107   .text.osMailFree:0000000000000000 osMailFree
     /tmp/ccVQttFk.s:3156   .text.osSystickHandler:0000000000000000 $t
     /tmp/ccVQttFk.s:3161   .text.osSystickHandler:0000000000000000 osSystickHandler
     /tmp/ccVQttFk.s:3189   .text.osThreadSuspend:0000000000000000 $t
     /tmp/ccVQttFk.s:3194   .text.osThreadSuspend:0000000000000000 osThreadSuspend
     /tmp/ccVQttFk.s:3231   .text.osThreadResume:0000000000000000 $t
     /tmp/ccVQttFk.s:3236   .text.osThreadResume:0000000000000000 osThreadResume
     /tmp/ccVQttFk.s:3297   .text.osThreadResume:0000000000000040 $d
     /tmp/ccVQttFk.s:3302   .text.osThreadSuspendAll:0000000000000000 $t
     /tmp/ccVQttFk.s:3307   .text.osThreadSuspendAll:0000000000000000 osThreadSuspendAll
     /tmp/ccVQttFk.s:3332   .text.osThreadResumeAll:0000000000000000 $t
     /tmp/ccVQttFk.s:3337   .text.osThreadResumeAll:0000000000000000 osThreadResumeAll
     /tmp/ccVQttFk.s:3370   .text.osDelayUntil:0000000000000000 $t
     /tmp/ccVQttFk.s:3375   .text.osDelayUntil:0000000000000000 osDelayUntil
     /tmp/ccVQttFk.s:3428   .text.osAbortDelay:0000000000000000 $t
     /tmp/ccVQttFk.s:3433   .text.osAbortDelay:0000000000000000 osAbortDelay
     /tmp/ccVQttFk.s:3471   .text.osThreadList:0000000000000000 $t
     /tmp/ccVQttFk.s:3476   .text.osThreadList:0000000000000000 osThreadList
     /tmp/ccVQttFk.s:3514   .text.osMessagePeek:0000000000000000 $t
     /tmp/ccVQttFk.s:3519   .text.osMessagePeek:0000000000000000 osMessagePeek
     /tmp/ccVQttFk.s:3636   .text.osMessageWaiting:0000000000000000 $t
     /tmp/ccVQttFk.s:3641   .text.osMessageWaiting:0000000000000000 osMessageWaiting
     /tmp/ccVQttFk.s:3689   .text.osMessageAvailableSpace:0000000000000000 $t
ARM GAS  /tmp/ccVQttFk.s 			page 109


     /tmp/ccVQttFk.s:3694   .text.osMessageAvailableSpace:0000000000000000 osMessageAvailableSpace
     /tmp/ccVQttFk.s:3730   .text.osMessageDelete:0000000000000000 $t
     /tmp/ccVQttFk.s:3735   .text.osMessageDelete:0000000000000000 osMessageDelete
     /tmp/ccVQttFk.s:3782   .text.osRecursiveMutexCreate:0000000000000000 $t
     /tmp/ccVQttFk.s:3787   .text.osRecursiveMutexCreate:0000000000000000 osRecursiveMutexCreate
     /tmp/ccVQttFk.s:3825   .text.osRecursiveMutexRelease:0000000000000000 $t
     /tmp/ccVQttFk.s:3830   .text.osRecursiveMutexRelease:0000000000000000 osRecursiveMutexRelease
     /tmp/ccVQttFk.s:3868   .text.osRecursiveMutexWait:0000000000000000 $t
     /tmp/ccVQttFk.s:3873   .text.osRecursiveMutexWait:0000000000000000 osRecursiveMutexWait
     /tmp/ccVQttFk.s:3912   .text.osSemaphoreGetCount:0000000000000000 $t
     /tmp/ccVQttFk.s:3917   .text.osSemaphoreGetCount:0000000000000000 osSemaphoreGetCount
                     .debug_frame:0000000000000010 $d

UNDEFINED SYMBOLS
vTaskStartScheduler
xTaskGetSchedulerState
xTaskGetTickCountFromISR
xTaskGetTickCount
xTaskCreate
xTaskGetCurrentTaskHandle
vTaskDelete
vTaskPrioritySet
uxTaskPriorityGetFromISR
uxTaskPriorityGet
vTaskDelay
xTaskGenericNotifyFromISR
xTaskGenericNotify
xTaskNotifyWait
xQueueCreateMutex
xQueueReceiveFromISR
xQueueGenericReceive
xQueueGiveFromISR
xQueueGenericSend
vQueueDelete
xQueueGenericCreate
pvPortMalloc
vPortFree
vPortEnterCritical
vPortExitCritical
memset
xQueueGenericSendFromISR
xPortSysTickHandler
vTaskSuspend
xTaskResumeFromISR
vTaskResume
vTaskSuspendAll
xTaskResumeAll
vTaskDelayUntil
uxQueueMessagesWaitingFromISR
uxQueueMessagesWaiting
uxQueueSpacesAvailable
