ARM GAS  /tmp/ccrdNsWh.s 			page 1


   1              		.syntax unified
   2              		.cpu cortex-m4
   3              		.eabi_attribute 27, 1
   4              		.eabi_attribute 28, 1
   5              		.fpu fpv4-sp-d16
   6              		.eabi_attribute 20, 1
   7              		.eabi_attribute 21, 1
   8              		.eabi_attribute 23, 3
   9              		.eabi_attribute 24, 1
  10              		.eabi_attribute 25, 1
  11              		.eabi_attribute 26, 1
  12              		.eabi_attribute 30, 6
  13              		.eabi_attribute 34, 1
  14              		.eabi_attribute 18, 4
  15              		.thumb
  16              		.file	"stm32f4xx_hal_gpio.c"
  17              		.text
  18              	.Ltext0:
  19              		.cfi_sections	.debug_frame
  20              		.section	.text.HAL_GPIO_Init,"ax",%progbits
  21              		.align	2
  22              		.global	HAL_GPIO_Init
  23              		.thumb
  24              		.thumb_func
  26              	HAL_GPIO_Init:
  27              	.LFB123:
  28              		.file 1 "Drivers/STM32F4xx_HAL_Driver/Src/stm32f4xx_hal_gpio.c"
   1:Drivers/STM32F4xx_HAL_Driver/Src/stm32f4xx_hal_gpio.c **** /**
   2:Drivers/STM32F4xx_HAL_Driver/Src/stm32f4xx_hal_gpio.c ****   ******************************************************************************
   3:Drivers/STM32F4xx_HAL_Driver/Src/stm32f4xx_hal_gpio.c ****   * @file    stm32f4xx_hal_gpio.c
   4:Drivers/STM32F4xx_HAL_Driver/Src/stm32f4xx_hal_gpio.c ****   * @author  MCD Application Team
   5:Drivers/STM32F4xx_HAL_Driver/Src/stm32f4xx_hal_gpio.c ****   * @brief   GPIO HAL module driver.
   6:Drivers/STM32F4xx_HAL_Driver/Src/stm32f4xx_hal_gpio.c ****   *          This file provides firmware functions to manage the following 
   7:Drivers/STM32F4xx_HAL_Driver/Src/stm32f4xx_hal_gpio.c ****   *          functionalities of the General Purpose Input/Output (GPIO) peripheral:
   8:Drivers/STM32F4xx_HAL_Driver/Src/stm32f4xx_hal_gpio.c ****   *           + Initialization and de-initialization functions
   9:Drivers/STM32F4xx_HAL_Driver/Src/stm32f4xx_hal_gpio.c ****   *           + IO operation functions
  10:Drivers/STM32F4xx_HAL_Driver/Src/stm32f4xx_hal_gpio.c ****   *
  11:Drivers/STM32F4xx_HAL_Driver/Src/stm32f4xx_hal_gpio.c ****   @verbatim
  12:Drivers/STM32F4xx_HAL_Driver/Src/stm32f4xx_hal_gpio.c ****   ==============================================================================
  13:Drivers/STM32F4xx_HAL_Driver/Src/stm32f4xx_hal_gpio.c ****                     ##### GPIO Peripheral features #####
  14:Drivers/STM32F4xx_HAL_Driver/Src/stm32f4xx_hal_gpio.c ****   ==============================================================================
  15:Drivers/STM32F4xx_HAL_Driver/Src/stm32f4xx_hal_gpio.c ****   [..] 
  16:Drivers/STM32F4xx_HAL_Driver/Src/stm32f4xx_hal_gpio.c ****   Subject to the specific hardware characteristics of each I/O port listed in the datasheet, each
  17:Drivers/STM32F4xx_HAL_Driver/Src/stm32f4xx_hal_gpio.c ****   port bit of the General Purpose IO (GPIO) Ports, can be individually configured by software
  18:Drivers/STM32F4xx_HAL_Driver/Src/stm32f4xx_hal_gpio.c ****   in several modes:
  19:Drivers/STM32F4xx_HAL_Driver/Src/stm32f4xx_hal_gpio.c ****   (+) Input mode 
  20:Drivers/STM32F4xx_HAL_Driver/Src/stm32f4xx_hal_gpio.c ****   (+) Analog mode
  21:Drivers/STM32F4xx_HAL_Driver/Src/stm32f4xx_hal_gpio.c ****   (+) Output mode
  22:Drivers/STM32F4xx_HAL_Driver/Src/stm32f4xx_hal_gpio.c ****   (+) Alternate function mode
  23:Drivers/STM32F4xx_HAL_Driver/Src/stm32f4xx_hal_gpio.c ****   (+) External interrupt/event lines
  24:Drivers/STM32F4xx_HAL_Driver/Src/stm32f4xx_hal_gpio.c **** 
  25:Drivers/STM32F4xx_HAL_Driver/Src/stm32f4xx_hal_gpio.c ****   [..]  
  26:Drivers/STM32F4xx_HAL_Driver/Src/stm32f4xx_hal_gpio.c ****   During and just after reset, the alternate functions and external interrupt  
  27:Drivers/STM32F4xx_HAL_Driver/Src/stm32f4xx_hal_gpio.c ****   lines are not active and the I/O ports are configured in input floating mode.
  28:Drivers/STM32F4xx_HAL_Driver/Src/stm32f4xx_hal_gpio.c ****   
  29:Drivers/STM32F4xx_HAL_Driver/Src/stm32f4xx_hal_gpio.c ****   [..]   
  30:Drivers/STM32F4xx_HAL_Driver/Src/stm32f4xx_hal_gpio.c ****   All GPIO pins have weak internal pull-up and pull-down resistors, which can be 
ARM GAS  /tmp/ccrdNsWh.s 			page 2


  31:Drivers/STM32F4xx_HAL_Driver/Src/stm32f4xx_hal_gpio.c ****   activated or not.
  32:Drivers/STM32F4xx_HAL_Driver/Src/stm32f4xx_hal_gpio.c **** 
  33:Drivers/STM32F4xx_HAL_Driver/Src/stm32f4xx_hal_gpio.c ****   [..]
  34:Drivers/STM32F4xx_HAL_Driver/Src/stm32f4xx_hal_gpio.c ****   In Output or Alternate mode, each IO can be configured on open-drain or push-pull
  35:Drivers/STM32F4xx_HAL_Driver/Src/stm32f4xx_hal_gpio.c ****   type and the IO speed can be selected depending on the VDD value.
  36:Drivers/STM32F4xx_HAL_Driver/Src/stm32f4xx_hal_gpio.c **** 
  37:Drivers/STM32F4xx_HAL_Driver/Src/stm32f4xx_hal_gpio.c ****   [..]  
  38:Drivers/STM32F4xx_HAL_Driver/Src/stm32f4xx_hal_gpio.c ****   All ports have external interrupt/event capability. To use external interrupt 
  39:Drivers/STM32F4xx_HAL_Driver/Src/stm32f4xx_hal_gpio.c ****   lines, the port must be configured in input mode. All available GPIO pins are 
  40:Drivers/STM32F4xx_HAL_Driver/Src/stm32f4xx_hal_gpio.c ****   connected to the 16 external interrupt/event lines from EXTI0 to EXTI15.
  41:Drivers/STM32F4xx_HAL_Driver/Src/stm32f4xx_hal_gpio.c ****   
  42:Drivers/STM32F4xx_HAL_Driver/Src/stm32f4xx_hal_gpio.c ****   [..]
  43:Drivers/STM32F4xx_HAL_Driver/Src/stm32f4xx_hal_gpio.c ****   The external interrupt/event controller consists of up to 23 edge detectors 
  44:Drivers/STM32F4xx_HAL_Driver/Src/stm32f4xx_hal_gpio.c ****   (16 lines are connected to GPIO) for generating event/interrupt requests (each 
  45:Drivers/STM32F4xx_HAL_Driver/Src/stm32f4xx_hal_gpio.c ****   input line can be independently configured to select the type (interrupt or event) 
  46:Drivers/STM32F4xx_HAL_Driver/Src/stm32f4xx_hal_gpio.c ****   and the corresponding trigger event (rising or falling or both). Each line can 
  47:Drivers/STM32F4xx_HAL_Driver/Src/stm32f4xx_hal_gpio.c ****   also be masked independently. 
  48:Drivers/STM32F4xx_HAL_Driver/Src/stm32f4xx_hal_gpio.c **** 
  49:Drivers/STM32F4xx_HAL_Driver/Src/stm32f4xx_hal_gpio.c ****                      ##### How to use this driver #####
  50:Drivers/STM32F4xx_HAL_Driver/Src/stm32f4xx_hal_gpio.c ****   ==============================================================================  
  51:Drivers/STM32F4xx_HAL_Driver/Src/stm32f4xx_hal_gpio.c ****   [..]
  52:Drivers/STM32F4xx_HAL_Driver/Src/stm32f4xx_hal_gpio.c ****     (#) Enable the GPIO AHB clock using the following function: __HAL_RCC_GPIOx_CLK_ENABLE(). 
  53:Drivers/STM32F4xx_HAL_Driver/Src/stm32f4xx_hal_gpio.c **** 
  54:Drivers/STM32F4xx_HAL_Driver/Src/stm32f4xx_hal_gpio.c ****     (#) Configure the GPIO pin(s) using HAL_GPIO_Init().
  55:Drivers/STM32F4xx_HAL_Driver/Src/stm32f4xx_hal_gpio.c ****         (++) Configure the IO mode using "Mode" member from GPIO_InitTypeDef structure
  56:Drivers/STM32F4xx_HAL_Driver/Src/stm32f4xx_hal_gpio.c ****         (++) Activate Pull-up, Pull-down resistor using "Pull" member from GPIO_InitTypeDef 
  57:Drivers/STM32F4xx_HAL_Driver/Src/stm32f4xx_hal_gpio.c ****              structure.
  58:Drivers/STM32F4xx_HAL_Driver/Src/stm32f4xx_hal_gpio.c ****         (++) In case of Output or alternate function mode selection: the speed is 
  59:Drivers/STM32F4xx_HAL_Driver/Src/stm32f4xx_hal_gpio.c ****              configured through "Speed" member from GPIO_InitTypeDef structure.
  60:Drivers/STM32F4xx_HAL_Driver/Src/stm32f4xx_hal_gpio.c ****         (++) In alternate mode is selection, the alternate function connected to the IO
  61:Drivers/STM32F4xx_HAL_Driver/Src/stm32f4xx_hal_gpio.c ****              is configured through "Alternate" member from GPIO_InitTypeDef structure.
  62:Drivers/STM32F4xx_HAL_Driver/Src/stm32f4xx_hal_gpio.c ****         (++) Analog mode is required when a pin is to be used as ADC channel 
  63:Drivers/STM32F4xx_HAL_Driver/Src/stm32f4xx_hal_gpio.c ****              or DAC output.
  64:Drivers/STM32F4xx_HAL_Driver/Src/stm32f4xx_hal_gpio.c ****         (++) In case of external interrupt/event selection the "Mode" member from 
  65:Drivers/STM32F4xx_HAL_Driver/Src/stm32f4xx_hal_gpio.c ****              GPIO_InitTypeDef structure select the type (interrupt or event) and 
  66:Drivers/STM32F4xx_HAL_Driver/Src/stm32f4xx_hal_gpio.c ****              the corresponding trigger event (rising or falling or both).
  67:Drivers/STM32F4xx_HAL_Driver/Src/stm32f4xx_hal_gpio.c **** 
  68:Drivers/STM32F4xx_HAL_Driver/Src/stm32f4xx_hal_gpio.c ****     (#) In case of external interrupt/event mode selection, configure NVIC IRQ priority 
  69:Drivers/STM32F4xx_HAL_Driver/Src/stm32f4xx_hal_gpio.c ****         mapped to the EXTI line using HAL_NVIC_SetPriority() and enable it using
  70:Drivers/STM32F4xx_HAL_Driver/Src/stm32f4xx_hal_gpio.c ****         HAL_NVIC_EnableIRQ().
  71:Drivers/STM32F4xx_HAL_Driver/Src/stm32f4xx_hal_gpio.c ****          
  72:Drivers/STM32F4xx_HAL_Driver/Src/stm32f4xx_hal_gpio.c ****     (#) To get the level of a pin configured in input mode use HAL_GPIO_ReadPin().
  73:Drivers/STM32F4xx_HAL_Driver/Src/stm32f4xx_hal_gpio.c ****             
  74:Drivers/STM32F4xx_HAL_Driver/Src/stm32f4xx_hal_gpio.c ****     (#) To set/reset the level of a pin configured in output mode use 
  75:Drivers/STM32F4xx_HAL_Driver/Src/stm32f4xx_hal_gpio.c ****         HAL_GPIO_WritePin()/HAL_GPIO_TogglePin().
  76:Drivers/STM32F4xx_HAL_Driver/Src/stm32f4xx_hal_gpio.c ****     
  77:Drivers/STM32F4xx_HAL_Driver/Src/stm32f4xx_hal_gpio.c ****     (#) To lock pin configuration until next reset use HAL_GPIO_LockPin().
  78:Drivers/STM32F4xx_HAL_Driver/Src/stm32f4xx_hal_gpio.c **** 
  79:Drivers/STM32F4xx_HAL_Driver/Src/stm32f4xx_hal_gpio.c ****                  
  80:Drivers/STM32F4xx_HAL_Driver/Src/stm32f4xx_hal_gpio.c ****     (#) During and just after reset, the alternate functions are not 
  81:Drivers/STM32F4xx_HAL_Driver/Src/stm32f4xx_hal_gpio.c ****         active and the GPIO pins are configured in input floating mode (except JTAG
  82:Drivers/STM32F4xx_HAL_Driver/Src/stm32f4xx_hal_gpio.c ****         pins).
  83:Drivers/STM32F4xx_HAL_Driver/Src/stm32f4xx_hal_gpio.c ****   
  84:Drivers/STM32F4xx_HAL_Driver/Src/stm32f4xx_hal_gpio.c ****     (#) The LSE oscillator pins OSC32_IN and OSC32_OUT can be used as general purpose 
  85:Drivers/STM32F4xx_HAL_Driver/Src/stm32f4xx_hal_gpio.c ****         (PC14 and PC15, respectively) when the LSE oscillator is off. The LSE has 
  86:Drivers/STM32F4xx_HAL_Driver/Src/stm32f4xx_hal_gpio.c ****         priority over the GPIO function.
  87:Drivers/STM32F4xx_HAL_Driver/Src/stm32f4xx_hal_gpio.c ****   
ARM GAS  /tmp/ccrdNsWh.s 			page 3


  88:Drivers/STM32F4xx_HAL_Driver/Src/stm32f4xx_hal_gpio.c ****     (#) The HSE oscillator pins OSC_IN/OSC_OUT can be used as 
  89:Drivers/STM32F4xx_HAL_Driver/Src/stm32f4xx_hal_gpio.c ****         general purpose PH0 and PH1, respectively, when the HSE oscillator is off. 
  90:Drivers/STM32F4xx_HAL_Driver/Src/stm32f4xx_hal_gpio.c ****         The HSE has priority over the GPIO function.
  91:Drivers/STM32F4xx_HAL_Driver/Src/stm32f4xx_hal_gpio.c ****   
  92:Drivers/STM32F4xx_HAL_Driver/Src/stm32f4xx_hal_gpio.c ****   @endverbatim
  93:Drivers/STM32F4xx_HAL_Driver/Src/stm32f4xx_hal_gpio.c ****   ******************************************************************************
  94:Drivers/STM32F4xx_HAL_Driver/Src/stm32f4xx_hal_gpio.c ****   * @attention
  95:Drivers/STM32F4xx_HAL_Driver/Src/stm32f4xx_hal_gpio.c ****   *
  96:Drivers/STM32F4xx_HAL_Driver/Src/stm32f4xx_hal_gpio.c ****   * <h2><center>&copy; COPYRIGHT(c) 2017 STMicroelectronics</center></h2>
  97:Drivers/STM32F4xx_HAL_Driver/Src/stm32f4xx_hal_gpio.c ****   *
  98:Drivers/STM32F4xx_HAL_Driver/Src/stm32f4xx_hal_gpio.c ****   * Redistribution and use in source and binary forms, with or without modification,
  99:Drivers/STM32F4xx_HAL_Driver/Src/stm32f4xx_hal_gpio.c ****   * are permitted provided that the following conditions are met:
 100:Drivers/STM32F4xx_HAL_Driver/Src/stm32f4xx_hal_gpio.c ****   *   1. Redistributions of source code must retain the above copyright notice,
 101:Drivers/STM32F4xx_HAL_Driver/Src/stm32f4xx_hal_gpio.c ****   *      this list of conditions and the following disclaimer.
 102:Drivers/STM32F4xx_HAL_Driver/Src/stm32f4xx_hal_gpio.c ****   *   2. Redistributions in binary form must reproduce the above copyright notice,
 103:Drivers/STM32F4xx_HAL_Driver/Src/stm32f4xx_hal_gpio.c ****   *      this list of conditions and the following disclaimer in the documentation
 104:Drivers/STM32F4xx_HAL_Driver/Src/stm32f4xx_hal_gpio.c ****   *      and/or other materials provided with the distribution.
 105:Drivers/STM32F4xx_HAL_Driver/Src/stm32f4xx_hal_gpio.c ****   *   3. Neither the name of STMicroelectronics nor the names of its contributors
 106:Drivers/STM32F4xx_HAL_Driver/Src/stm32f4xx_hal_gpio.c ****   *      may be used to endorse or promote products derived from this software
 107:Drivers/STM32F4xx_HAL_Driver/Src/stm32f4xx_hal_gpio.c ****   *      without specific prior written permission.
 108:Drivers/STM32F4xx_HAL_Driver/Src/stm32f4xx_hal_gpio.c ****   *
 109:Drivers/STM32F4xx_HAL_Driver/Src/stm32f4xx_hal_gpio.c ****   * THIS SOFTWARE IS PROVIDED BY THE COPYRIGHT HOLDERS AND CONTRIBUTORS "AS IS"
 110:Drivers/STM32F4xx_HAL_Driver/Src/stm32f4xx_hal_gpio.c ****   * AND ANY EXPRESS OR IMPLIED WARRANTIES, INCLUDING, BUT NOT LIMITED TO, THE
 111:Drivers/STM32F4xx_HAL_Driver/Src/stm32f4xx_hal_gpio.c ****   * IMPLIED WARRANTIES OF MERCHANTABILITY AND FITNESS FOR A PARTICULAR PURPOSE ARE
 112:Drivers/STM32F4xx_HAL_Driver/Src/stm32f4xx_hal_gpio.c ****   * DISCLAIMED. IN NO EVENT SHALL THE COPYRIGHT HOLDER OR CONTRIBUTORS BE LIABLE
 113:Drivers/STM32F4xx_HAL_Driver/Src/stm32f4xx_hal_gpio.c ****   * FOR ANY DIRECT, INDIRECT, INCIDENTAL, SPECIAL, EXEMPLARY, OR CONSEQUENTIAL
 114:Drivers/STM32F4xx_HAL_Driver/Src/stm32f4xx_hal_gpio.c ****   * DAMAGES (INCLUDING, BUT NOT LIMITED TO, PROCUREMENT OF SUBSTITUTE GOODS OR
 115:Drivers/STM32F4xx_HAL_Driver/Src/stm32f4xx_hal_gpio.c ****   * SERVICES; LOSS OF USE, DATA, OR PROFITS; OR BUSINESS INTERRUPTION) HOWEVER
 116:Drivers/STM32F4xx_HAL_Driver/Src/stm32f4xx_hal_gpio.c ****   * CAUSED AND ON ANY THEORY OF LIABILITY, WHETHER IN CONTRACT, STRICT LIABILITY,
 117:Drivers/STM32F4xx_HAL_Driver/Src/stm32f4xx_hal_gpio.c ****   * OR TORT (INCLUDING NEGLIGENCE OR OTHERWISE) ARISING IN ANY WAY OUT OF THE USE
 118:Drivers/STM32F4xx_HAL_Driver/Src/stm32f4xx_hal_gpio.c ****   * OF THIS SOFTWARE, EVEN IF ADVISED OF THE POSSIBILITY OF SUCH DAMAGE.
 119:Drivers/STM32F4xx_HAL_Driver/Src/stm32f4xx_hal_gpio.c ****   *
 120:Drivers/STM32F4xx_HAL_Driver/Src/stm32f4xx_hal_gpio.c ****   ******************************************************************************
 121:Drivers/STM32F4xx_HAL_Driver/Src/stm32f4xx_hal_gpio.c ****   */ 
 122:Drivers/STM32F4xx_HAL_Driver/Src/stm32f4xx_hal_gpio.c **** 
 123:Drivers/STM32F4xx_HAL_Driver/Src/stm32f4xx_hal_gpio.c **** /* Includes ------------------------------------------------------------------*/
 124:Drivers/STM32F4xx_HAL_Driver/Src/stm32f4xx_hal_gpio.c **** #include "stm32f4xx_hal.h"
 125:Drivers/STM32F4xx_HAL_Driver/Src/stm32f4xx_hal_gpio.c **** 
 126:Drivers/STM32F4xx_HAL_Driver/Src/stm32f4xx_hal_gpio.c **** /** @addtogroup STM32F4xx_HAL_Driver
 127:Drivers/STM32F4xx_HAL_Driver/Src/stm32f4xx_hal_gpio.c ****   * @{
 128:Drivers/STM32F4xx_HAL_Driver/Src/stm32f4xx_hal_gpio.c ****   */
 129:Drivers/STM32F4xx_HAL_Driver/Src/stm32f4xx_hal_gpio.c **** 
 130:Drivers/STM32F4xx_HAL_Driver/Src/stm32f4xx_hal_gpio.c **** /** @defgroup GPIO GPIO
 131:Drivers/STM32F4xx_HAL_Driver/Src/stm32f4xx_hal_gpio.c ****   * @brief GPIO HAL module driver
 132:Drivers/STM32F4xx_HAL_Driver/Src/stm32f4xx_hal_gpio.c ****   * @{
 133:Drivers/STM32F4xx_HAL_Driver/Src/stm32f4xx_hal_gpio.c ****   */
 134:Drivers/STM32F4xx_HAL_Driver/Src/stm32f4xx_hal_gpio.c **** 
 135:Drivers/STM32F4xx_HAL_Driver/Src/stm32f4xx_hal_gpio.c **** #ifdef HAL_GPIO_MODULE_ENABLED
 136:Drivers/STM32F4xx_HAL_Driver/Src/stm32f4xx_hal_gpio.c **** 
 137:Drivers/STM32F4xx_HAL_Driver/Src/stm32f4xx_hal_gpio.c **** /* Private typedef -----------------------------------------------------------*/
 138:Drivers/STM32F4xx_HAL_Driver/Src/stm32f4xx_hal_gpio.c **** /* Private define ------------------------------------------------------------*/
 139:Drivers/STM32F4xx_HAL_Driver/Src/stm32f4xx_hal_gpio.c **** /** @addtogroup GPIO_Private_Constants GPIO Private Constants
 140:Drivers/STM32F4xx_HAL_Driver/Src/stm32f4xx_hal_gpio.c ****   * @{
 141:Drivers/STM32F4xx_HAL_Driver/Src/stm32f4xx_hal_gpio.c ****   */
 142:Drivers/STM32F4xx_HAL_Driver/Src/stm32f4xx_hal_gpio.c **** #define GPIO_MODE             0x00000003U
 143:Drivers/STM32F4xx_HAL_Driver/Src/stm32f4xx_hal_gpio.c **** #define EXTI_MODE             0x10000000U
 144:Drivers/STM32F4xx_HAL_Driver/Src/stm32f4xx_hal_gpio.c **** #define GPIO_MODE_IT          0x00010000U
ARM GAS  /tmp/ccrdNsWh.s 			page 4


 145:Drivers/STM32F4xx_HAL_Driver/Src/stm32f4xx_hal_gpio.c **** #define GPIO_MODE_EVT         0x00020000U
 146:Drivers/STM32F4xx_HAL_Driver/Src/stm32f4xx_hal_gpio.c **** #define RISING_EDGE           0x00100000U
 147:Drivers/STM32F4xx_HAL_Driver/Src/stm32f4xx_hal_gpio.c **** #define FALLING_EDGE          0x00200000U
 148:Drivers/STM32F4xx_HAL_Driver/Src/stm32f4xx_hal_gpio.c **** #define GPIO_OUTPUT_TYPE      0x00000010U
 149:Drivers/STM32F4xx_HAL_Driver/Src/stm32f4xx_hal_gpio.c **** 
 150:Drivers/STM32F4xx_HAL_Driver/Src/stm32f4xx_hal_gpio.c **** #define GPIO_NUMBER           16U
 151:Drivers/STM32F4xx_HAL_Driver/Src/stm32f4xx_hal_gpio.c **** /**
 152:Drivers/STM32F4xx_HAL_Driver/Src/stm32f4xx_hal_gpio.c ****   * @}
 153:Drivers/STM32F4xx_HAL_Driver/Src/stm32f4xx_hal_gpio.c ****   */
 154:Drivers/STM32F4xx_HAL_Driver/Src/stm32f4xx_hal_gpio.c **** /* Private macro -------------------------------------------------------------*/
 155:Drivers/STM32F4xx_HAL_Driver/Src/stm32f4xx_hal_gpio.c **** /* Private variables ---------------------------------------------------------*/
 156:Drivers/STM32F4xx_HAL_Driver/Src/stm32f4xx_hal_gpio.c **** /* Private function prototypes -----------------------------------------------*/
 157:Drivers/STM32F4xx_HAL_Driver/Src/stm32f4xx_hal_gpio.c **** /* Private functions ---------------------------------------------------------*/
 158:Drivers/STM32F4xx_HAL_Driver/Src/stm32f4xx_hal_gpio.c **** /* Exported functions --------------------------------------------------------*/
 159:Drivers/STM32F4xx_HAL_Driver/Src/stm32f4xx_hal_gpio.c **** /** @defgroup GPIO_Exported_Functions GPIO Exported Functions
 160:Drivers/STM32F4xx_HAL_Driver/Src/stm32f4xx_hal_gpio.c ****   * @{
 161:Drivers/STM32F4xx_HAL_Driver/Src/stm32f4xx_hal_gpio.c ****   */
 162:Drivers/STM32F4xx_HAL_Driver/Src/stm32f4xx_hal_gpio.c **** 
 163:Drivers/STM32F4xx_HAL_Driver/Src/stm32f4xx_hal_gpio.c **** /** @defgroup GPIO_Exported_Functions_Group1 Initialization and de-initialization functions
 164:Drivers/STM32F4xx_HAL_Driver/Src/stm32f4xx_hal_gpio.c ****   *  @brief    Initialization and Configuration functions
 165:Drivers/STM32F4xx_HAL_Driver/Src/stm32f4xx_hal_gpio.c ****   *
 166:Drivers/STM32F4xx_HAL_Driver/Src/stm32f4xx_hal_gpio.c **** @verbatim    
 167:Drivers/STM32F4xx_HAL_Driver/Src/stm32f4xx_hal_gpio.c ****  ===============================================================================
 168:Drivers/STM32F4xx_HAL_Driver/Src/stm32f4xx_hal_gpio.c ****               ##### Initialization and de-initialization functions #####
 169:Drivers/STM32F4xx_HAL_Driver/Src/stm32f4xx_hal_gpio.c ****  ===============================================================================
 170:Drivers/STM32F4xx_HAL_Driver/Src/stm32f4xx_hal_gpio.c ****   [..]
 171:Drivers/STM32F4xx_HAL_Driver/Src/stm32f4xx_hal_gpio.c ****     This section provides functions allowing to initialize and de-initialize the GPIOs
 172:Drivers/STM32F4xx_HAL_Driver/Src/stm32f4xx_hal_gpio.c ****     to be ready for use.
 173:Drivers/STM32F4xx_HAL_Driver/Src/stm32f4xx_hal_gpio.c ****  
 174:Drivers/STM32F4xx_HAL_Driver/Src/stm32f4xx_hal_gpio.c **** @endverbatim
 175:Drivers/STM32F4xx_HAL_Driver/Src/stm32f4xx_hal_gpio.c ****   * @{
 176:Drivers/STM32F4xx_HAL_Driver/Src/stm32f4xx_hal_gpio.c ****   */
 177:Drivers/STM32F4xx_HAL_Driver/Src/stm32f4xx_hal_gpio.c **** 
 178:Drivers/STM32F4xx_HAL_Driver/Src/stm32f4xx_hal_gpio.c **** 
 179:Drivers/STM32F4xx_HAL_Driver/Src/stm32f4xx_hal_gpio.c **** /**
 180:Drivers/STM32F4xx_HAL_Driver/Src/stm32f4xx_hal_gpio.c ****   * @brief  Initializes the GPIOx peripheral according to the specified parameters in the GPIO_Init
 181:Drivers/STM32F4xx_HAL_Driver/Src/stm32f4xx_hal_gpio.c ****   * @param  GPIOx where x can be (A..K) to select the GPIO peripheral for STM32F429X device or
 182:Drivers/STM32F4xx_HAL_Driver/Src/stm32f4xx_hal_gpio.c ****   *                      x can be (A..I) to select the GPIO peripheral for STM32F40XX and STM32F427
 183:Drivers/STM32F4xx_HAL_Driver/Src/stm32f4xx_hal_gpio.c ****   * @param  GPIO_Init pointer to a GPIO_InitTypeDef structure that contains
 184:Drivers/STM32F4xx_HAL_Driver/Src/stm32f4xx_hal_gpio.c ****   *         the configuration information for the specified GPIO peripheral.
 185:Drivers/STM32F4xx_HAL_Driver/Src/stm32f4xx_hal_gpio.c ****   * @retval None
 186:Drivers/STM32F4xx_HAL_Driver/Src/stm32f4xx_hal_gpio.c ****   */
 187:Drivers/STM32F4xx_HAL_Driver/Src/stm32f4xx_hal_gpio.c **** void HAL_GPIO_Init(GPIO_TypeDef  *GPIOx, GPIO_InitTypeDef *GPIO_Init)
 188:Drivers/STM32F4xx_HAL_Driver/Src/stm32f4xx_hal_gpio.c **** {
  29              		.loc 1 188 0
  30              		.cfi_startproc
  31              		@ args = 0, pretend = 0, frame = 32
  32              		@ frame_needed = 1, uses_anonymous_args = 0
  33              		@ link register save eliminated.
  34 0000 80B4     		push	{r7}
  35              	.LCFI0:
  36              		.cfi_def_cfa_offset 4
  37              		.cfi_offset 7, -4
  38 0002 89B0     		sub	sp, sp, #36
  39              	.LCFI1:
  40              		.cfi_def_cfa_offset 40
  41 0004 00AF     		add	r7, sp, #0
ARM GAS  /tmp/ccrdNsWh.s 			page 5


  42              	.LCFI2:
  43              		.cfi_def_cfa_register 7
  44 0006 7860     		str	r0, [r7, #4]
  45 0008 3960     		str	r1, [r7]
 189:Drivers/STM32F4xx_HAL_Driver/Src/stm32f4xx_hal_gpio.c ****   uint32_t position;
 190:Drivers/STM32F4xx_HAL_Driver/Src/stm32f4xx_hal_gpio.c ****   uint32_t ioposition = 0x00U;
  46              		.loc 1 190 0
  47 000a 0023     		movs	r3, #0
  48 000c 7B61     		str	r3, [r7, #20]
 191:Drivers/STM32F4xx_HAL_Driver/Src/stm32f4xx_hal_gpio.c ****   uint32_t iocurrent = 0x00U;
  49              		.loc 1 191 0
  50 000e 0023     		movs	r3, #0
  51 0010 3B61     		str	r3, [r7, #16]
 192:Drivers/STM32F4xx_HAL_Driver/Src/stm32f4xx_hal_gpio.c ****   uint32_t temp = 0x00U;
  52              		.loc 1 192 0
  53 0012 0023     		movs	r3, #0
  54 0014 BB61     		str	r3, [r7, #24]
 193:Drivers/STM32F4xx_HAL_Driver/Src/stm32f4xx_hal_gpio.c **** 
 194:Drivers/STM32F4xx_HAL_Driver/Src/stm32f4xx_hal_gpio.c ****   /* Check the parameters */
 195:Drivers/STM32F4xx_HAL_Driver/Src/stm32f4xx_hal_gpio.c ****   assert_param(IS_GPIO_ALL_INSTANCE(GPIOx));
 196:Drivers/STM32F4xx_HAL_Driver/Src/stm32f4xx_hal_gpio.c ****   assert_param(IS_GPIO_PIN(GPIO_Init->Pin));
 197:Drivers/STM32F4xx_HAL_Driver/Src/stm32f4xx_hal_gpio.c ****   assert_param(IS_GPIO_MODE(GPIO_Init->Mode));
 198:Drivers/STM32F4xx_HAL_Driver/Src/stm32f4xx_hal_gpio.c ****   assert_param(IS_GPIO_PULL(GPIO_Init->Pull));
 199:Drivers/STM32F4xx_HAL_Driver/Src/stm32f4xx_hal_gpio.c **** 
 200:Drivers/STM32F4xx_HAL_Driver/Src/stm32f4xx_hal_gpio.c ****   /* Configure the port pins */
 201:Drivers/STM32F4xx_HAL_Driver/Src/stm32f4xx_hal_gpio.c ****   for(position = 0U; position < GPIO_NUMBER; position++)
  55              		.loc 1 201 0
  56 0016 0023     		movs	r3, #0
  57 0018 FB61     		str	r3, [r7, #28]
  58 001a 67E1     		b	.L2
  59              	.L28:
 202:Drivers/STM32F4xx_HAL_Driver/Src/stm32f4xx_hal_gpio.c ****   {
 203:Drivers/STM32F4xx_HAL_Driver/Src/stm32f4xx_hal_gpio.c ****     /* Get the IO position */
 204:Drivers/STM32F4xx_HAL_Driver/Src/stm32f4xx_hal_gpio.c ****     ioposition = 0x01U << position;
  60              		.loc 1 204 0
  61 001c FB69     		ldr	r3, [r7, #28]
  62 001e 0122     		movs	r2, #1
  63 0020 02FA03F3 		lsl	r3, r2, r3
  64 0024 7B61     		str	r3, [r7, #20]
 205:Drivers/STM32F4xx_HAL_Driver/Src/stm32f4xx_hal_gpio.c ****     /* Get the current IO position */
 206:Drivers/STM32F4xx_HAL_Driver/Src/stm32f4xx_hal_gpio.c ****     iocurrent = (uint32_t)(GPIO_Init->Pin) & ioposition;
  65              		.loc 1 206 0
  66 0026 3B68     		ldr	r3, [r7]
  67 0028 1A68     		ldr	r2, [r3]
  68 002a 7B69     		ldr	r3, [r7, #20]
  69 002c 1340     		ands	r3, r3, r2
  70 002e 3B61     		str	r3, [r7, #16]
 207:Drivers/STM32F4xx_HAL_Driver/Src/stm32f4xx_hal_gpio.c **** 
 208:Drivers/STM32F4xx_HAL_Driver/Src/stm32f4xx_hal_gpio.c ****     if(iocurrent == ioposition)
  71              		.loc 1 208 0
  72 0030 3A69     		ldr	r2, [r7, #16]
  73 0032 7B69     		ldr	r3, [r7, #20]
  74 0034 9A42     		cmp	r2, r3
  75 0036 40F05681 		bne	.L3
 209:Drivers/STM32F4xx_HAL_Driver/Src/stm32f4xx_hal_gpio.c ****     {
 210:Drivers/STM32F4xx_HAL_Driver/Src/stm32f4xx_hal_gpio.c ****       /*--------------------- GPIO Mode Configuration ------------------------*/
 211:Drivers/STM32F4xx_HAL_Driver/Src/stm32f4xx_hal_gpio.c ****       /* In case of Alternate function mode selection */
ARM GAS  /tmp/ccrdNsWh.s 			page 6


 212:Drivers/STM32F4xx_HAL_Driver/Src/stm32f4xx_hal_gpio.c ****       if((GPIO_Init->Mode == GPIO_MODE_AF_PP) || (GPIO_Init->Mode == GPIO_MODE_AF_OD))
  76              		.loc 1 212 0
  77 003a 3B68     		ldr	r3, [r7]
  78 003c 5B68     		ldr	r3, [r3, #4]
  79 003e 022B     		cmp	r3, #2
  80 0040 03D0     		beq	.L4
  81              		.loc 1 212 0 is_stmt 0 discriminator 1
  82 0042 3B68     		ldr	r3, [r7]
  83 0044 5B68     		ldr	r3, [r3, #4]
  84 0046 122B     		cmp	r3, #18
  85 0048 22D1     		bne	.L5
  86              	.L4:
 213:Drivers/STM32F4xx_HAL_Driver/Src/stm32f4xx_hal_gpio.c ****       {
 214:Drivers/STM32F4xx_HAL_Driver/Src/stm32f4xx_hal_gpio.c ****         /* Check the Alternate function parameter */
 215:Drivers/STM32F4xx_HAL_Driver/Src/stm32f4xx_hal_gpio.c ****         assert_param(IS_GPIO_AF(GPIO_Init->Alternate));
 216:Drivers/STM32F4xx_HAL_Driver/Src/stm32f4xx_hal_gpio.c ****         /* Configure Alternate function mapped with the current IO */
 217:Drivers/STM32F4xx_HAL_Driver/Src/stm32f4xx_hal_gpio.c ****         temp = GPIOx->AFR[position >> 3U];
  87              		.loc 1 217 0 is_stmt 1
  88 004a FB69     		ldr	r3, [r7, #28]
  89 004c DA08     		lsrs	r2, r3, #3
  90 004e 7B68     		ldr	r3, [r7, #4]
  91 0050 0832     		adds	r2, r2, #8
  92 0052 53F82230 		ldr	r3, [r3, r2, lsl #2]
  93 0056 BB61     		str	r3, [r7, #24]
 218:Drivers/STM32F4xx_HAL_Driver/Src/stm32f4xx_hal_gpio.c ****         temp &= ~(0xFU << ((uint32_t)(position & 0x07U) * 4U)) ;
  94              		.loc 1 218 0
  95 0058 FB69     		ldr	r3, [r7, #28]
  96 005a 03F00703 		and	r3, r3, #7
  97 005e 9B00     		lsls	r3, r3, #2
  98 0060 1A46     		mov	r2, r3
  99 0062 0F23     		movs	r3, #15
 100 0064 9340     		lsls	r3, r3, r2
 101 0066 DB43     		mvns	r3, r3
 102 0068 BA69     		ldr	r2, [r7, #24]
 103 006a 1340     		ands	r3, r3, r2
 104 006c BB61     		str	r3, [r7, #24]
 219:Drivers/STM32F4xx_HAL_Driver/Src/stm32f4xx_hal_gpio.c ****         temp |= ((uint32_t)(GPIO_Init->Alternate) << (((uint32_t)position & 0x07U) * 4U));
 105              		.loc 1 219 0
 106 006e 3B68     		ldr	r3, [r7]
 107 0070 1B69     		ldr	r3, [r3, #16]
 108 0072 FA69     		ldr	r2, [r7, #28]
 109 0074 02F00702 		and	r2, r2, #7
 110 0078 9200     		lsls	r2, r2, #2
 111 007a 9340     		lsls	r3, r3, r2
 112 007c BA69     		ldr	r2, [r7, #24]
 113 007e 1343     		orrs	r3, r3, r2
 114 0080 BB61     		str	r3, [r7, #24]
 220:Drivers/STM32F4xx_HAL_Driver/Src/stm32f4xx_hal_gpio.c ****         GPIOx->AFR[position >> 3U] = temp;
 115              		.loc 1 220 0
 116 0082 FB69     		ldr	r3, [r7, #28]
 117 0084 DA08     		lsrs	r2, r3, #3
 118 0086 7B68     		ldr	r3, [r7, #4]
 119 0088 0832     		adds	r2, r2, #8
 120 008a B969     		ldr	r1, [r7, #24]
 121 008c 43F82210 		str	r1, [r3, r2, lsl #2]
 122              	.L5:
 221:Drivers/STM32F4xx_HAL_Driver/Src/stm32f4xx_hal_gpio.c ****       }
ARM GAS  /tmp/ccrdNsWh.s 			page 7


 222:Drivers/STM32F4xx_HAL_Driver/Src/stm32f4xx_hal_gpio.c **** 
 223:Drivers/STM32F4xx_HAL_Driver/Src/stm32f4xx_hal_gpio.c ****       /* Configure IO Direction mode (Input, Output, Alternate or Analog) */
 224:Drivers/STM32F4xx_HAL_Driver/Src/stm32f4xx_hal_gpio.c ****       temp = GPIOx->MODER;
 123              		.loc 1 224 0
 124 0090 7B68     		ldr	r3, [r7, #4]
 125 0092 1B68     		ldr	r3, [r3]
 126 0094 BB61     		str	r3, [r7, #24]
 225:Drivers/STM32F4xx_HAL_Driver/Src/stm32f4xx_hal_gpio.c ****       temp &= ~(GPIO_MODER_MODER0 << (position * 2U));
 127              		.loc 1 225 0
 128 0096 FB69     		ldr	r3, [r7, #28]
 129 0098 5B00     		lsls	r3, r3, #1
 130 009a 1A46     		mov	r2, r3
 131 009c 0323     		movs	r3, #3
 132 009e 9340     		lsls	r3, r3, r2
 133 00a0 DB43     		mvns	r3, r3
 134 00a2 BA69     		ldr	r2, [r7, #24]
 135 00a4 1340     		ands	r3, r3, r2
 136 00a6 BB61     		str	r3, [r7, #24]
 226:Drivers/STM32F4xx_HAL_Driver/Src/stm32f4xx_hal_gpio.c ****       temp |= ((GPIO_Init->Mode & GPIO_MODE) << (position * 2U));
 137              		.loc 1 226 0
 138 00a8 3B68     		ldr	r3, [r7]
 139 00aa 5B68     		ldr	r3, [r3, #4]
 140 00ac 03F00303 		and	r3, r3, #3
 141 00b0 FA69     		ldr	r2, [r7, #28]
 142 00b2 5200     		lsls	r2, r2, #1
 143 00b4 9340     		lsls	r3, r3, r2
 144 00b6 BA69     		ldr	r2, [r7, #24]
 145 00b8 1343     		orrs	r3, r3, r2
 146 00ba BB61     		str	r3, [r7, #24]
 227:Drivers/STM32F4xx_HAL_Driver/Src/stm32f4xx_hal_gpio.c ****       GPIOx->MODER = temp;
 147              		.loc 1 227 0
 148 00bc 7B68     		ldr	r3, [r7, #4]
 149 00be BA69     		ldr	r2, [r7, #24]
 150 00c0 1A60     		str	r2, [r3]
 228:Drivers/STM32F4xx_HAL_Driver/Src/stm32f4xx_hal_gpio.c **** 
 229:Drivers/STM32F4xx_HAL_Driver/Src/stm32f4xx_hal_gpio.c ****       /* In case of Output or Alternate function mode selection */
 230:Drivers/STM32F4xx_HAL_Driver/Src/stm32f4xx_hal_gpio.c ****       if((GPIO_Init->Mode == GPIO_MODE_OUTPUT_PP) || (GPIO_Init->Mode == GPIO_MODE_AF_PP) ||
 151              		.loc 1 230 0
 152 00c2 3B68     		ldr	r3, [r7]
 153 00c4 5B68     		ldr	r3, [r3, #4]
 154 00c6 012B     		cmp	r3, #1
 155 00c8 0BD0     		beq	.L6
 156              		.loc 1 230 0 is_stmt 0 discriminator 1
 157 00ca 3B68     		ldr	r3, [r7]
 158 00cc 5B68     		ldr	r3, [r3, #4]
 159 00ce 022B     		cmp	r3, #2
 160 00d0 07D0     		beq	.L6
 231:Drivers/STM32F4xx_HAL_Driver/Src/stm32f4xx_hal_gpio.c ****          (GPIO_Init->Mode == GPIO_MODE_OUTPUT_OD) || (GPIO_Init->Mode == GPIO_MODE_AF_OD))
 161              		.loc 1 231 0 is_stmt 1 discriminator 2
 162 00d2 3B68     		ldr	r3, [r7]
 163 00d4 5B68     		ldr	r3, [r3, #4]
 230:Drivers/STM32F4xx_HAL_Driver/Src/stm32f4xx_hal_gpio.c ****          (GPIO_Init->Mode == GPIO_MODE_OUTPUT_OD) || (GPIO_Init->Mode == GPIO_MODE_AF_OD))
 164              		.loc 1 230 0 discriminator 2
 165 00d6 112B     		cmp	r3, #17
 166 00d8 03D0     		beq	.L6
 167              		.loc 1 231 0
 168 00da 3B68     		ldr	r3, [r7]
ARM GAS  /tmp/ccrdNsWh.s 			page 8


 169 00dc 5B68     		ldr	r3, [r3, #4]
 170 00de 122B     		cmp	r3, #18
 171 00e0 2FD1     		bne	.L7
 172              	.L6:
 232:Drivers/STM32F4xx_HAL_Driver/Src/stm32f4xx_hal_gpio.c ****       {
 233:Drivers/STM32F4xx_HAL_Driver/Src/stm32f4xx_hal_gpio.c ****         /* Check the Speed parameter */
 234:Drivers/STM32F4xx_HAL_Driver/Src/stm32f4xx_hal_gpio.c ****         assert_param(IS_GPIO_SPEED(GPIO_Init->Speed));
 235:Drivers/STM32F4xx_HAL_Driver/Src/stm32f4xx_hal_gpio.c ****         /* Configure the IO Speed */
 236:Drivers/STM32F4xx_HAL_Driver/Src/stm32f4xx_hal_gpio.c ****         temp = GPIOx->OSPEEDR; 
 173              		.loc 1 236 0
 174 00e2 7B68     		ldr	r3, [r7, #4]
 175 00e4 9B68     		ldr	r3, [r3, #8]
 176 00e6 BB61     		str	r3, [r7, #24]
 237:Drivers/STM32F4xx_HAL_Driver/Src/stm32f4xx_hal_gpio.c ****         temp &= ~(GPIO_OSPEEDER_OSPEEDR0 << (position * 2U));
 177              		.loc 1 237 0
 178 00e8 FB69     		ldr	r3, [r7, #28]
 179 00ea 5B00     		lsls	r3, r3, #1
 180 00ec 1A46     		mov	r2, r3
 181 00ee 0323     		movs	r3, #3
 182 00f0 9340     		lsls	r3, r3, r2
 183 00f2 DB43     		mvns	r3, r3
 184 00f4 BA69     		ldr	r2, [r7, #24]
 185 00f6 1340     		ands	r3, r3, r2
 186 00f8 BB61     		str	r3, [r7, #24]
 238:Drivers/STM32F4xx_HAL_Driver/Src/stm32f4xx_hal_gpio.c ****         temp |= (GPIO_Init->Speed << (position * 2U));
 187              		.loc 1 238 0
 188 00fa 3B68     		ldr	r3, [r7]
 189 00fc DB68     		ldr	r3, [r3, #12]
 190 00fe FA69     		ldr	r2, [r7, #28]
 191 0100 5200     		lsls	r2, r2, #1
 192 0102 9340     		lsls	r3, r3, r2
 193 0104 BA69     		ldr	r2, [r7, #24]
 194 0106 1343     		orrs	r3, r3, r2
 195 0108 BB61     		str	r3, [r7, #24]
 239:Drivers/STM32F4xx_HAL_Driver/Src/stm32f4xx_hal_gpio.c ****         GPIOx->OSPEEDR = temp;
 196              		.loc 1 239 0
 197 010a 7B68     		ldr	r3, [r7, #4]
 198 010c BA69     		ldr	r2, [r7, #24]
 199 010e 9A60     		str	r2, [r3, #8]
 240:Drivers/STM32F4xx_HAL_Driver/Src/stm32f4xx_hal_gpio.c **** 
 241:Drivers/STM32F4xx_HAL_Driver/Src/stm32f4xx_hal_gpio.c ****         /* Configure the IO Output Type */
 242:Drivers/STM32F4xx_HAL_Driver/Src/stm32f4xx_hal_gpio.c ****         temp = GPIOx->OTYPER;
 200              		.loc 1 242 0
 201 0110 7B68     		ldr	r3, [r7, #4]
 202 0112 5B68     		ldr	r3, [r3, #4]
 203 0114 BB61     		str	r3, [r7, #24]
 243:Drivers/STM32F4xx_HAL_Driver/Src/stm32f4xx_hal_gpio.c ****         temp &= ~(GPIO_OTYPER_OT_0 << position) ;
 204              		.loc 1 243 0
 205 0116 FB69     		ldr	r3, [r7, #28]
 206 0118 0122     		movs	r2, #1
 207 011a 02FA03F3 		lsl	r3, r2, r3
 208 011e DB43     		mvns	r3, r3
 209 0120 BA69     		ldr	r2, [r7, #24]
 210 0122 1340     		ands	r3, r3, r2
 211 0124 BB61     		str	r3, [r7, #24]
 244:Drivers/STM32F4xx_HAL_Driver/Src/stm32f4xx_hal_gpio.c ****         temp |= (((GPIO_Init->Mode & GPIO_OUTPUT_TYPE) >> 4U) << position);
 212              		.loc 1 244 0
ARM GAS  /tmp/ccrdNsWh.s 			page 9


 213 0126 3B68     		ldr	r3, [r7]
 214 0128 5B68     		ldr	r3, [r3, #4]
 215 012a 03F01003 		and	r3, r3, #16
 216 012e 1A09     		lsrs	r2, r3, #4
 217 0130 FB69     		ldr	r3, [r7, #28]
 218 0132 02FA03F3 		lsl	r3, r2, r3
 219 0136 BA69     		ldr	r2, [r7, #24]
 220 0138 1343     		orrs	r3, r3, r2
 221 013a BB61     		str	r3, [r7, #24]
 245:Drivers/STM32F4xx_HAL_Driver/Src/stm32f4xx_hal_gpio.c ****         GPIOx->OTYPER = temp;
 222              		.loc 1 245 0
 223 013c 7B68     		ldr	r3, [r7, #4]
 224 013e BA69     		ldr	r2, [r7, #24]
 225 0140 5A60     		str	r2, [r3, #4]
 226              	.L7:
 246:Drivers/STM32F4xx_HAL_Driver/Src/stm32f4xx_hal_gpio.c ****       }
 247:Drivers/STM32F4xx_HAL_Driver/Src/stm32f4xx_hal_gpio.c **** 
 248:Drivers/STM32F4xx_HAL_Driver/Src/stm32f4xx_hal_gpio.c ****       /* Activate the Pull-up or Pull down resistor for the current IO */
 249:Drivers/STM32F4xx_HAL_Driver/Src/stm32f4xx_hal_gpio.c ****       temp = GPIOx->PUPDR;
 227              		.loc 1 249 0
 228 0142 7B68     		ldr	r3, [r7, #4]
 229 0144 DB68     		ldr	r3, [r3, #12]
 230 0146 BB61     		str	r3, [r7, #24]
 250:Drivers/STM32F4xx_HAL_Driver/Src/stm32f4xx_hal_gpio.c ****       temp &= ~(GPIO_PUPDR_PUPDR0 << (position * 2U));
 231              		.loc 1 250 0
 232 0148 FB69     		ldr	r3, [r7, #28]
 233 014a 5B00     		lsls	r3, r3, #1
 234 014c 1A46     		mov	r2, r3
 235 014e 0323     		movs	r3, #3
 236 0150 9340     		lsls	r3, r3, r2
 237 0152 DB43     		mvns	r3, r3
 238 0154 BA69     		ldr	r2, [r7, #24]
 239 0156 1340     		ands	r3, r3, r2
 240 0158 BB61     		str	r3, [r7, #24]
 251:Drivers/STM32F4xx_HAL_Driver/Src/stm32f4xx_hal_gpio.c ****       temp |= ((GPIO_Init->Pull) << (position * 2U));
 241              		.loc 1 251 0
 242 015a 3B68     		ldr	r3, [r7]
 243 015c 9B68     		ldr	r3, [r3, #8]
 244 015e FA69     		ldr	r2, [r7, #28]
 245 0160 5200     		lsls	r2, r2, #1
 246 0162 9340     		lsls	r3, r3, r2
 247 0164 BA69     		ldr	r2, [r7, #24]
 248 0166 1343     		orrs	r3, r3, r2
 249 0168 BB61     		str	r3, [r7, #24]
 252:Drivers/STM32F4xx_HAL_Driver/Src/stm32f4xx_hal_gpio.c ****       GPIOx->PUPDR = temp;
 250              		.loc 1 252 0
 251 016a 7B68     		ldr	r3, [r7, #4]
 252 016c BA69     		ldr	r2, [r7, #24]
 253 016e DA60     		str	r2, [r3, #12]
 253:Drivers/STM32F4xx_HAL_Driver/Src/stm32f4xx_hal_gpio.c **** 
 254:Drivers/STM32F4xx_HAL_Driver/Src/stm32f4xx_hal_gpio.c ****       /*--------------------- EXTI Mode Configuration ------------------------*/
 255:Drivers/STM32F4xx_HAL_Driver/Src/stm32f4xx_hal_gpio.c ****       /* Configure the External Interrupt or event for the current IO */
 256:Drivers/STM32F4xx_HAL_Driver/Src/stm32f4xx_hal_gpio.c ****       if((GPIO_Init->Mode & EXTI_MODE) == EXTI_MODE)
 254              		.loc 1 256 0
 255 0170 3B68     		ldr	r3, [r7]
 256 0172 5B68     		ldr	r3, [r3, #4]
 257 0174 03F08053 		and	r3, r3, #268435456
ARM GAS  /tmp/ccrdNsWh.s 			page 10


 258 0178 002B     		cmp	r3, #0
 259 017a 00F0B480 		beq	.L3
 260              	.LBB2:
 257:Drivers/STM32F4xx_HAL_Driver/Src/stm32f4xx_hal_gpio.c ****       {
 258:Drivers/STM32F4xx_HAL_Driver/Src/stm32f4xx_hal_gpio.c ****         /* Enable SYSCFG Clock */
 259:Drivers/STM32F4xx_HAL_Driver/Src/stm32f4xx_hal_gpio.c ****         __HAL_RCC_SYSCFG_CLK_ENABLE();
 261              		.loc 1 259 0
 262 017e 0023     		movs	r3, #0
 263 0180 FB60     		str	r3, [r7, #12]
 264 0182 5F4A     		ldr	r2, .L29
 265 0184 5E4B     		ldr	r3, .L29
 266 0186 5B6C     		ldr	r3, [r3, #68]
 267 0188 43F48043 		orr	r3, r3, #16384
 268 018c 5364     		str	r3, [r2, #68]
 269 018e 5C4B     		ldr	r3, .L29
 270 0190 5B6C     		ldr	r3, [r3, #68]
 271 0192 03F48043 		and	r3, r3, #16384
 272 0196 FB60     		str	r3, [r7, #12]
 273 0198 FB68     		ldr	r3, [r7, #12]
 274              	.LBE2:
 260:Drivers/STM32F4xx_HAL_Driver/Src/stm32f4xx_hal_gpio.c **** 
 261:Drivers/STM32F4xx_HAL_Driver/Src/stm32f4xx_hal_gpio.c ****         temp = SYSCFG->EXTICR[position >> 2U];
 275              		.loc 1 261 0
 276 019a 5A4A     		ldr	r2, .L29+4
 277 019c FB69     		ldr	r3, [r7, #28]
 278 019e 9B08     		lsrs	r3, r3, #2
 279 01a0 0233     		adds	r3, r3, #2
 280 01a2 52F82330 		ldr	r3, [r2, r3, lsl #2]
 281 01a6 BB61     		str	r3, [r7, #24]
 262:Drivers/STM32F4xx_HAL_Driver/Src/stm32f4xx_hal_gpio.c ****         temp &= ~(0x0FU << (4U * (position & 0x03U)));
 282              		.loc 1 262 0
 283 01a8 FB69     		ldr	r3, [r7, #28]
 284 01aa 03F00303 		and	r3, r3, #3
 285 01ae 9B00     		lsls	r3, r3, #2
 286 01b0 1A46     		mov	r2, r3
 287 01b2 0F23     		movs	r3, #15
 288 01b4 9340     		lsls	r3, r3, r2
 289 01b6 DB43     		mvns	r3, r3
 290 01b8 BA69     		ldr	r2, [r7, #24]
 291 01ba 1340     		ands	r3, r3, r2
 292 01bc BB61     		str	r3, [r7, #24]
 263:Drivers/STM32F4xx_HAL_Driver/Src/stm32f4xx_hal_gpio.c ****         temp |= ((uint32_t)(GPIO_GET_INDEX(GPIOx)) << (4U * (position & 0x03U)));
 293              		.loc 1 263 0
 294 01be 7B68     		ldr	r3, [r7, #4]
 295 01c0 514A     		ldr	r2, .L29+8
 296 01c2 9342     		cmp	r3, r2
 297 01c4 2BD0     		beq	.L8
 298              		.loc 1 263 0 is_stmt 0 discriminator 1
 299 01c6 7B68     		ldr	r3, [r7, #4]
 300 01c8 504A     		ldr	r2, .L29+12
 301 01ca 9342     		cmp	r3, r2
 302 01cc 25D0     		beq	.L9
 303              		.loc 1 263 0 discriminator 3
 304 01ce 7B68     		ldr	r3, [r7, #4]
 305 01d0 4F4A     		ldr	r2, .L29+16
 306 01d2 9342     		cmp	r3, r2
 307 01d4 1FD0     		beq	.L10
ARM GAS  /tmp/ccrdNsWh.s 			page 11


 308              		.loc 1 263 0 discriminator 5
 309 01d6 7B68     		ldr	r3, [r7, #4]
 310 01d8 4E4A     		ldr	r2, .L29+20
 311 01da 9342     		cmp	r3, r2
 312 01dc 19D0     		beq	.L11
 313              		.loc 1 263 0 discriminator 7
 314 01de 7B68     		ldr	r3, [r7, #4]
 315 01e0 4D4A     		ldr	r2, .L29+24
 316 01e2 9342     		cmp	r3, r2
 317 01e4 13D0     		beq	.L12
 318              		.loc 1 263 0 discriminator 9
 319 01e6 7B68     		ldr	r3, [r7, #4]
 320 01e8 4C4A     		ldr	r2, .L29+28
 321 01ea 9342     		cmp	r3, r2
 322 01ec 0DD0     		beq	.L13
 323              		.loc 1 263 0 discriminator 11
 324 01ee 7B68     		ldr	r3, [r7, #4]
 325 01f0 4B4A     		ldr	r2, .L29+32
 326 01f2 9342     		cmp	r3, r2
 327 01f4 07D0     		beq	.L14
 328              		.loc 1 263 0 discriminator 13
 329 01f6 7B68     		ldr	r3, [r7, #4]
 330 01f8 4A4A     		ldr	r2, .L29+36
 331 01fa 9342     		cmp	r3, r2
 332 01fc 01D1     		bne	.L15
 333              		.loc 1 263 0 discriminator 15
 334 01fe 0723     		movs	r3, #7
 335 0200 0EE0     		b	.L23
 336              	.L15:
 337              		.loc 1 263 0 discriminator 16
 338 0202 0823     		movs	r3, #8
 339 0204 0CE0     		b	.L23
 340              	.L14:
 341              		.loc 1 263 0 discriminator 14
 342 0206 0623     		movs	r3, #6
 343 0208 0AE0     		b	.L23
 344              	.L13:
 345              		.loc 1 263 0 discriminator 12
 346 020a 0523     		movs	r3, #5
 347 020c 08E0     		b	.L23
 348              	.L12:
 349              		.loc 1 263 0 discriminator 10
 350 020e 0423     		movs	r3, #4
 351 0210 06E0     		b	.L23
 352              	.L11:
 353              		.loc 1 263 0 discriminator 8
 354 0212 0323     		movs	r3, #3
 355 0214 04E0     		b	.L23
 356              	.L10:
 357              		.loc 1 263 0 discriminator 6
 358 0216 0223     		movs	r3, #2
 359 0218 02E0     		b	.L23
 360              	.L9:
 361              		.loc 1 263 0 discriminator 4
 362 021a 0123     		movs	r3, #1
 363 021c 00E0     		b	.L23
 364              	.L8:
ARM GAS  /tmp/ccrdNsWh.s 			page 12


 365              		.loc 1 263 0 discriminator 2
 366 021e 0023     		movs	r3, #0
 367              	.L23:
 368              		.loc 1 263 0 discriminator 32
 369 0220 FA69     		ldr	r2, [r7, #28]
 370 0222 02F00302 		and	r2, r2, #3
 371 0226 9200     		lsls	r2, r2, #2
 372 0228 9340     		lsls	r3, r3, r2
 373 022a BA69     		ldr	r2, [r7, #24]
 374 022c 1343     		orrs	r3, r3, r2
 375 022e BB61     		str	r3, [r7, #24]
 264:Drivers/STM32F4xx_HAL_Driver/Src/stm32f4xx_hal_gpio.c ****         SYSCFG->EXTICR[position >> 2U] = temp;
 376              		.loc 1 264 0 is_stmt 1 discriminator 32
 377 0230 3449     		ldr	r1, .L29+4
 378 0232 FB69     		ldr	r3, [r7, #28]
 379 0234 9B08     		lsrs	r3, r3, #2
 380 0236 0233     		adds	r3, r3, #2
 381 0238 BA69     		ldr	r2, [r7, #24]
 382 023a 41F82320 		str	r2, [r1, r3, lsl #2]
 265:Drivers/STM32F4xx_HAL_Driver/Src/stm32f4xx_hal_gpio.c **** 
 266:Drivers/STM32F4xx_HAL_Driver/Src/stm32f4xx_hal_gpio.c ****         /* Clear EXTI line configuration */
 267:Drivers/STM32F4xx_HAL_Driver/Src/stm32f4xx_hal_gpio.c ****         temp = EXTI->IMR;
 383              		.loc 1 267 0 discriminator 32
 384 023e 3A4B     		ldr	r3, .L29+40
 385 0240 1B68     		ldr	r3, [r3]
 386 0242 BB61     		str	r3, [r7, #24]
 268:Drivers/STM32F4xx_HAL_Driver/Src/stm32f4xx_hal_gpio.c ****         temp &= ~((uint32_t)iocurrent);
 387              		.loc 1 268 0 discriminator 32
 388 0244 3B69     		ldr	r3, [r7, #16]
 389 0246 DB43     		mvns	r3, r3
 390 0248 BA69     		ldr	r2, [r7, #24]
 391 024a 1340     		ands	r3, r3, r2
 392 024c BB61     		str	r3, [r7, #24]
 269:Drivers/STM32F4xx_HAL_Driver/Src/stm32f4xx_hal_gpio.c ****         if((GPIO_Init->Mode & GPIO_MODE_IT) == GPIO_MODE_IT)
 393              		.loc 1 269 0 discriminator 32
 394 024e 3B68     		ldr	r3, [r7]
 395 0250 5B68     		ldr	r3, [r3, #4]
 396 0252 03F48033 		and	r3, r3, #65536
 397 0256 002B     		cmp	r3, #0
 398 0258 03D0     		beq	.L24
 270:Drivers/STM32F4xx_HAL_Driver/Src/stm32f4xx_hal_gpio.c ****         {
 271:Drivers/STM32F4xx_HAL_Driver/Src/stm32f4xx_hal_gpio.c ****           temp |= iocurrent;
 399              		.loc 1 271 0
 400 025a BA69     		ldr	r2, [r7, #24]
 401 025c 3B69     		ldr	r3, [r7, #16]
 402 025e 1343     		orrs	r3, r3, r2
 403 0260 BB61     		str	r3, [r7, #24]
 404              	.L24:
 272:Drivers/STM32F4xx_HAL_Driver/Src/stm32f4xx_hal_gpio.c ****         }
 273:Drivers/STM32F4xx_HAL_Driver/Src/stm32f4xx_hal_gpio.c ****         EXTI->IMR = temp;
 405              		.loc 1 273 0
 406 0262 314A     		ldr	r2, .L29+40
 407 0264 BB69     		ldr	r3, [r7, #24]
 408 0266 1360     		str	r3, [r2]
 274:Drivers/STM32F4xx_HAL_Driver/Src/stm32f4xx_hal_gpio.c **** 
 275:Drivers/STM32F4xx_HAL_Driver/Src/stm32f4xx_hal_gpio.c ****         temp = EXTI->EMR;
 409              		.loc 1 275 0
ARM GAS  /tmp/ccrdNsWh.s 			page 13


 410 0268 2F4B     		ldr	r3, .L29+40
 411 026a 5B68     		ldr	r3, [r3, #4]
 412 026c BB61     		str	r3, [r7, #24]
 276:Drivers/STM32F4xx_HAL_Driver/Src/stm32f4xx_hal_gpio.c ****         temp &= ~((uint32_t)iocurrent);
 413              		.loc 1 276 0
 414 026e 3B69     		ldr	r3, [r7, #16]
 415 0270 DB43     		mvns	r3, r3
 416 0272 BA69     		ldr	r2, [r7, #24]
 417 0274 1340     		ands	r3, r3, r2
 418 0276 BB61     		str	r3, [r7, #24]
 277:Drivers/STM32F4xx_HAL_Driver/Src/stm32f4xx_hal_gpio.c ****         if((GPIO_Init->Mode & GPIO_MODE_EVT) == GPIO_MODE_EVT)
 419              		.loc 1 277 0
 420 0278 3B68     		ldr	r3, [r7]
 421 027a 5B68     		ldr	r3, [r3, #4]
 422 027c 03F40033 		and	r3, r3, #131072
 423 0280 002B     		cmp	r3, #0
 424 0282 03D0     		beq	.L25
 278:Drivers/STM32F4xx_HAL_Driver/Src/stm32f4xx_hal_gpio.c ****         {
 279:Drivers/STM32F4xx_HAL_Driver/Src/stm32f4xx_hal_gpio.c ****           temp |= iocurrent;
 425              		.loc 1 279 0
 426 0284 BA69     		ldr	r2, [r7, #24]
 427 0286 3B69     		ldr	r3, [r7, #16]
 428 0288 1343     		orrs	r3, r3, r2
 429 028a BB61     		str	r3, [r7, #24]
 430              	.L25:
 280:Drivers/STM32F4xx_HAL_Driver/Src/stm32f4xx_hal_gpio.c ****         }
 281:Drivers/STM32F4xx_HAL_Driver/Src/stm32f4xx_hal_gpio.c ****         EXTI->EMR = temp;
 431              		.loc 1 281 0
 432 028c 264A     		ldr	r2, .L29+40
 433 028e BB69     		ldr	r3, [r7, #24]
 434 0290 5360     		str	r3, [r2, #4]
 282:Drivers/STM32F4xx_HAL_Driver/Src/stm32f4xx_hal_gpio.c **** 
 283:Drivers/STM32F4xx_HAL_Driver/Src/stm32f4xx_hal_gpio.c ****         /* Clear Rising Falling edge configuration */
 284:Drivers/STM32F4xx_HAL_Driver/Src/stm32f4xx_hal_gpio.c ****         temp = EXTI->RTSR;
 435              		.loc 1 284 0
 436 0292 254B     		ldr	r3, .L29+40
 437 0294 9B68     		ldr	r3, [r3, #8]
 438 0296 BB61     		str	r3, [r7, #24]
 285:Drivers/STM32F4xx_HAL_Driver/Src/stm32f4xx_hal_gpio.c ****         temp &= ~((uint32_t)iocurrent);
 439              		.loc 1 285 0
 440 0298 3B69     		ldr	r3, [r7, #16]
 441 029a DB43     		mvns	r3, r3
 442 029c BA69     		ldr	r2, [r7, #24]
 443 029e 1340     		ands	r3, r3, r2
 444 02a0 BB61     		str	r3, [r7, #24]
 286:Drivers/STM32F4xx_HAL_Driver/Src/stm32f4xx_hal_gpio.c ****         if((GPIO_Init->Mode & RISING_EDGE) == RISING_EDGE)
 445              		.loc 1 286 0
 446 02a2 3B68     		ldr	r3, [r7]
 447 02a4 5B68     		ldr	r3, [r3, #4]
 448 02a6 03F48013 		and	r3, r3, #1048576
 449 02aa 002B     		cmp	r3, #0
 450 02ac 03D0     		beq	.L26
 287:Drivers/STM32F4xx_HAL_Driver/Src/stm32f4xx_hal_gpio.c ****         {
 288:Drivers/STM32F4xx_HAL_Driver/Src/stm32f4xx_hal_gpio.c ****           temp |= iocurrent;
 451              		.loc 1 288 0
 452 02ae BA69     		ldr	r2, [r7, #24]
 453 02b0 3B69     		ldr	r3, [r7, #16]
ARM GAS  /tmp/ccrdNsWh.s 			page 14


 454 02b2 1343     		orrs	r3, r3, r2
 455 02b4 BB61     		str	r3, [r7, #24]
 456              	.L26:
 289:Drivers/STM32F4xx_HAL_Driver/Src/stm32f4xx_hal_gpio.c ****         }
 290:Drivers/STM32F4xx_HAL_Driver/Src/stm32f4xx_hal_gpio.c ****         EXTI->RTSR = temp;
 457              		.loc 1 290 0
 458 02b6 1C4A     		ldr	r2, .L29+40
 459 02b8 BB69     		ldr	r3, [r7, #24]
 460 02ba 9360     		str	r3, [r2, #8]
 291:Drivers/STM32F4xx_HAL_Driver/Src/stm32f4xx_hal_gpio.c **** 
 292:Drivers/STM32F4xx_HAL_Driver/Src/stm32f4xx_hal_gpio.c ****         temp = EXTI->FTSR;
 461              		.loc 1 292 0
 462 02bc 1A4B     		ldr	r3, .L29+40
 463 02be DB68     		ldr	r3, [r3, #12]
 464 02c0 BB61     		str	r3, [r7, #24]
 293:Drivers/STM32F4xx_HAL_Driver/Src/stm32f4xx_hal_gpio.c ****         temp &= ~((uint32_t)iocurrent);
 465              		.loc 1 293 0
 466 02c2 3B69     		ldr	r3, [r7, #16]
 467 02c4 DB43     		mvns	r3, r3
 468 02c6 BA69     		ldr	r2, [r7, #24]
 469 02c8 1340     		ands	r3, r3, r2
 470 02ca BB61     		str	r3, [r7, #24]
 294:Drivers/STM32F4xx_HAL_Driver/Src/stm32f4xx_hal_gpio.c ****         if((GPIO_Init->Mode & FALLING_EDGE) == FALLING_EDGE)
 471              		.loc 1 294 0
 472 02cc 3B68     		ldr	r3, [r7]
 473 02ce 5B68     		ldr	r3, [r3, #4]
 474 02d0 03F40013 		and	r3, r3, #2097152
 475 02d4 002B     		cmp	r3, #0
 476 02d6 03D0     		beq	.L27
 295:Drivers/STM32F4xx_HAL_Driver/Src/stm32f4xx_hal_gpio.c ****         {
 296:Drivers/STM32F4xx_HAL_Driver/Src/stm32f4xx_hal_gpio.c ****           temp |= iocurrent;
 477              		.loc 1 296 0
 478 02d8 BA69     		ldr	r2, [r7, #24]
 479 02da 3B69     		ldr	r3, [r7, #16]
 480 02dc 1343     		orrs	r3, r3, r2
 481 02de BB61     		str	r3, [r7, #24]
 482              	.L27:
 297:Drivers/STM32F4xx_HAL_Driver/Src/stm32f4xx_hal_gpio.c ****         }
 298:Drivers/STM32F4xx_HAL_Driver/Src/stm32f4xx_hal_gpio.c ****         EXTI->FTSR = temp;
 483              		.loc 1 298 0
 484 02e0 114A     		ldr	r2, .L29+40
 485 02e2 BB69     		ldr	r3, [r7, #24]
 486 02e4 D360     		str	r3, [r2, #12]
 487              	.L3:
 201:Drivers/STM32F4xx_HAL_Driver/Src/stm32f4xx_hal_gpio.c ****   {
 488              		.loc 1 201 0 discriminator 2
 489 02e6 FB69     		ldr	r3, [r7, #28]
 490 02e8 0133     		adds	r3, r3, #1
 491 02ea FB61     		str	r3, [r7, #28]
 492              	.L2:
 201:Drivers/STM32F4xx_HAL_Driver/Src/stm32f4xx_hal_gpio.c ****   {
 493              		.loc 1 201 0 is_stmt 0 discriminator 1
 494 02ec FB69     		ldr	r3, [r7, #28]
 495 02ee 0F2B     		cmp	r3, #15
 496 02f0 7FF694AE 		bls	.L28
 299:Drivers/STM32F4xx_HAL_Driver/Src/stm32f4xx_hal_gpio.c ****       }
 300:Drivers/STM32F4xx_HAL_Driver/Src/stm32f4xx_hal_gpio.c ****     }
ARM GAS  /tmp/ccrdNsWh.s 			page 15


 301:Drivers/STM32F4xx_HAL_Driver/Src/stm32f4xx_hal_gpio.c ****   }
 302:Drivers/STM32F4xx_HAL_Driver/Src/stm32f4xx_hal_gpio.c **** }
 497              		.loc 1 302 0 is_stmt 1
 498 02f4 2437     		adds	r7, r7, #36
 499              	.LCFI3:
 500              		.cfi_def_cfa_offset 4
 501 02f6 BD46     		mov	sp, r7
 502              	.LCFI4:
 503              		.cfi_def_cfa_register 13
 504              		@ sp needed
 505 02f8 5DF8047B 		ldr	r7, [sp], #4
 506              	.LCFI5:
 507              		.cfi_restore 7
 508              		.cfi_def_cfa_offset 0
 509 02fc 7047     		bx	lr
 510              	.L30:
 511 02fe 00BF     		.align	2
 512              	.L29:
 513 0300 00380240 		.word	1073887232
 514 0304 00380140 		.word	1073821696
 515 0308 00000240 		.word	1073872896
 516 030c 00040240 		.word	1073873920
 517 0310 00080240 		.word	1073874944
 518 0314 000C0240 		.word	1073875968
 519 0318 00100240 		.word	1073876992
 520 031c 00140240 		.word	1073878016
 521 0320 00180240 		.word	1073879040
 522 0324 001C0240 		.word	1073880064
 523 0328 003C0140 		.word	1073822720
 524              		.cfi_endproc
 525              	.LFE123:
 527              		.section	.text.HAL_GPIO_DeInit,"ax",%progbits
 528              		.align	2
 529              		.global	HAL_GPIO_DeInit
 530              		.thumb
 531              		.thumb_func
 533              	HAL_GPIO_DeInit:
 534              	.LFB124:
 303:Drivers/STM32F4xx_HAL_Driver/Src/stm32f4xx_hal_gpio.c **** 
 304:Drivers/STM32F4xx_HAL_Driver/Src/stm32f4xx_hal_gpio.c **** /**
 305:Drivers/STM32F4xx_HAL_Driver/Src/stm32f4xx_hal_gpio.c ****   * @brief  De-initializes the GPIOx peripheral registers to their default reset values.
 306:Drivers/STM32F4xx_HAL_Driver/Src/stm32f4xx_hal_gpio.c ****   * @param  GPIOx where x can be (A..K) to select the GPIO peripheral for STM32F429X device or
 307:Drivers/STM32F4xx_HAL_Driver/Src/stm32f4xx_hal_gpio.c ****   *                      x can be (A..I) to select the GPIO peripheral for STM32F40XX and STM32F427
 308:Drivers/STM32F4xx_HAL_Driver/Src/stm32f4xx_hal_gpio.c ****   * @param  GPIO_Pin specifies the port bit to be written.
 309:Drivers/STM32F4xx_HAL_Driver/Src/stm32f4xx_hal_gpio.c ****   *          This parameter can be one of GPIO_PIN_x where x can be (0..15).
 310:Drivers/STM32F4xx_HAL_Driver/Src/stm32f4xx_hal_gpio.c ****   * @retval None
 311:Drivers/STM32F4xx_HAL_Driver/Src/stm32f4xx_hal_gpio.c ****   */
 312:Drivers/STM32F4xx_HAL_Driver/Src/stm32f4xx_hal_gpio.c **** void HAL_GPIO_DeInit(GPIO_TypeDef  *GPIOx, uint32_t GPIO_Pin)
 313:Drivers/STM32F4xx_HAL_Driver/Src/stm32f4xx_hal_gpio.c **** {
 535              		.loc 1 313 0
 536              		.cfi_startproc
 537              		@ args = 0, pretend = 0, frame = 24
 538              		@ frame_needed = 1, uses_anonymous_args = 0
 539              		@ link register save eliminated.
 540 0000 80B4     		push	{r7}
 541              	.LCFI6:
 542              		.cfi_def_cfa_offset 4
ARM GAS  /tmp/ccrdNsWh.s 			page 16


 543              		.cfi_offset 7, -4
 544 0002 87B0     		sub	sp, sp, #28
 545              	.LCFI7:
 546              		.cfi_def_cfa_offset 32
 547 0004 00AF     		add	r7, sp, #0
 548              	.LCFI8:
 549              		.cfi_def_cfa_register 7
 550 0006 7860     		str	r0, [r7, #4]
 551 0008 3960     		str	r1, [r7]
 314:Drivers/STM32F4xx_HAL_Driver/Src/stm32f4xx_hal_gpio.c ****   uint32_t position;
 315:Drivers/STM32F4xx_HAL_Driver/Src/stm32f4xx_hal_gpio.c ****   uint32_t ioposition = 0x00U;
 552              		.loc 1 315 0
 553 000a 0023     		movs	r3, #0
 554 000c 3B61     		str	r3, [r7, #16]
 316:Drivers/STM32F4xx_HAL_Driver/Src/stm32f4xx_hal_gpio.c ****   uint32_t iocurrent = 0x00U;
 555              		.loc 1 316 0
 556 000e 0023     		movs	r3, #0
 557 0010 FB60     		str	r3, [r7, #12]
 317:Drivers/STM32F4xx_HAL_Driver/Src/stm32f4xx_hal_gpio.c ****   uint32_t tmp = 0x00U;
 558              		.loc 1 317 0
 559 0012 0023     		movs	r3, #0
 560 0014 BB60     		str	r3, [r7, #8]
 318:Drivers/STM32F4xx_HAL_Driver/Src/stm32f4xx_hal_gpio.c **** 
 319:Drivers/STM32F4xx_HAL_Driver/Src/stm32f4xx_hal_gpio.c ****   /* Check the parameters */
 320:Drivers/STM32F4xx_HAL_Driver/Src/stm32f4xx_hal_gpio.c ****   assert_param(IS_GPIO_ALL_INSTANCE(GPIOx));
 321:Drivers/STM32F4xx_HAL_Driver/Src/stm32f4xx_hal_gpio.c ****   
 322:Drivers/STM32F4xx_HAL_Driver/Src/stm32f4xx_hal_gpio.c ****   /* Configure the port pins */
 323:Drivers/STM32F4xx_HAL_Driver/Src/stm32f4xx_hal_gpio.c ****   for(position = 0U; position < GPIO_NUMBER; position++)
 561              		.loc 1 323 0
 562 0016 0023     		movs	r3, #0
 563 0018 7B61     		str	r3, [r7, #20]
 564 001a CEE0     		b	.L32
 565              	.L50:
 324:Drivers/STM32F4xx_HAL_Driver/Src/stm32f4xx_hal_gpio.c ****   {
 325:Drivers/STM32F4xx_HAL_Driver/Src/stm32f4xx_hal_gpio.c ****     /* Get the IO position */
 326:Drivers/STM32F4xx_HAL_Driver/Src/stm32f4xx_hal_gpio.c ****     ioposition = 0x01U << position;
 566              		.loc 1 326 0
 567 001c 7B69     		ldr	r3, [r7, #20]
 568 001e 0122     		movs	r2, #1
 569 0020 02FA03F3 		lsl	r3, r2, r3
 570 0024 3B61     		str	r3, [r7, #16]
 327:Drivers/STM32F4xx_HAL_Driver/Src/stm32f4xx_hal_gpio.c ****     /* Get the current IO position */
 328:Drivers/STM32F4xx_HAL_Driver/Src/stm32f4xx_hal_gpio.c ****     iocurrent = (GPIO_Pin) & ioposition;
 571              		.loc 1 328 0
 572 0026 3A68     		ldr	r2, [r7]
 573 0028 3B69     		ldr	r3, [r7, #16]
 574 002a 1340     		ands	r3, r3, r2
 575 002c FB60     		str	r3, [r7, #12]
 329:Drivers/STM32F4xx_HAL_Driver/Src/stm32f4xx_hal_gpio.c **** 
 330:Drivers/STM32F4xx_HAL_Driver/Src/stm32f4xx_hal_gpio.c ****     if(iocurrent == ioposition)
 576              		.loc 1 330 0
 577 002e FA68     		ldr	r2, [r7, #12]
 578 0030 3B69     		ldr	r3, [r7, #16]
 579 0032 9A42     		cmp	r2, r3
 580 0034 40F0BE80 		bne	.L33
 331:Drivers/STM32F4xx_HAL_Driver/Src/stm32f4xx_hal_gpio.c ****     {
 332:Drivers/STM32F4xx_HAL_Driver/Src/stm32f4xx_hal_gpio.c ****       /*------------------------- GPIO Mode Configuration --------------------*/
ARM GAS  /tmp/ccrdNsWh.s 			page 17


 333:Drivers/STM32F4xx_HAL_Driver/Src/stm32f4xx_hal_gpio.c ****       /* Configure IO Direction in Input Floating Mode */
 334:Drivers/STM32F4xx_HAL_Driver/Src/stm32f4xx_hal_gpio.c ****       GPIOx->MODER &= ~(GPIO_MODER_MODER0 << (position * 2U));
 581              		.loc 1 334 0
 582 0038 7B68     		ldr	r3, [r7, #4]
 583 003a 1A68     		ldr	r2, [r3]
 584 003c 7B69     		ldr	r3, [r7, #20]
 585 003e 5B00     		lsls	r3, r3, #1
 586 0040 1946     		mov	r1, r3
 587 0042 0323     		movs	r3, #3
 588 0044 8B40     		lsls	r3, r3, r1
 589 0046 DB43     		mvns	r3, r3
 590 0048 1A40     		ands	r2, r2, r3
 591 004a 7B68     		ldr	r3, [r7, #4]
 592 004c 1A60     		str	r2, [r3]
 335:Drivers/STM32F4xx_HAL_Driver/Src/stm32f4xx_hal_gpio.c **** 
 336:Drivers/STM32F4xx_HAL_Driver/Src/stm32f4xx_hal_gpio.c ****       /* Configure the default Alternate Function in current IO */
 337:Drivers/STM32F4xx_HAL_Driver/Src/stm32f4xx_hal_gpio.c ****       GPIOx->AFR[position >> 3U] &= ~(0xFU << ((uint32_t)(position & 0x07U) * 4U)) ;
 593              		.loc 1 337 0
 594 004e 7B69     		ldr	r3, [r7, #20]
 595 0050 DA08     		lsrs	r2, r3, #3
 596 0052 7B69     		ldr	r3, [r7, #20]
 597 0054 D908     		lsrs	r1, r3, #3
 598 0056 7B68     		ldr	r3, [r7, #4]
 599 0058 0831     		adds	r1, r1, #8
 600 005a 53F82110 		ldr	r1, [r3, r1, lsl #2]
 601 005e 7B69     		ldr	r3, [r7, #20]
 602 0060 03F00703 		and	r3, r3, #7
 603 0064 9B00     		lsls	r3, r3, #2
 604 0066 1846     		mov	r0, r3
 605 0068 0F23     		movs	r3, #15
 606 006a 8340     		lsls	r3, r3, r0
 607 006c DB43     		mvns	r3, r3
 608 006e 1940     		ands	r1, r1, r3
 609 0070 7B68     		ldr	r3, [r7, #4]
 610 0072 0832     		adds	r2, r2, #8
 611 0074 43F82210 		str	r1, [r3, r2, lsl #2]
 338:Drivers/STM32F4xx_HAL_Driver/Src/stm32f4xx_hal_gpio.c **** 
 339:Drivers/STM32F4xx_HAL_Driver/Src/stm32f4xx_hal_gpio.c ****       /* Configure the default value for IO Speed */
 340:Drivers/STM32F4xx_HAL_Driver/Src/stm32f4xx_hal_gpio.c ****       GPIOx->OSPEEDR &= ~(GPIO_OSPEEDER_OSPEEDR0 << (position * 2U));
 612              		.loc 1 340 0
 613 0078 7B68     		ldr	r3, [r7, #4]
 614 007a 9A68     		ldr	r2, [r3, #8]
 615 007c 7B69     		ldr	r3, [r7, #20]
 616 007e 5B00     		lsls	r3, r3, #1
 617 0080 1946     		mov	r1, r3
 618 0082 0323     		movs	r3, #3
 619 0084 8B40     		lsls	r3, r3, r1
 620 0086 DB43     		mvns	r3, r3
 621 0088 1A40     		ands	r2, r2, r3
 622 008a 7B68     		ldr	r3, [r7, #4]
 623 008c 9A60     		str	r2, [r3, #8]
 341:Drivers/STM32F4xx_HAL_Driver/Src/stm32f4xx_hal_gpio.c **** 
 342:Drivers/STM32F4xx_HAL_Driver/Src/stm32f4xx_hal_gpio.c ****       /* Configure the default value IO Output Type */
 343:Drivers/STM32F4xx_HAL_Driver/Src/stm32f4xx_hal_gpio.c ****       GPIOx->OTYPER  &= ~(GPIO_OTYPER_OT_0 << position) ;
 624              		.loc 1 343 0
 625 008e 7B68     		ldr	r3, [r7, #4]
 626 0090 5A68     		ldr	r2, [r3, #4]
ARM GAS  /tmp/ccrdNsWh.s 			page 18


 627 0092 7B69     		ldr	r3, [r7, #20]
 628 0094 0121     		movs	r1, #1
 629 0096 01FA03F3 		lsl	r3, r1, r3
 630 009a DB43     		mvns	r3, r3
 631 009c 1A40     		ands	r2, r2, r3
 632 009e 7B68     		ldr	r3, [r7, #4]
 633 00a0 5A60     		str	r2, [r3, #4]
 344:Drivers/STM32F4xx_HAL_Driver/Src/stm32f4xx_hal_gpio.c **** 
 345:Drivers/STM32F4xx_HAL_Driver/Src/stm32f4xx_hal_gpio.c ****       /* Deactivate the Pull-up and Pull-down resistor for the current IO */
 346:Drivers/STM32F4xx_HAL_Driver/Src/stm32f4xx_hal_gpio.c ****       GPIOx->PUPDR &= ~(GPIO_PUPDR_PUPDR0 << (position * 2U));
 634              		.loc 1 346 0
 635 00a2 7B68     		ldr	r3, [r7, #4]
 636 00a4 DA68     		ldr	r2, [r3, #12]
 637 00a6 7B69     		ldr	r3, [r7, #20]
 638 00a8 5B00     		lsls	r3, r3, #1
 639 00aa 1946     		mov	r1, r3
 640 00ac 0323     		movs	r3, #3
 641 00ae 8B40     		lsls	r3, r3, r1
 642 00b0 DB43     		mvns	r3, r3
 643 00b2 1A40     		ands	r2, r2, r3
 644 00b4 7B68     		ldr	r3, [r7, #4]
 645 00b6 DA60     		str	r2, [r3, #12]
 347:Drivers/STM32F4xx_HAL_Driver/Src/stm32f4xx_hal_gpio.c **** 
 348:Drivers/STM32F4xx_HAL_Driver/Src/stm32f4xx_hal_gpio.c ****       /*------------------------- EXTI Mode Configuration --------------------*/
 349:Drivers/STM32F4xx_HAL_Driver/Src/stm32f4xx_hal_gpio.c ****       tmp = SYSCFG->EXTICR[position >> 2U];
 646              		.loc 1 349 0
 647 00b8 444A     		ldr	r2, .L51
 648 00ba 7B69     		ldr	r3, [r7, #20]
 649 00bc 9B08     		lsrs	r3, r3, #2
 650 00be 0233     		adds	r3, r3, #2
 651 00c0 52F82330 		ldr	r3, [r2, r3, lsl #2]
 652 00c4 BB60     		str	r3, [r7, #8]
 350:Drivers/STM32F4xx_HAL_Driver/Src/stm32f4xx_hal_gpio.c ****       tmp &= (0x0FU << (4U * (position & 0x03U)));
 653              		.loc 1 350 0
 654 00c6 7B69     		ldr	r3, [r7, #20]
 655 00c8 03F00303 		and	r3, r3, #3
 656 00cc 9B00     		lsls	r3, r3, #2
 657 00ce 1A46     		mov	r2, r3
 658 00d0 0F23     		movs	r3, #15
 659 00d2 9340     		lsls	r3, r3, r2
 660 00d4 BA68     		ldr	r2, [r7, #8]
 661 00d6 1340     		ands	r3, r3, r2
 662 00d8 BB60     		str	r3, [r7, #8]
 351:Drivers/STM32F4xx_HAL_Driver/Src/stm32f4xx_hal_gpio.c ****       if(tmp == ((uint32_t)(GPIO_GET_INDEX(GPIOx)) << (4U * (position & 0x03U))))
 663              		.loc 1 351 0
 664 00da 7B68     		ldr	r3, [r7, #4]
 665 00dc 3C4A     		ldr	r2, .L51+4
 666 00de 9342     		cmp	r3, r2
 667 00e0 2BD0     		beq	.L34
 668              		.loc 1 351 0 is_stmt 0 discriminator 1
 669 00e2 7B68     		ldr	r3, [r7, #4]
 670 00e4 3B4A     		ldr	r2, .L51+8
 671 00e6 9342     		cmp	r3, r2
 672 00e8 25D0     		beq	.L35
 673              		.loc 1 351 0 discriminator 3
 674 00ea 7B68     		ldr	r3, [r7, #4]
 675 00ec 3A4A     		ldr	r2, .L51+12
ARM GAS  /tmp/ccrdNsWh.s 			page 19


 676 00ee 9342     		cmp	r3, r2
 677 00f0 1FD0     		beq	.L36
 678              		.loc 1 351 0 discriminator 5
 679 00f2 7B68     		ldr	r3, [r7, #4]
 680 00f4 394A     		ldr	r2, .L51+16
 681 00f6 9342     		cmp	r3, r2
 682 00f8 19D0     		beq	.L37
 683              		.loc 1 351 0 discriminator 7
 684 00fa 7B68     		ldr	r3, [r7, #4]
 685 00fc 384A     		ldr	r2, .L51+20
 686 00fe 9342     		cmp	r3, r2
 687 0100 13D0     		beq	.L38
 688              		.loc 1 351 0 discriminator 9
 689 0102 7B68     		ldr	r3, [r7, #4]
 690 0104 374A     		ldr	r2, .L51+24
 691 0106 9342     		cmp	r3, r2
 692 0108 0DD0     		beq	.L39
 693              		.loc 1 351 0 discriminator 11
 694 010a 7B68     		ldr	r3, [r7, #4]
 695 010c 364A     		ldr	r2, .L51+28
 696 010e 9342     		cmp	r3, r2
 697 0110 07D0     		beq	.L40
 698              		.loc 1 351 0 discriminator 13
 699 0112 7B68     		ldr	r3, [r7, #4]
 700 0114 354A     		ldr	r2, .L51+32
 701 0116 9342     		cmp	r3, r2
 702 0118 01D1     		bne	.L41
 703              		.loc 1 351 0 discriminator 15
 704 011a 0723     		movs	r3, #7
 705 011c 0EE0     		b	.L49
 706              	.L41:
 707              		.loc 1 351 0 discriminator 16
 708 011e 0823     		movs	r3, #8
 709 0120 0CE0     		b	.L49
 710              	.L40:
 711              		.loc 1 351 0 discriminator 14
 712 0122 0623     		movs	r3, #6
 713 0124 0AE0     		b	.L49
 714              	.L39:
 715              		.loc 1 351 0 discriminator 12
 716 0126 0523     		movs	r3, #5
 717 0128 08E0     		b	.L49
 718              	.L38:
 719              		.loc 1 351 0 discriminator 10
 720 012a 0423     		movs	r3, #4
 721 012c 06E0     		b	.L49
 722              	.L37:
 723              		.loc 1 351 0 discriminator 8
 724 012e 0323     		movs	r3, #3
 725 0130 04E0     		b	.L49
 726              	.L36:
 727              		.loc 1 351 0 discriminator 6
 728 0132 0223     		movs	r3, #2
 729 0134 02E0     		b	.L49
 730              	.L35:
 731              		.loc 1 351 0 discriminator 4
 732 0136 0123     		movs	r3, #1
ARM GAS  /tmp/ccrdNsWh.s 			page 20


 733 0138 00E0     		b	.L49
 734              	.L34:
 735              		.loc 1 351 0 discriminator 2
 736 013a 0023     		movs	r3, #0
 737              	.L49:
 738              		.loc 1 351 0 discriminator 32
 739 013c 7A69     		ldr	r2, [r7, #20]
 740 013e 02F00302 		and	r2, r2, #3
 741 0142 9200     		lsls	r2, r2, #2
 742 0144 03FA02F2 		lsl	r2, r3, r2
 743 0148 BB68     		ldr	r3, [r7, #8]
 744 014a 9A42     		cmp	r2, r3
 745 014c 32D1     		bne	.L33
 352:Drivers/STM32F4xx_HAL_Driver/Src/stm32f4xx_hal_gpio.c ****       {
 353:Drivers/STM32F4xx_HAL_Driver/Src/stm32f4xx_hal_gpio.c ****         /* Configure the External Interrupt or event for the current IO */
 354:Drivers/STM32F4xx_HAL_Driver/Src/stm32f4xx_hal_gpio.c ****         tmp = 0x0FU << (4U * (position & 0x03U));
 746              		.loc 1 354 0 is_stmt 1
 747 014e 7B69     		ldr	r3, [r7, #20]
 748 0150 03F00303 		and	r3, r3, #3
 749 0154 9B00     		lsls	r3, r3, #2
 750 0156 1A46     		mov	r2, r3
 751 0158 0F23     		movs	r3, #15
 752 015a 9340     		lsls	r3, r3, r2
 753 015c BB60     		str	r3, [r7, #8]
 355:Drivers/STM32F4xx_HAL_Driver/Src/stm32f4xx_hal_gpio.c ****         SYSCFG->EXTICR[position >> 2U] &= ~tmp;
 754              		.loc 1 355 0
 755 015e 1B48     		ldr	r0, .L51
 756 0160 7B69     		ldr	r3, [r7, #20]
 757 0162 9B08     		lsrs	r3, r3, #2
 758 0164 1949     		ldr	r1, .L51
 759 0166 7A69     		ldr	r2, [r7, #20]
 760 0168 9208     		lsrs	r2, r2, #2
 761 016a 0232     		adds	r2, r2, #2
 762 016c 51F82210 		ldr	r1, [r1, r2, lsl #2]
 763 0170 BA68     		ldr	r2, [r7, #8]
 764 0172 D243     		mvns	r2, r2
 765 0174 0A40     		ands	r2, r2, r1
 766 0176 0233     		adds	r3, r3, #2
 767 0178 40F82320 		str	r2, [r0, r3, lsl #2]
 356:Drivers/STM32F4xx_HAL_Driver/Src/stm32f4xx_hal_gpio.c **** 
 357:Drivers/STM32F4xx_HAL_Driver/Src/stm32f4xx_hal_gpio.c ****         /* Clear EXTI line configuration */
 358:Drivers/STM32F4xx_HAL_Driver/Src/stm32f4xx_hal_gpio.c ****         EXTI->IMR &= ~((uint32_t)iocurrent);
 768              		.loc 1 358 0
 769 017c 1C49     		ldr	r1, .L51+36
 770 017e 1C4B     		ldr	r3, .L51+36
 771 0180 1A68     		ldr	r2, [r3]
 772 0182 FB68     		ldr	r3, [r7, #12]
 773 0184 DB43     		mvns	r3, r3
 774 0186 1340     		ands	r3, r3, r2
 775 0188 0B60     		str	r3, [r1]
 359:Drivers/STM32F4xx_HAL_Driver/Src/stm32f4xx_hal_gpio.c ****         EXTI->EMR &= ~((uint32_t)iocurrent);
 776              		.loc 1 359 0
 777 018a 1949     		ldr	r1, .L51+36
 778 018c 184B     		ldr	r3, .L51+36
 779 018e 5A68     		ldr	r2, [r3, #4]
 780 0190 FB68     		ldr	r3, [r7, #12]
 781 0192 DB43     		mvns	r3, r3
ARM GAS  /tmp/ccrdNsWh.s 			page 21


 782 0194 1340     		ands	r3, r3, r2
 783 0196 4B60     		str	r3, [r1, #4]
 360:Drivers/STM32F4xx_HAL_Driver/Src/stm32f4xx_hal_gpio.c ****         
 361:Drivers/STM32F4xx_HAL_Driver/Src/stm32f4xx_hal_gpio.c ****         /* Clear Rising Falling edge configuration */
 362:Drivers/STM32F4xx_HAL_Driver/Src/stm32f4xx_hal_gpio.c ****         EXTI->RTSR &= ~((uint32_t)iocurrent);
 784              		.loc 1 362 0
 785 0198 1549     		ldr	r1, .L51+36
 786 019a 154B     		ldr	r3, .L51+36
 787 019c 9A68     		ldr	r2, [r3, #8]
 788 019e FB68     		ldr	r3, [r7, #12]
 789 01a0 DB43     		mvns	r3, r3
 790 01a2 1340     		ands	r3, r3, r2
 791 01a4 8B60     		str	r3, [r1, #8]
 363:Drivers/STM32F4xx_HAL_Driver/Src/stm32f4xx_hal_gpio.c ****         EXTI->FTSR &= ~((uint32_t)iocurrent);
 792              		.loc 1 363 0
 793 01a6 1249     		ldr	r1, .L51+36
 794 01a8 114B     		ldr	r3, .L51+36
 795 01aa DA68     		ldr	r2, [r3, #12]
 796 01ac FB68     		ldr	r3, [r7, #12]
 797 01ae DB43     		mvns	r3, r3
 798 01b0 1340     		ands	r3, r3, r2
 799 01b2 CB60     		str	r3, [r1, #12]
 800              	.L33:
 323:Drivers/STM32F4xx_HAL_Driver/Src/stm32f4xx_hal_gpio.c ****   {
 801              		.loc 1 323 0 discriminator 2
 802 01b4 7B69     		ldr	r3, [r7, #20]
 803 01b6 0133     		adds	r3, r3, #1
 804 01b8 7B61     		str	r3, [r7, #20]
 805              	.L32:
 323:Drivers/STM32F4xx_HAL_Driver/Src/stm32f4xx_hal_gpio.c ****   {
 806              		.loc 1 323 0 is_stmt 0 discriminator 1
 807 01ba 7B69     		ldr	r3, [r7, #20]
 808 01bc 0F2B     		cmp	r3, #15
 809 01be 7FF62DAF 		bls	.L50
 364:Drivers/STM32F4xx_HAL_Driver/Src/stm32f4xx_hal_gpio.c ****       }
 365:Drivers/STM32F4xx_HAL_Driver/Src/stm32f4xx_hal_gpio.c ****     }
 366:Drivers/STM32F4xx_HAL_Driver/Src/stm32f4xx_hal_gpio.c ****   }
 367:Drivers/STM32F4xx_HAL_Driver/Src/stm32f4xx_hal_gpio.c **** }
 810              		.loc 1 367 0 is_stmt 1
 811 01c2 1C37     		adds	r7, r7, #28
 812              	.LCFI9:
 813              		.cfi_def_cfa_offset 4
 814 01c4 BD46     		mov	sp, r7
 815              	.LCFI10:
 816              		.cfi_def_cfa_register 13
 817              		@ sp needed
 818 01c6 5DF8047B 		ldr	r7, [sp], #4
 819              	.LCFI11:
 820              		.cfi_restore 7
 821              		.cfi_def_cfa_offset 0
 822 01ca 7047     		bx	lr
 823              	.L52:
 824              		.align	2
 825              	.L51:
 826 01cc 00380140 		.word	1073821696
 827 01d0 00000240 		.word	1073872896
 828 01d4 00040240 		.word	1073873920
ARM GAS  /tmp/ccrdNsWh.s 			page 22


 829 01d8 00080240 		.word	1073874944
 830 01dc 000C0240 		.word	1073875968
 831 01e0 00100240 		.word	1073876992
 832 01e4 00140240 		.word	1073878016
 833 01e8 00180240 		.word	1073879040
 834 01ec 001C0240 		.word	1073880064
 835 01f0 003C0140 		.word	1073822720
 836              		.cfi_endproc
 837              	.LFE124:
 839              		.section	.text.HAL_GPIO_ReadPin,"ax",%progbits
 840              		.align	2
 841              		.global	HAL_GPIO_ReadPin
 842              		.thumb
 843              		.thumb_func
 845              	HAL_GPIO_ReadPin:
 846              	.LFB125:
 368:Drivers/STM32F4xx_HAL_Driver/Src/stm32f4xx_hal_gpio.c **** 
 369:Drivers/STM32F4xx_HAL_Driver/Src/stm32f4xx_hal_gpio.c **** /**
 370:Drivers/STM32F4xx_HAL_Driver/Src/stm32f4xx_hal_gpio.c ****   * @}
 371:Drivers/STM32F4xx_HAL_Driver/Src/stm32f4xx_hal_gpio.c ****   */
 372:Drivers/STM32F4xx_HAL_Driver/Src/stm32f4xx_hal_gpio.c **** 
 373:Drivers/STM32F4xx_HAL_Driver/Src/stm32f4xx_hal_gpio.c **** /** @defgroup GPIO_Exported_Functions_Group2 IO operation functions 
 374:Drivers/STM32F4xx_HAL_Driver/Src/stm32f4xx_hal_gpio.c ****   *  @brief   GPIO Read and Write
 375:Drivers/STM32F4xx_HAL_Driver/Src/stm32f4xx_hal_gpio.c ****   *
 376:Drivers/STM32F4xx_HAL_Driver/Src/stm32f4xx_hal_gpio.c **** @verbatim
 377:Drivers/STM32F4xx_HAL_Driver/Src/stm32f4xx_hal_gpio.c ****  ===============================================================================
 378:Drivers/STM32F4xx_HAL_Driver/Src/stm32f4xx_hal_gpio.c ****                        ##### IO operation functions #####
 379:Drivers/STM32F4xx_HAL_Driver/Src/stm32f4xx_hal_gpio.c ****  ===============================================================================
 380:Drivers/STM32F4xx_HAL_Driver/Src/stm32f4xx_hal_gpio.c **** 
 381:Drivers/STM32F4xx_HAL_Driver/Src/stm32f4xx_hal_gpio.c **** @endverbatim
 382:Drivers/STM32F4xx_HAL_Driver/Src/stm32f4xx_hal_gpio.c ****   * @{
 383:Drivers/STM32F4xx_HAL_Driver/Src/stm32f4xx_hal_gpio.c ****   */
 384:Drivers/STM32F4xx_HAL_Driver/Src/stm32f4xx_hal_gpio.c **** 
 385:Drivers/STM32F4xx_HAL_Driver/Src/stm32f4xx_hal_gpio.c **** /**
 386:Drivers/STM32F4xx_HAL_Driver/Src/stm32f4xx_hal_gpio.c ****   * @brief  Reads the specified input port pin.
 387:Drivers/STM32F4xx_HAL_Driver/Src/stm32f4xx_hal_gpio.c ****   * @param  GPIOx where x can be (A..K) to select the GPIO peripheral for STM32F429X device or
 388:Drivers/STM32F4xx_HAL_Driver/Src/stm32f4xx_hal_gpio.c ****   *                      x can be (A..I) to select the GPIO peripheral for STM32F40XX and STM32F427
 389:Drivers/STM32F4xx_HAL_Driver/Src/stm32f4xx_hal_gpio.c ****   * @param  GPIO_Pin specifies the port bit to read.
 390:Drivers/STM32F4xx_HAL_Driver/Src/stm32f4xx_hal_gpio.c ****   *         This parameter can be GPIO_PIN_x where x can be (0..15).
 391:Drivers/STM32F4xx_HAL_Driver/Src/stm32f4xx_hal_gpio.c ****   * @retval The input port pin value.
 392:Drivers/STM32F4xx_HAL_Driver/Src/stm32f4xx_hal_gpio.c ****   */
 393:Drivers/STM32F4xx_HAL_Driver/Src/stm32f4xx_hal_gpio.c **** GPIO_PinState HAL_GPIO_ReadPin(GPIO_TypeDef* GPIOx, uint16_t GPIO_Pin)
 394:Drivers/STM32F4xx_HAL_Driver/Src/stm32f4xx_hal_gpio.c **** {
 847              		.loc 1 394 0
 848              		.cfi_startproc
 849              		@ args = 0, pretend = 0, frame = 16
 850              		@ frame_needed = 1, uses_anonymous_args = 0
 851              		@ link register save eliminated.
 852 0000 80B4     		push	{r7}
 853              	.LCFI12:
 854              		.cfi_def_cfa_offset 4
 855              		.cfi_offset 7, -4
 856 0002 85B0     		sub	sp, sp, #20
 857              	.LCFI13:
 858              		.cfi_def_cfa_offset 24
 859 0004 00AF     		add	r7, sp, #0
 860              	.LCFI14:
ARM GAS  /tmp/ccrdNsWh.s 			page 23


 861              		.cfi_def_cfa_register 7
 862 0006 7860     		str	r0, [r7, #4]
 863 0008 0B46     		mov	r3, r1
 864 000a 7B80     		strh	r3, [r7, #2]	@ movhi
 395:Drivers/STM32F4xx_HAL_Driver/Src/stm32f4xx_hal_gpio.c ****   GPIO_PinState bitstatus;
 396:Drivers/STM32F4xx_HAL_Driver/Src/stm32f4xx_hal_gpio.c **** 
 397:Drivers/STM32F4xx_HAL_Driver/Src/stm32f4xx_hal_gpio.c ****   /* Check the parameters */
 398:Drivers/STM32F4xx_HAL_Driver/Src/stm32f4xx_hal_gpio.c ****   assert_param(IS_GPIO_PIN(GPIO_Pin));
 399:Drivers/STM32F4xx_HAL_Driver/Src/stm32f4xx_hal_gpio.c **** 
 400:Drivers/STM32F4xx_HAL_Driver/Src/stm32f4xx_hal_gpio.c ****   if((GPIOx->IDR & GPIO_Pin) != (uint32_t)GPIO_PIN_RESET)
 865              		.loc 1 400 0
 866 000c 7B68     		ldr	r3, [r7, #4]
 867 000e 1A69     		ldr	r2, [r3, #16]
 868 0010 7B88     		ldrh	r3, [r7, #2]
 869 0012 1340     		ands	r3, r3, r2
 870 0014 002B     		cmp	r3, #0
 871 0016 02D0     		beq	.L54
 401:Drivers/STM32F4xx_HAL_Driver/Src/stm32f4xx_hal_gpio.c ****   {
 402:Drivers/STM32F4xx_HAL_Driver/Src/stm32f4xx_hal_gpio.c ****     bitstatus = GPIO_PIN_SET;
 872              		.loc 1 402 0
 873 0018 0123     		movs	r3, #1
 874 001a FB73     		strb	r3, [r7, #15]
 875 001c 01E0     		b	.L55
 876              	.L54:
 403:Drivers/STM32F4xx_HAL_Driver/Src/stm32f4xx_hal_gpio.c ****   }
 404:Drivers/STM32F4xx_HAL_Driver/Src/stm32f4xx_hal_gpio.c ****   else
 405:Drivers/STM32F4xx_HAL_Driver/Src/stm32f4xx_hal_gpio.c ****   {
 406:Drivers/STM32F4xx_HAL_Driver/Src/stm32f4xx_hal_gpio.c ****     bitstatus = GPIO_PIN_RESET;
 877              		.loc 1 406 0
 878 001e 0023     		movs	r3, #0
 879 0020 FB73     		strb	r3, [r7, #15]
 880              	.L55:
 407:Drivers/STM32F4xx_HAL_Driver/Src/stm32f4xx_hal_gpio.c ****   }
 408:Drivers/STM32F4xx_HAL_Driver/Src/stm32f4xx_hal_gpio.c ****   return bitstatus;
 881              		.loc 1 408 0
 882 0022 FB7B     		ldrb	r3, [r7, #15]	@ zero_extendqisi2
 409:Drivers/STM32F4xx_HAL_Driver/Src/stm32f4xx_hal_gpio.c **** }
 883              		.loc 1 409 0
 884 0024 1846     		mov	r0, r3
 885 0026 1437     		adds	r7, r7, #20
 886              	.LCFI15:
 887              		.cfi_def_cfa_offset 4
 888 0028 BD46     		mov	sp, r7
 889              	.LCFI16:
 890              		.cfi_def_cfa_register 13
 891              		@ sp needed
 892 002a 5DF8047B 		ldr	r7, [sp], #4
 893              	.LCFI17:
 894              		.cfi_restore 7
 895              		.cfi_def_cfa_offset 0
 896 002e 7047     		bx	lr
 897              		.cfi_endproc
 898              	.LFE125:
 900              		.section	.text.HAL_GPIO_WritePin,"ax",%progbits
 901              		.align	2
 902              		.global	HAL_GPIO_WritePin
 903              		.thumb
ARM GAS  /tmp/ccrdNsWh.s 			page 24


 904              		.thumb_func
 906              	HAL_GPIO_WritePin:
 907              	.LFB126:
 410:Drivers/STM32F4xx_HAL_Driver/Src/stm32f4xx_hal_gpio.c **** 
 411:Drivers/STM32F4xx_HAL_Driver/Src/stm32f4xx_hal_gpio.c **** /**
 412:Drivers/STM32F4xx_HAL_Driver/Src/stm32f4xx_hal_gpio.c ****   * @brief  Sets or clears the selected data port bit.
 413:Drivers/STM32F4xx_HAL_Driver/Src/stm32f4xx_hal_gpio.c ****   *
 414:Drivers/STM32F4xx_HAL_Driver/Src/stm32f4xx_hal_gpio.c ****   * @note   This function uses GPIOx_BSRR register to allow atomic read/modify
 415:Drivers/STM32F4xx_HAL_Driver/Src/stm32f4xx_hal_gpio.c ****   *         accesses. In this way, there is no risk of an IRQ occurring between
 416:Drivers/STM32F4xx_HAL_Driver/Src/stm32f4xx_hal_gpio.c ****   *         the read and the modify access.
 417:Drivers/STM32F4xx_HAL_Driver/Src/stm32f4xx_hal_gpio.c ****   *
 418:Drivers/STM32F4xx_HAL_Driver/Src/stm32f4xx_hal_gpio.c ****   * @param  GPIOx where x can be (A..K) to select the GPIO peripheral for STM32F429X device or
 419:Drivers/STM32F4xx_HAL_Driver/Src/stm32f4xx_hal_gpio.c ****   *                      x can be (A..I) to select the GPIO peripheral for STM32F40XX and STM32F427
 420:Drivers/STM32F4xx_HAL_Driver/Src/stm32f4xx_hal_gpio.c ****   * @param  GPIO_Pin specifies the port bit to be written.
 421:Drivers/STM32F4xx_HAL_Driver/Src/stm32f4xx_hal_gpio.c ****   *          This parameter can be one of GPIO_PIN_x where x can be (0..15).
 422:Drivers/STM32F4xx_HAL_Driver/Src/stm32f4xx_hal_gpio.c ****   * @param  PinState specifies the value to be written to the selected bit.
 423:Drivers/STM32F4xx_HAL_Driver/Src/stm32f4xx_hal_gpio.c ****   *          This parameter can be one of the GPIO_PinState enum values:
 424:Drivers/STM32F4xx_HAL_Driver/Src/stm32f4xx_hal_gpio.c ****   *            @arg GPIO_PIN_RESET: to clear the port pin
 425:Drivers/STM32F4xx_HAL_Driver/Src/stm32f4xx_hal_gpio.c ****   *            @arg GPIO_PIN_SET: to set the port pin
 426:Drivers/STM32F4xx_HAL_Driver/Src/stm32f4xx_hal_gpio.c ****   * @retval None
 427:Drivers/STM32F4xx_HAL_Driver/Src/stm32f4xx_hal_gpio.c ****   */
 428:Drivers/STM32F4xx_HAL_Driver/Src/stm32f4xx_hal_gpio.c **** void HAL_GPIO_WritePin(GPIO_TypeDef* GPIOx, uint16_t GPIO_Pin, GPIO_PinState PinState)
 429:Drivers/STM32F4xx_HAL_Driver/Src/stm32f4xx_hal_gpio.c **** {
 908              		.loc 1 429 0
 909              		.cfi_startproc
 910              		@ args = 0, pretend = 0, frame = 8
 911              		@ frame_needed = 1, uses_anonymous_args = 0
 912              		@ link register save eliminated.
 913 0000 80B4     		push	{r7}
 914              	.LCFI18:
 915              		.cfi_def_cfa_offset 4
 916              		.cfi_offset 7, -4
 917 0002 83B0     		sub	sp, sp, #12
 918              	.LCFI19:
 919              		.cfi_def_cfa_offset 16
 920 0004 00AF     		add	r7, sp, #0
 921              	.LCFI20:
 922              		.cfi_def_cfa_register 7
 923 0006 7860     		str	r0, [r7, #4]
 924 0008 0B46     		mov	r3, r1
 925 000a 7B80     		strh	r3, [r7, #2]	@ movhi
 926 000c 1346     		mov	r3, r2
 927 000e 7B70     		strb	r3, [r7, #1]
 430:Drivers/STM32F4xx_HAL_Driver/Src/stm32f4xx_hal_gpio.c ****   /* Check the parameters */
 431:Drivers/STM32F4xx_HAL_Driver/Src/stm32f4xx_hal_gpio.c ****   assert_param(IS_GPIO_PIN(GPIO_Pin));
 432:Drivers/STM32F4xx_HAL_Driver/Src/stm32f4xx_hal_gpio.c ****   assert_param(IS_GPIO_PIN_ACTION(PinState));
 433:Drivers/STM32F4xx_HAL_Driver/Src/stm32f4xx_hal_gpio.c **** 
 434:Drivers/STM32F4xx_HAL_Driver/Src/stm32f4xx_hal_gpio.c ****   if(PinState != GPIO_PIN_RESET)
 928              		.loc 1 434 0
 929 0010 7B78     		ldrb	r3, [r7, #1]	@ zero_extendqisi2
 930 0012 002B     		cmp	r3, #0
 931 0014 03D0     		beq	.L58
 435:Drivers/STM32F4xx_HAL_Driver/Src/stm32f4xx_hal_gpio.c ****   {
 436:Drivers/STM32F4xx_HAL_Driver/Src/stm32f4xx_hal_gpio.c ****     GPIOx->BSRR = GPIO_Pin;
 932              		.loc 1 436 0
 933 0016 7A88     		ldrh	r2, [r7, #2]
 934 0018 7B68     		ldr	r3, [r7, #4]
ARM GAS  /tmp/ccrdNsWh.s 			page 25


 935 001a 9A61     		str	r2, [r3, #24]
 936 001c 03E0     		b	.L57
 937              	.L58:
 437:Drivers/STM32F4xx_HAL_Driver/Src/stm32f4xx_hal_gpio.c ****   }
 438:Drivers/STM32F4xx_HAL_Driver/Src/stm32f4xx_hal_gpio.c ****   else
 439:Drivers/STM32F4xx_HAL_Driver/Src/stm32f4xx_hal_gpio.c ****   {
 440:Drivers/STM32F4xx_HAL_Driver/Src/stm32f4xx_hal_gpio.c ****     GPIOx->BSRR = (uint32_t)GPIO_Pin << 16U;
 938              		.loc 1 440 0
 939 001e 7B88     		ldrh	r3, [r7, #2]
 940 0020 1A04     		lsls	r2, r3, #16
 941 0022 7B68     		ldr	r3, [r7, #4]
 942 0024 9A61     		str	r2, [r3, #24]
 943              	.L57:
 441:Drivers/STM32F4xx_HAL_Driver/Src/stm32f4xx_hal_gpio.c ****   }
 442:Drivers/STM32F4xx_HAL_Driver/Src/stm32f4xx_hal_gpio.c **** }
 944              		.loc 1 442 0
 945 0026 0C37     		adds	r7, r7, #12
 946              	.LCFI21:
 947              		.cfi_def_cfa_offset 4
 948 0028 BD46     		mov	sp, r7
 949              	.LCFI22:
 950              		.cfi_def_cfa_register 13
 951              		@ sp needed
 952 002a 5DF8047B 		ldr	r7, [sp], #4
 953              	.LCFI23:
 954              		.cfi_restore 7
 955              		.cfi_def_cfa_offset 0
 956 002e 7047     		bx	lr
 957              		.cfi_endproc
 958              	.LFE126:
 960              		.section	.text.HAL_GPIO_TogglePin,"ax",%progbits
 961              		.align	2
 962              		.global	HAL_GPIO_TogglePin
 963              		.thumb
 964              		.thumb_func
 966              	HAL_GPIO_TogglePin:
 967              	.LFB127:
 443:Drivers/STM32F4xx_HAL_Driver/Src/stm32f4xx_hal_gpio.c **** 
 444:Drivers/STM32F4xx_HAL_Driver/Src/stm32f4xx_hal_gpio.c **** /**
 445:Drivers/STM32F4xx_HAL_Driver/Src/stm32f4xx_hal_gpio.c ****   * @brief  Toggles the specified GPIO pins.
 446:Drivers/STM32F4xx_HAL_Driver/Src/stm32f4xx_hal_gpio.c ****   * @param  GPIOx Where x can be (A..K) to select the GPIO peripheral for STM32F429X device or
 447:Drivers/STM32F4xx_HAL_Driver/Src/stm32f4xx_hal_gpio.c ****   *                      x can be (A..I) to select the GPIO peripheral for STM32F40XX and STM32F427
 448:Drivers/STM32F4xx_HAL_Driver/Src/stm32f4xx_hal_gpio.c ****   * @param  GPIO_Pin Specifies the pins to be toggled.
 449:Drivers/STM32F4xx_HAL_Driver/Src/stm32f4xx_hal_gpio.c ****   * @retval None
 450:Drivers/STM32F4xx_HAL_Driver/Src/stm32f4xx_hal_gpio.c ****   */
 451:Drivers/STM32F4xx_HAL_Driver/Src/stm32f4xx_hal_gpio.c **** void HAL_GPIO_TogglePin(GPIO_TypeDef* GPIOx, uint16_t GPIO_Pin)
 452:Drivers/STM32F4xx_HAL_Driver/Src/stm32f4xx_hal_gpio.c **** {
 968              		.loc 1 452 0
 969              		.cfi_startproc
 970              		@ args = 0, pretend = 0, frame = 8
 971              		@ frame_needed = 1, uses_anonymous_args = 0
 972              		@ link register save eliminated.
 973 0000 80B4     		push	{r7}
 974              	.LCFI24:
 975              		.cfi_def_cfa_offset 4
 976              		.cfi_offset 7, -4
 977 0002 83B0     		sub	sp, sp, #12
ARM GAS  /tmp/ccrdNsWh.s 			page 26


 978              	.LCFI25:
 979              		.cfi_def_cfa_offset 16
 980 0004 00AF     		add	r7, sp, #0
 981              	.LCFI26:
 982              		.cfi_def_cfa_register 7
 983 0006 7860     		str	r0, [r7, #4]
 984 0008 0B46     		mov	r3, r1
 985 000a 7B80     		strh	r3, [r7, #2]	@ movhi
 453:Drivers/STM32F4xx_HAL_Driver/Src/stm32f4xx_hal_gpio.c ****   /* Check the parameters */
 454:Drivers/STM32F4xx_HAL_Driver/Src/stm32f4xx_hal_gpio.c ****   assert_param(IS_GPIO_PIN(GPIO_Pin));
 455:Drivers/STM32F4xx_HAL_Driver/Src/stm32f4xx_hal_gpio.c **** 
 456:Drivers/STM32F4xx_HAL_Driver/Src/stm32f4xx_hal_gpio.c ****   GPIOx->ODR ^= GPIO_Pin;
 986              		.loc 1 456 0
 987 000c 7B68     		ldr	r3, [r7, #4]
 988 000e 5A69     		ldr	r2, [r3, #20]
 989 0010 7B88     		ldrh	r3, [r7, #2]
 990 0012 5A40     		eors	r2, r2, r3
 991 0014 7B68     		ldr	r3, [r7, #4]
 992 0016 5A61     		str	r2, [r3, #20]
 457:Drivers/STM32F4xx_HAL_Driver/Src/stm32f4xx_hal_gpio.c **** }
 993              		.loc 1 457 0
 994 0018 0C37     		adds	r7, r7, #12
 995              	.LCFI27:
 996              		.cfi_def_cfa_offset 4
 997 001a BD46     		mov	sp, r7
 998              	.LCFI28:
 999              		.cfi_def_cfa_register 13
 1000              		@ sp needed
 1001 001c 5DF8047B 		ldr	r7, [sp], #4
 1002              	.LCFI29:
 1003              		.cfi_restore 7
 1004              		.cfi_def_cfa_offset 0
 1005 0020 7047     		bx	lr
 1006              		.cfi_endproc
 1007              	.LFE127:
 1009 0022 00BF     		.section	.text.HAL_GPIO_LockPin,"ax",%progbits
 1010              		.align	2
 1011              		.global	HAL_GPIO_LockPin
 1012              		.thumb
 1013              		.thumb_func
 1015              	HAL_GPIO_LockPin:
 1016              	.LFB128:
 458:Drivers/STM32F4xx_HAL_Driver/Src/stm32f4xx_hal_gpio.c **** 
 459:Drivers/STM32F4xx_HAL_Driver/Src/stm32f4xx_hal_gpio.c **** /**
 460:Drivers/STM32F4xx_HAL_Driver/Src/stm32f4xx_hal_gpio.c ****   * @brief  Locks GPIO Pins configuration registers.
 461:Drivers/STM32F4xx_HAL_Driver/Src/stm32f4xx_hal_gpio.c ****   * @note   The locked registers are GPIOx_MODER, GPIOx_OTYPER, GPIOx_OSPEEDR,
 462:Drivers/STM32F4xx_HAL_Driver/Src/stm32f4xx_hal_gpio.c ****   *         GPIOx_PUPDR, GPIOx_AFRL and GPIOx_AFRH.
 463:Drivers/STM32F4xx_HAL_Driver/Src/stm32f4xx_hal_gpio.c ****   * @note   The configuration of the locked GPIO pins can no longer be modified
 464:Drivers/STM32F4xx_HAL_Driver/Src/stm32f4xx_hal_gpio.c ****   *         until the next reset.
 465:Drivers/STM32F4xx_HAL_Driver/Src/stm32f4xx_hal_gpio.c ****   * @param  GPIOx where x can be (A..F) to select the GPIO peripheral for STM32F4 family
 466:Drivers/STM32F4xx_HAL_Driver/Src/stm32f4xx_hal_gpio.c ****   * @param  GPIO_Pin specifies the port bit to be locked.
 467:Drivers/STM32F4xx_HAL_Driver/Src/stm32f4xx_hal_gpio.c ****   *         This parameter can be any combination of GPIO_PIN_x where x can be (0..15).
 468:Drivers/STM32F4xx_HAL_Driver/Src/stm32f4xx_hal_gpio.c ****   * @retval None
 469:Drivers/STM32F4xx_HAL_Driver/Src/stm32f4xx_hal_gpio.c ****   */
 470:Drivers/STM32F4xx_HAL_Driver/Src/stm32f4xx_hal_gpio.c **** HAL_StatusTypeDef HAL_GPIO_LockPin(GPIO_TypeDef* GPIOx, uint16_t GPIO_Pin)
 471:Drivers/STM32F4xx_HAL_Driver/Src/stm32f4xx_hal_gpio.c **** {
 1017              		.loc 1 471 0
ARM GAS  /tmp/ccrdNsWh.s 			page 27


 1018              		.cfi_startproc
 1019              		@ args = 0, pretend = 0, frame = 16
 1020              		@ frame_needed = 1, uses_anonymous_args = 0
 1021              		@ link register save eliminated.
 1022 0000 80B4     		push	{r7}
 1023              	.LCFI30:
 1024              		.cfi_def_cfa_offset 4
 1025              		.cfi_offset 7, -4
 1026 0002 85B0     		sub	sp, sp, #20
 1027              	.LCFI31:
 1028              		.cfi_def_cfa_offset 24
 1029 0004 00AF     		add	r7, sp, #0
 1030              	.LCFI32:
 1031              		.cfi_def_cfa_register 7
 1032 0006 7860     		str	r0, [r7, #4]
 1033 0008 0B46     		mov	r3, r1
 1034 000a 7B80     		strh	r3, [r7, #2]	@ movhi
 472:Drivers/STM32F4xx_HAL_Driver/Src/stm32f4xx_hal_gpio.c ****   __IO uint32_t tmp = GPIO_LCKR_LCKK;
 1035              		.loc 1 472 0
 1036 000c 4FF48033 		mov	r3, #65536
 1037 0010 FB60     		str	r3, [r7, #12]
 473:Drivers/STM32F4xx_HAL_Driver/Src/stm32f4xx_hal_gpio.c **** 
 474:Drivers/STM32F4xx_HAL_Driver/Src/stm32f4xx_hal_gpio.c ****   /* Check the parameters */
 475:Drivers/STM32F4xx_HAL_Driver/Src/stm32f4xx_hal_gpio.c ****   assert_param(IS_GPIO_PIN(GPIO_Pin));
 476:Drivers/STM32F4xx_HAL_Driver/Src/stm32f4xx_hal_gpio.c **** 
 477:Drivers/STM32F4xx_HAL_Driver/Src/stm32f4xx_hal_gpio.c ****   /* Apply lock key write sequence */
 478:Drivers/STM32F4xx_HAL_Driver/Src/stm32f4xx_hal_gpio.c ****   tmp |= GPIO_Pin;
 1038              		.loc 1 478 0
 1039 0012 7A88     		ldrh	r2, [r7, #2]
 1040 0014 FB68     		ldr	r3, [r7, #12]
 1041 0016 1343     		orrs	r3, r3, r2
 1042 0018 FB60     		str	r3, [r7, #12]
 479:Drivers/STM32F4xx_HAL_Driver/Src/stm32f4xx_hal_gpio.c ****   /* Set LCKx bit(s): LCKK='1' + LCK[15-0] */
 480:Drivers/STM32F4xx_HAL_Driver/Src/stm32f4xx_hal_gpio.c ****   GPIOx->LCKR = tmp;
 1043              		.loc 1 480 0
 1044 001a FA68     		ldr	r2, [r7, #12]
 1045 001c 7B68     		ldr	r3, [r7, #4]
 1046 001e DA61     		str	r2, [r3, #28]
 481:Drivers/STM32F4xx_HAL_Driver/Src/stm32f4xx_hal_gpio.c ****   /* Reset LCKx bit(s): LCKK='0' + LCK[15-0] */
 482:Drivers/STM32F4xx_HAL_Driver/Src/stm32f4xx_hal_gpio.c ****   GPIOx->LCKR = GPIO_Pin;
 1047              		.loc 1 482 0
 1048 0020 7A88     		ldrh	r2, [r7, #2]
 1049 0022 7B68     		ldr	r3, [r7, #4]
 1050 0024 DA61     		str	r2, [r3, #28]
 483:Drivers/STM32F4xx_HAL_Driver/Src/stm32f4xx_hal_gpio.c ****   /* Set LCKx bit(s): LCKK='1' + LCK[15-0] */
 484:Drivers/STM32F4xx_HAL_Driver/Src/stm32f4xx_hal_gpio.c ****   GPIOx->LCKR = tmp;
 1051              		.loc 1 484 0
 1052 0026 FA68     		ldr	r2, [r7, #12]
 1053 0028 7B68     		ldr	r3, [r7, #4]
 1054 002a DA61     		str	r2, [r3, #28]
 485:Drivers/STM32F4xx_HAL_Driver/Src/stm32f4xx_hal_gpio.c ****   /* Read LCKK bit*/
 486:Drivers/STM32F4xx_HAL_Driver/Src/stm32f4xx_hal_gpio.c ****   tmp = GPIOx->LCKR;
 1055              		.loc 1 486 0
 1056 002c 7B68     		ldr	r3, [r7, #4]
 1057 002e DB69     		ldr	r3, [r3, #28]
 1058 0030 FB60     		str	r3, [r7, #12]
 487:Drivers/STM32F4xx_HAL_Driver/Src/stm32f4xx_hal_gpio.c **** 
ARM GAS  /tmp/ccrdNsWh.s 			page 28


 488:Drivers/STM32F4xx_HAL_Driver/Src/stm32f4xx_hal_gpio.c ****  if((GPIOx->LCKR & GPIO_LCKR_LCKK) != RESET)
 1059              		.loc 1 488 0
 1060 0032 7B68     		ldr	r3, [r7, #4]
 1061 0034 DB69     		ldr	r3, [r3, #28]
 1062 0036 03F48033 		and	r3, r3, #65536
 1063 003a 002B     		cmp	r3, #0
 1064 003c 01D0     		beq	.L62
 489:Drivers/STM32F4xx_HAL_Driver/Src/stm32f4xx_hal_gpio.c ****   {
 490:Drivers/STM32F4xx_HAL_Driver/Src/stm32f4xx_hal_gpio.c ****     return HAL_OK;
 1065              		.loc 1 490 0
 1066 003e 0023     		movs	r3, #0
 1067 0040 00E0     		b	.L63
 1068              	.L62:
 491:Drivers/STM32F4xx_HAL_Driver/Src/stm32f4xx_hal_gpio.c ****   }
 492:Drivers/STM32F4xx_HAL_Driver/Src/stm32f4xx_hal_gpio.c ****   else
 493:Drivers/STM32F4xx_HAL_Driver/Src/stm32f4xx_hal_gpio.c ****   {
 494:Drivers/STM32F4xx_HAL_Driver/Src/stm32f4xx_hal_gpio.c ****     return HAL_ERROR;
 1069              		.loc 1 494 0
 1070 0042 0123     		movs	r3, #1
 1071              	.L63:
 495:Drivers/STM32F4xx_HAL_Driver/Src/stm32f4xx_hal_gpio.c ****   }
 496:Drivers/STM32F4xx_HAL_Driver/Src/stm32f4xx_hal_gpio.c **** }
 1072              		.loc 1 496 0
 1073 0044 1846     		mov	r0, r3
 1074 0046 1437     		adds	r7, r7, #20
 1075              	.LCFI33:
 1076              		.cfi_def_cfa_offset 4
 1077 0048 BD46     		mov	sp, r7
 1078              	.LCFI34:
 1079              		.cfi_def_cfa_register 13
 1080              		@ sp needed
 1081 004a 5DF8047B 		ldr	r7, [sp], #4
 1082              	.LCFI35:
 1083              		.cfi_restore 7
 1084              		.cfi_def_cfa_offset 0
 1085 004e 7047     		bx	lr
 1086              		.cfi_endproc
 1087              	.LFE128:
 1089              		.section	.text.HAL_GPIO_EXTI_IRQHandler,"ax",%progbits
 1090              		.align	2
 1091              		.global	HAL_GPIO_EXTI_IRQHandler
 1092              		.thumb
 1093              		.thumb_func
 1095              	HAL_GPIO_EXTI_IRQHandler:
 1096              	.LFB129:
 497:Drivers/STM32F4xx_HAL_Driver/Src/stm32f4xx_hal_gpio.c **** 
 498:Drivers/STM32F4xx_HAL_Driver/Src/stm32f4xx_hal_gpio.c **** /**
 499:Drivers/STM32F4xx_HAL_Driver/Src/stm32f4xx_hal_gpio.c ****   * @brief  This function handles EXTI interrupt request.
 500:Drivers/STM32F4xx_HAL_Driver/Src/stm32f4xx_hal_gpio.c ****   * @param  GPIO_Pin Specifies the pins connected EXTI line
 501:Drivers/STM32F4xx_HAL_Driver/Src/stm32f4xx_hal_gpio.c ****   * @retval None
 502:Drivers/STM32F4xx_HAL_Driver/Src/stm32f4xx_hal_gpio.c ****   */
 503:Drivers/STM32F4xx_HAL_Driver/Src/stm32f4xx_hal_gpio.c **** void HAL_GPIO_EXTI_IRQHandler(uint16_t GPIO_Pin)
 504:Drivers/STM32F4xx_HAL_Driver/Src/stm32f4xx_hal_gpio.c **** {
 1097              		.loc 1 504 0
 1098              		.cfi_startproc
 1099              		@ args = 0, pretend = 0, frame = 8
 1100              		@ frame_needed = 1, uses_anonymous_args = 0
ARM GAS  /tmp/ccrdNsWh.s 			page 29


 1101 0000 80B5     		push	{r7, lr}
 1102              	.LCFI36:
 1103              		.cfi_def_cfa_offset 8
 1104              		.cfi_offset 7, -8
 1105              		.cfi_offset 14, -4
 1106 0002 82B0     		sub	sp, sp, #8
 1107              	.LCFI37:
 1108              		.cfi_def_cfa_offset 16
 1109 0004 00AF     		add	r7, sp, #0
 1110              	.LCFI38:
 1111              		.cfi_def_cfa_register 7
 1112 0006 0346     		mov	r3, r0
 1113 0008 FB80     		strh	r3, [r7, #6]	@ movhi
 505:Drivers/STM32F4xx_HAL_Driver/Src/stm32f4xx_hal_gpio.c ****   /* EXTI line interrupt detected */
 506:Drivers/STM32F4xx_HAL_Driver/Src/stm32f4xx_hal_gpio.c ****   if(__HAL_GPIO_EXTI_GET_IT(GPIO_Pin) != RESET)
 1114              		.loc 1 506 0
 1115 000a 084B     		ldr	r3, .L66
 1116 000c 5A69     		ldr	r2, [r3, #20]
 1117 000e FB88     		ldrh	r3, [r7, #6]
 1118 0010 1340     		ands	r3, r3, r2
 1119 0012 002B     		cmp	r3, #0
 1120 0014 06D0     		beq	.L64
 507:Drivers/STM32F4xx_HAL_Driver/Src/stm32f4xx_hal_gpio.c ****   {
 508:Drivers/STM32F4xx_HAL_Driver/Src/stm32f4xx_hal_gpio.c ****     __HAL_GPIO_EXTI_CLEAR_IT(GPIO_Pin);
 1121              		.loc 1 508 0
 1122 0016 054A     		ldr	r2, .L66
 1123 0018 FB88     		ldrh	r3, [r7, #6]
 1124 001a 5361     		str	r3, [r2, #20]
 509:Drivers/STM32F4xx_HAL_Driver/Src/stm32f4xx_hal_gpio.c ****     HAL_GPIO_EXTI_Callback(GPIO_Pin);
 1125              		.loc 1 509 0
 1126 001c FB88     		ldrh	r3, [r7, #6]
 1127 001e 1846     		mov	r0, r3
 1128 0020 FFF7FEFF 		bl	HAL_GPIO_EXTI_Callback
 1129              	.L64:
 510:Drivers/STM32F4xx_HAL_Driver/Src/stm32f4xx_hal_gpio.c ****   }
 511:Drivers/STM32F4xx_HAL_Driver/Src/stm32f4xx_hal_gpio.c **** }
 1130              		.loc 1 511 0
 1131 0024 0837     		adds	r7, r7, #8
 1132              	.LCFI39:
 1133              		.cfi_def_cfa_offset 8
 1134 0026 BD46     		mov	sp, r7
 1135              	.LCFI40:
 1136              		.cfi_def_cfa_register 13
 1137              		@ sp needed
 1138 0028 80BD     		pop	{r7, pc}
 1139              	.L67:
 1140 002a 00BF     		.align	2
 1141              	.L66:
 1142 002c 003C0140 		.word	1073822720
 1143              		.cfi_endproc
 1144              	.LFE129:
 1146              		.section	.text.HAL_GPIO_EXTI_Callback,"ax",%progbits
 1147              		.align	2
 1148              		.weak	HAL_GPIO_EXTI_Callback
 1149              		.thumb
 1150              		.thumb_func
 1152              	HAL_GPIO_EXTI_Callback:
ARM GAS  /tmp/ccrdNsWh.s 			page 30


 1153              	.LFB130:
 512:Drivers/STM32F4xx_HAL_Driver/Src/stm32f4xx_hal_gpio.c **** 
 513:Drivers/STM32F4xx_HAL_Driver/Src/stm32f4xx_hal_gpio.c **** /**
 514:Drivers/STM32F4xx_HAL_Driver/Src/stm32f4xx_hal_gpio.c ****   * @brief  EXTI line detection callbacks.
 515:Drivers/STM32F4xx_HAL_Driver/Src/stm32f4xx_hal_gpio.c ****   * @param  GPIO_Pin Specifies the pins connected EXTI line
 516:Drivers/STM32F4xx_HAL_Driver/Src/stm32f4xx_hal_gpio.c ****   * @retval None
 517:Drivers/STM32F4xx_HAL_Driver/Src/stm32f4xx_hal_gpio.c ****   */
 518:Drivers/STM32F4xx_HAL_Driver/Src/stm32f4xx_hal_gpio.c **** __weak void HAL_GPIO_EXTI_Callback(uint16_t GPIO_Pin)
 519:Drivers/STM32F4xx_HAL_Driver/Src/stm32f4xx_hal_gpio.c **** {
 1154              		.loc 1 519 0
 1155              		.cfi_startproc
 1156              		@ args = 0, pretend = 0, frame = 8
 1157              		@ frame_needed = 1, uses_anonymous_args = 0
 1158              		@ link register save eliminated.
 1159 0000 80B4     		push	{r7}
 1160              	.LCFI41:
 1161              		.cfi_def_cfa_offset 4
 1162              		.cfi_offset 7, -4
 1163 0002 83B0     		sub	sp, sp, #12
 1164              	.LCFI42:
 1165              		.cfi_def_cfa_offset 16
 1166 0004 00AF     		add	r7, sp, #0
 1167              	.LCFI43:
 1168              		.cfi_def_cfa_register 7
 1169 0006 0346     		mov	r3, r0
 1170 0008 FB80     		strh	r3, [r7, #6]	@ movhi
 520:Drivers/STM32F4xx_HAL_Driver/Src/stm32f4xx_hal_gpio.c ****   /* Prevent unused argument(s) compilation warning */
 521:Drivers/STM32F4xx_HAL_Driver/Src/stm32f4xx_hal_gpio.c ****   UNUSED(GPIO_Pin);
 522:Drivers/STM32F4xx_HAL_Driver/Src/stm32f4xx_hal_gpio.c ****   /* NOTE: This function Should not be modified, when the callback is needed,
 523:Drivers/STM32F4xx_HAL_Driver/Src/stm32f4xx_hal_gpio.c ****            the HAL_GPIO_EXTI_Callback could be implemented in the user file
 524:Drivers/STM32F4xx_HAL_Driver/Src/stm32f4xx_hal_gpio.c ****    */
 525:Drivers/STM32F4xx_HAL_Driver/Src/stm32f4xx_hal_gpio.c **** }
 1171              		.loc 1 525 0
 1172 000a 0C37     		adds	r7, r7, #12
 1173              	.LCFI44:
 1174              		.cfi_def_cfa_offset 4
 1175 000c BD46     		mov	sp, r7
 1176              	.LCFI45:
 1177              		.cfi_def_cfa_register 13
 1178              		@ sp needed
 1179 000e 5DF8047B 		ldr	r7, [sp], #4
 1180              	.LCFI46:
 1181              		.cfi_restore 7
 1182              		.cfi_def_cfa_offset 0
 1183 0012 7047     		bx	lr
 1184              		.cfi_endproc
 1185              	.LFE130:
 1187              		.text
 1188              	.Letext0:
 1189              		.file 2 "/usr/include/newlib/machine/_default_types.h"
 1190              		.file 3 "/usr/include/newlib/sys/_stdint.h"
 1191              		.file 4 "Drivers/CMSIS/Device/ST/STM32F4xx/Include/stm32f405xx.h"
 1192              		.file 5 "Drivers/CMSIS/Device/ST/STM32F4xx/Include/stm32f4xx.h"
 1193              		.file 6 "Drivers/STM32F4xx_HAL_Driver/Inc/stm32f4xx_hal_def.h"
 1194              		.file 7 "Drivers/STM32F4xx_HAL_Driver/Inc/stm32f4xx_hal_gpio.h"
 1195              		.file 8 "Drivers/CMSIS/Include/core_cm4.h"
ARM GAS  /tmp/ccrdNsWh.s 			page 31

