ARM GAS  /tmp/cceNxm2U.s 			page 1


   1              		.syntax unified
   2              		.cpu cortex-m4
   3              		.eabi_attribute 27, 1
   4              		.eabi_attribute 28, 1
   5              		.fpu fpv4-sp-d16
   6              		.eabi_attribute 20, 1
   7              		.eabi_attribute 21, 1
   8              		.eabi_attribute 23, 3
   9              		.eabi_attribute 24, 1
  10              		.eabi_attribute 25, 1
  11              		.eabi_attribute 26, 1
  12              		.eabi_attribute 30, 1
  13              		.eabi_attribute 34, 1
  14              		.eabi_attribute 18, 4
  15              		.thumb
  16              		.file	"stm32f4xx_hal_i2s.c"
  17              		.text
  18              	.Ltext0:
  19              		.cfi_sections	.debug_frame
  20              		.section	.text.I2S_WaitFlagStateUntilTimeout,"ax",%progbits
  21              		.align	2
  22              		.thumb
  23              		.thumb_func
  25              	I2S_WaitFlagStateUntilTimeout:
  26              	.LFB152:
  27              		.file 1 "Drivers/STM32F4xx_HAL_Driver/Src/stm32f4xx_hal_i2s.c"
   1:Drivers/STM32F4xx_HAL_Driver/Src/stm32f4xx_hal_i2s.c **** /**
   2:Drivers/STM32F4xx_HAL_Driver/Src/stm32f4xx_hal_i2s.c ****   ******************************************************************************
   3:Drivers/STM32F4xx_HAL_Driver/Src/stm32f4xx_hal_i2s.c ****   * @file    stm32f4xx_hal_i2s.c
   4:Drivers/STM32F4xx_HAL_Driver/Src/stm32f4xx_hal_i2s.c ****   * @author  MCD Application Team
   5:Drivers/STM32F4xx_HAL_Driver/Src/stm32f4xx_hal_i2s.c ****   * @brief   I2S HAL module driver.
   6:Drivers/STM32F4xx_HAL_Driver/Src/stm32f4xx_hal_i2s.c ****   *          This file provides firmware functions to manage the following
   7:Drivers/STM32F4xx_HAL_Driver/Src/stm32f4xx_hal_i2s.c ****   *          functionalities of the Integrated Interchip Sound (I2S) peripheral:
   8:Drivers/STM32F4xx_HAL_Driver/Src/stm32f4xx_hal_i2s.c ****   *           + Initialization and de-initialization functions
   9:Drivers/STM32F4xx_HAL_Driver/Src/stm32f4xx_hal_i2s.c ****   *           + IO operation functions
  10:Drivers/STM32F4xx_HAL_Driver/Src/stm32f4xx_hal_i2s.c ****   *           + Peripheral State and Errors functions
  11:Drivers/STM32F4xx_HAL_Driver/Src/stm32f4xx_hal_i2s.c ****   @verbatim
  12:Drivers/STM32F4xx_HAL_Driver/Src/stm32f4xx_hal_i2s.c ****  ===============================================================================
  13:Drivers/STM32F4xx_HAL_Driver/Src/stm32f4xx_hal_i2s.c ****                   ##### How to use this driver #####
  14:Drivers/STM32F4xx_HAL_Driver/Src/stm32f4xx_hal_i2s.c ****  ===============================================================================
  15:Drivers/STM32F4xx_HAL_Driver/Src/stm32f4xx_hal_i2s.c ****  [..]
  16:Drivers/STM32F4xx_HAL_Driver/Src/stm32f4xx_hal_i2s.c ****     The I2S HAL driver can be used as follow:
  17:Drivers/STM32F4xx_HAL_Driver/Src/stm32f4xx_hal_i2s.c **** 
  18:Drivers/STM32F4xx_HAL_Driver/Src/stm32f4xx_hal_i2s.c ****     (#) Declare a I2S_HandleTypeDef handle structure.
  19:Drivers/STM32F4xx_HAL_Driver/Src/stm32f4xx_hal_i2s.c ****     (#) Initialize the I2S low level resources by implement the HAL_I2S_MspInit() API:
  20:Drivers/STM32F4xx_HAL_Driver/Src/stm32f4xx_hal_i2s.c ****         (##) Enable the SPIx interface clock.
  21:Drivers/STM32F4xx_HAL_Driver/Src/stm32f4xx_hal_i2s.c ****         (##) I2S pins configuration:
  22:Drivers/STM32F4xx_HAL_Driver/Src/stm32f4xx_hal_i2s.c ****             (+++) Enable the clock for the I2S GPIOs.
  23:Drivers/STM32F4xx_HAL_Driver/Src/stm32f4xx_hal_i2s.c ****             (+++) Configure these I2S pins as alternate function pull-up.
  24:Drivers/STM32F4xx_HAL_Driver/Src/stm32f4xx_hal_i2s.c ****         (##) NVIC configuration if you need to use interrupt process (HAL_I2S_Transmit_IT()
  25:Drivers/STM32F4xx_HAL_Driver/Src/stm32f4xx_hal_i2s.c ****              and HAL_I2S_Receive_IT() APIs).
  26:Drivers/STM32F4xx_HAL_Driver/Src/stm32f4xx_hal_i2s.c ****             (+++) Configure the I2Sx interrupt priority.
  27:Drivers/STM32F4xx_HAL_Driver/Src/stm32f4xx_hal_i2s.c ****             (+++) Enable the NVIC I2S IRQ handle.
  28:Drivers/STM32F4xx_HAL_Driver/Src/stm32f4xx_hal_i2s.c ****         (##) DMA Configuration if you need to use DMA process (HAL_I2S_Transmit_DMA()
  29:Drivers/STM32F4xx_HAL_Driver/Src/stm32f4xx_hal_i2s.c ****              and HAL_I2S_Receive_DMA() APIs:
  30:Drivers/STM32F4xx_HAL_Driver/Src/stm32f4xx_hal_i2s.c ****             (+++) Declare a DMA handle structure for the Tx/Rx stream.
  31:Drivers/STM32F4xx_HAL_Driver/Src/stm32f4xx_hal_i2s.c ****             (+++) Enable the DMAx interface clock.
ARM GAS  /tmp/cceNxm2U.s 			page 2


  32:Drivers/STM32F4xx_HAL_Driver/Src/stm32f4xx_hal_i2s.c ****             (+++) Configure the declared DMA handle structure with the required Tx/Rx parameters.
  33:Drivers/STM32F4xx_HAL_Driver/Src/stm32f4xx_hal_i2s.c ****             (+++) Configure the DMA Tx/Rx Stream.
  34:Drivers/STM32F4xx_HAL_Driver/Src/stm32f4xx_hal_i2s.c ****             (+++) Associate the initialized DMA handle to the I2S DMA Tx/Rx handle.
  35:Drivers/STM32F4xx_HAL_Driver/Src/stm32f4xx_hal_i2s.c ****             (+++) Configure the priority and enable the NVIC for the transfer complete interrupt on
  36:Drivers/STM32F4xx_HAL_Driver/Src/stm32f4xx_hal_i2s.c ****                 DMA Tx/Rx Stream.
  37:Drivers/STM32F4xx_HAL_Driver/Src/stm32f4xx_hal_i2s.c **** 
  38:Drivers/STM32F4xx_HAL_Driver/Src/stm32f4xx_hal_i2s.c ****    (#) Program the Mode, Standard, Data Format, MCLK Output, Audio frequency and Polarity
  39:Drivers/STM32F4xx_HAL_Driver/Src/stm32f4xx_hal_i2s.c ****        using HAL_I2S_Init() function.
  40:Drivers/STM32F4xx_HAL_Driver/Src/stm32f4xx_hal_i2s.c **** 
  41:Drivers/STM32F4xx_HAL_Driver/Src/stm32f4xx_hal_i2s.c ****    -@- The specific I2S interrupts (Transmission complete interrupt,
  42:Drivers/STM32F4xx_HAL_Driver/Src/stm32f4xx_hal_i2s.c ****        RXNE interrupt and Error Interrupts) will be managed using the macros
  43:Drivers/STM32F4xx_HAL_Driver/Src/stm32f4xx_hal_i2s.c ****        __HAL_I2S_ENABLE_IT() and __HAL_I2S_DISABLE_IT() inside the transmit and receive process.
  44:Drivers/STM32F4xx_HAL_Driver/Src/stm32f4xx_hal_i2s.c ****    -@- Make sure that either:
  45:Drivers/STM32F4xx_HAL_Driver/Src/stm32f4xx_hal_i2s.c ****         (+@) I2S PLL is configured or
  46:Drivers/STM32F4xx_HAL_Driver/Src/stm32f4xx_hal_i2s.c ****         (+@) External clock source is configured after setting correctly
  47:Drivers/STM32F4xx_HAL_Driver/Src/stm32f4xx_hal_i2s.c ****              the define constant EXTERNAL_CLOCK_VALUE in the stm32f4xx_hal_conf.h file.
  48:Drivers/STM32F4xx_HAL_Driver/Src/stm32f4xx_hal_i2s.c **** 
  49:Drivers/STM32F4xx_HAL_Driver/Src/stm32f4xx_hal_i2s.c ****    (#) Three operation modes are available within this driver :
  50:Drivers/STM32F4xx_HAL_Driver/Src/stm32f4xx_hal_i2s.c **** 
  51:Drivers/STM32F4xx_HAL_Driver/Src/stm32f4xx_hal_i2s.c ****    *** Polling mode IO operation ***
  52:Drivers/STM32F4xx_HAL_Driver/Src/stm32f4xx_hal_i2s.c ****    =================================
  53:Drivers/STM32F4xx_HAL_Driver/Src/stm32f4xx_hal_i2s.c ****    [..]
  54:Drivers/STM32F4xx_HAL_Driver/Src/stm32f4xx_hal_i2s.c ****      (+) Send an amount of data in blocking mode using HAL_I2S_Transmit()
  55:Drivers/STM32F4xx_HAL_Driver/Src/stm32f4xx_hal_i2s.c ****      (+) Receive an amount of data in blocking mode using HAL_I2S_Receive()
  56:Drivers/STM32F4xx_HAL_Driver/Src/stm32f4xx_hal_i2s.c **** 
  57:Drivers/STM32F4xx_HAL_Driver/Src/stm32f4xx_hal_i2s.c ****    *** Interrupt mode IO operation ***
  58:Drivers/STM32F4xx_HAL_Driver/Src/stm32f4xx_hal_i2s.c ****    ===================================
  59:Drivers/STM32F4xx_HAL_Driver/Src/stm32f4xx_hal_i2s.c ****    [..]
  60:Drivers/STM32F4xx_HAL_Driver/Src/stm32f4xx_hal_i2s.c ****      (+) Send an amount of data in non blocking mode using HAL_I2S_Transmit_IT()
  61:Drivers/STM32F4xx_HAL_Driver/Src/stm32f4xx_hal_i2s.c ****      (+) At transmission end of half transfer HAL_I2S_TxHalfCpltCallback is executed and user can
  62:Drivers/STM32F4xx_HAL_Driver/Src/stm32f4xx_hal_i2s.c ****          add his own code by customization of function pointer HAL_I2S_TxHalfCpltCallback
  63:Drivers/STM32F4xx_HAL_Driver/Src/stm32f4xx_hal_i2s.c ****      (+) At transmission end of transfer HAL_I2S_TxCpltCallback is executed and user can
  64:Drivers/STM32F4xx_HAL_Driver/Src/stm32f4xx_hal_i2s.c ****          add his own code by customization of function pointer HAL_I2S_TxCpltCallback
  65:Drivers/STM32F4xx_HAL_Driver/Src/stm32f4xx_hal_i2s.c ****      (+) Receive an amount of data in non blocking mode using HAL_I2S_Receive_IT()
  66:Drivers/STM32F4xx_HAL_Driver/Src/stm32f4xx_hal_i2s.c ****      (+) At reception end of half transfer HAL_I2S_RxHalfCpltCallback is executed and user can
  67:Drivers/STM32F4xx_HAL_Driver/Src/stm32f4xx_hal_i2s.c ****          add his own code by customization of function pointer HAL_I2S_RxHalfCpltCallback
  68:Drivers/STM32F4xx_HAL_Driver/Src/stm32f4xx_hal_i2s.c ****      (+) At reception end of transfer HAL_I2S_RxCpltCallback is executed and user can
  69:Drivers/STM32F4xx_HAL_Driver/Src/stm32f4xx_hal_i2s.c ****          add his own code by customization of function pointer HAL_I2S_RxCpltCallback
  70:Drivers/STM32F4xx_HAL_Driver/Src/stm32f4xx_hal_i2s.c ****      (+) In case of transfer Error, HAL_I2S_ErrorCallback() function is executed and user can
  71:Drivers/STM32F4xx_HAL_Driver/Src/stm32f4xx_hal_i2s.c ****          add his own code by customization of function pointer HAL_I2S_ErrorCallback
  72:Drivers/STM32F4xx_HAL_Driver/Src/stm32f4xx_hal_i2s.c **** 
  73:Drivers/STM32F4xx_HAL_Driver/Src/stm32f4xx_hal_i2s.c ****    *** DMA mode IO operation ***
  74:Drivers/STM32F4xx_HAL_Driver/Src/stm32f4xx_hal_i2s.c ****    ==============================
  75:Drivers/STM32F4xx_HAL_Driver/Src/stm32f4xx_hal_i2s.c ****    [..]
  76:Drivers/STM32F4xx_HAL_Driver/Src/stm32f4xx_hal_i2s.c ****      (+) Send an amount of data in non blocking mode (DMA) using HAL_I2S_Transmit_DMA()
  77:Drivers/STM32F4xx_HAL_Driver/Src/stm32f4xx_hal_i2s.c ****      (+) At transmission end of half transfer HAL_I2S_TxHalfCpltCallback is executed and user can
  78:Drivers/STM32F4xx_HAL_Driver/Src/stm32f4xx_hal_i2s.c ****          add his own code by customization of function pointer HAL_I2S_TxHalfCpltCallback
  79:Drivers/STM32F4xx_HAL_Driver/Src/stm32f4xx_hal_i2s.c ****      (+) At transmission end of transfer HAL_I2S_TxCpltCallback is executed and user can
  80:Drivers/STM32F4xx_HAL_Driver/Src/stm32f4xx_hal_i2s.c ****          add his own code by customization of function pointer HAL_I2S_TxCpltCallback
  81:Drivers/STM32F4xx_HAL_Driver/Src/stm32f4xx_hal_i2s.c ****      (+) Receive an amount of data in non blocking mode (DMA) using HAL_I2S_Receive_DMA()
  82:Drivers/STM32F4xx_HAL_Driver/Src/stm32f4xx_hal_i2s.c ****      (+) At reception end of half transfer HAL_I2S_RxHalfCpltCallback is executed and user can
  83:Drivers/STM32F4xx_HAL_Driver/Src/stm32f4xx_hal_i2s.c ****          add his own code by customization of function pointer HAL_I2S_RxHalfCpltCallback
  84:Drivers/STM32F4xx_HAL_Driver/Src/stm32f4xx_hal_i2s.c ****      (+) At reception end of transfer HAL_I2S_RxCpltCallback is executed and user can
  85:Drivers/STM32F4xx_HAL_Driver/Src/stm32f4xx_hal_i2s.c ****          add his own code by customization of function pointer HAL_I2S_RxCpltCallback
  86:Drivers/STM32F4xx_HAL_Driver/Src/stm32f4xx_hal_i2s.c ****      (+) In case of transfer Error, HAL_I2S_ErrorCallback() function is executed and user can
  87:Drivers/STM32F4xx_HAL_Driver/Src/stm32f4xx_hal_i2s.c ****          add his own code by customization of function pointer HAL_I2S_ErrorCallback
  88:Drivers/STM32F4xx_HAL_Driver/Src/stm32f4xx_hal_i2s.c ****      (+) Pause the DMA Transfer using HAL_I2S_DMAPause()
ARM GAS  /tmp/cceNxm2U.s 			page 3


  89:Drivers/STM32F4xx_HAL_Driver/Src/stm32f4xx_hal_i2s.c ****      (+) Resume the DMA Transfer using HAL_I2S_DMAResume()
  90:Drivers/STM32F4xx_HAL_Driver/Src/stm32f4xx_hal_i2s.c ****      (+) Stop the DMA Transfer using HAL_I2S_DMAStop()
  91:Drivers/STM32F4xx_HAL_Driver/Src/stm32f4xx_hal_i2s.c **** 
  92:Drivers/STM32F4xx_HAL_Driver/Src/stm32f4xx_hal_i2s.c ****    *** I2S HAL driver macros list ***
  93:Drivers/STM32F4xx_HAL_Driver/Src/stm32f4xx_hal_i2s.c ****    =============================================
  94:Drivers/STM32F4xx_HAL_Driver/Src/stm32f4xx_hal_i2s.c ****    [..]
  95:Drivers/STM32F4xx_HAL_Driver/Src/stm32f4xx_hal_i2s.c ****      Below the list of most used macros in I2S HAL driver.
  96:Drivers/STM32F4xx_HAL_Driver/Src/stm32f4xx_hal_i2s.c **** 
  97:Drivers/STM32F4xx_HAL_Driver/Src/stm32f4xx_hal_i2s.c ****       (+) __HAL_I2S_ENABLE: Enable the specified SPI peripheral (in I2S mode)
  98:Drivers/STM32F4xx_HAL_Driver/Src/stm32f4xx_hal_i2s.c ****       (+) __HAL_I2S_DISABLE: Disable the specified SPI peripheral (in I2S mode)
  99:Drivers/STM32F4xx_HAL_Driver/Src/stm32f4xx_hal_i2s.c ****       (+) __HAL_I2S_ENABLE_IT : Enable the specified I2S interrupts
 100:Drivers/STM32F4xx_HAL_Driver/Src/stm32f4xx_hal_i2s.c ****       (+) __HAL_I2S_DISABLE_IT : Disable the specified I2S interrupts
 101:Drivers/STM32F4xx_HAL_Driver/Src/stm32f4xx_hal_i2s.c ****       (+) __HAL_I2S_GET_FLAG: Check whether the specified I2S flag is set or not
 102:Drivers/STM32F4xx_HAL_Driver/Src/stm32f4xx_hal_i2s.c **** 
 103:Drivers/STM32F4xx_HAL_Driver/Src/stm32f4xx_hal_i2s.c ****     [..]
 104:Drivers/STM32F4xx_HAL_Driver/Src/stm32f4xx_hal_i2s.c ****       (@) You can refer to the I2S HAL driver header file for more useful macros
 105:Drivers/STM32F4xx_HAL_Driver/Src/stm32f4xx_hal_i2s.c **** 
 106:Drivers/STM32F4xx_HAL_Driver/Src/stm32f4xx_hal_i2s.c ****   @endverbatim
 107:Drivers/STM32F4xx_HAL_Driver/Src/stm32f4xx_hal_i2s.c ****   ******************************************************************************
 108:Drivers/STM32F4xx_HAL_Driver/Src/stm32f4xx_hal_i2s.c ****   * @attention
 109:Drivers/STM32F4xx_HAL_Driver/Src/stm32f4xx_hal_i2s.c ****   *
 110:Drivers/STM32F4xx_HAL_Driver/Src/stm32f4xx_hal_i2s.c ****   * <h2><center>&copy; COPYRIGHT(c) 2017 STMicroelectronics</center></h2>
 111:Drivers/STM32F4xx_HAL_Driver/Src/stm32f4xx_hal_i2s.c ****   *
 112:Drivers/STM32F4xx_HAL_Driver/Src/stm32f4xx_hal_i2s.c ****   * Redistribution and use in source and binary forms, with or without modification,
 113:Drivers/STM32F4xx_HAL_Driver/Src/stm32f4xx_hal_i2s.c ****   * are permitted provided that the following conditions are met:
 114:Drivers/STM32F4xx_HAL_Driver/Src/stm32f4xx_hal_i2s.c ****   *   1. Redistributions of source code must retain the above copyright notice,
 115:Drivers/STM32F4xx_HAL_Driver/Src/stm32f4xx_hal_i2s.c ****   *      this list of conditions and the following disclaimer.
 116:Drivers/STM32F4xx_HAL_Driver/Src/stm32f4xx_hal_i2s.c ****   *   2. Redistributions in binary form must reproduce the above copyright notice,
 117:Drivers/STM32F4xx_HAL_Driver/Src/stm32f4xx_hal_i2s.c ****   *      this list of conditions and the following disclaimer in the documentation
 118:Drivers/STM32F4xx_HAL_Driver/Src/stm32f4xx_hal_i2s.c ****   *      and/or other materials provided with the distribution.
 119:Drivers/STM32F4xx_HAL_Driver/Src/stm32f4xx_hal_i2s.c ****   *   3. Neither the name of STMicroelectronics nor the names of its contributors
 120:Drivers/STM32F4xx_HAL_Driver/Src/stm32f4xx_hal_i2s.c ****   *      may be used to endorse or promote products derived from this software
 121:Drivers/STM32F4xx_HAL_Driver/Src/stm32f4xx_hal_i2s.c ****   *      without specific prior written permission.
 122:Drivers/STM32F4xx_HAL_Driver/Src/stm32f4xx_hal_i2s.c ****   *
 123:Drivers/STM32F4xx_HAL_Driver/Src/stm32f4xx_hal_i2s.c ****   * THIS SOFTWARE IS PROVIDED BY THE COPYRIGHT HOLDERS AND CONTRIBUTORS "AS IS"
 124:Drivers/STM32F4xx_HAL_Driver/Src/stm32f4xx_hal_i2s.c ****   * AND ANY EXPRESS OR IMPLIED WARRANTIES, INCLUDING, BUT NOT LIMITED TO, THE
 125:Drivers/STM32F4xx_HAL_Driver/Src/stm32f4xx_hal_i2s.c ****   * IMPLIED WARRANTIES OF MERCHANTABILITY AND FITNESS FOR A PARTICULAR PURPOSE ARE
 126:Drivers/STM32F4xx_HAL_Driver/Src/stm32f4xx_hal_i2s.c ****   * DISCLAIMED. IN NO EVENT SHALL THE COPYRIGHT HOLDER OR CONTRIBUTORS BE LIABLE
 127:Drivers/STM32F4xx_HAL_Driver/Src/stm32f4xx_hal_i2s.c ****   * FOR ANY DIRECT, INDIRECT, INCIDENTAL, SPECIAL, EXEMPLARY, OR CONSEQUENTIAL
 128:Drivers/STM32F4xx_HAL_Driver/Src/stm32f4xx_hal_i2s.c ****   * DAMAGES (INCLUDING, BUT NOT LIMITED TO, PROCUREMENT OF SUBSTITUTE GOODS OR
 129:Drivers/STM32F4xx_HAL_Driver/Src/stm32f4xx_hal_i2s.c ****   * SERVICES; LOSS OF USE, DATA, OR PROFITS; OR BUSINESS INTERRUPTION) HOWEVER
 130:Drivers/STM32F4xx_HAL_Driver/Src/stm32f4xx_hal_i2s.c ****   * CAUSED AND ON ANY THEORY OF LIABILITY, WHETHER IN CONTRACT, STRICT LIABILITY,
 131:Drivers/STM32F4xx_HAL_Driver/Src/stm32f4xx_hal_i2s.c ****   * OR TORT (INCLUDING NEGLIGENCE OR OTHERWISE) ARISING IN ANY WAY OUT OF THE USE
 132:Drivers/STM32F4xx_HAL_Driver/Src/stm32f4xx_hal_i2s.c ****   * OF THIS SOFTWARE, EVEN IF ADVISED OF THE POSSIBILITY OF SUCH DAMAGE.
 133:Drivers/STM32F4xx_HAL_Driver/Src/stm32f4xx_hal_i2s.c ****   *
 134:Drivers/STM32F4xx_HAL_Driver/Src/stm32f4xx_hal_i2s.c ****   ******************************************************************************
 135:Drivers/STM32F4xx_HAL_Driver/Src/stm32f4xx_hal_i2s.c ****   */
 136:Drivers/STM32F4xx_HAL_Driver/Src/stm32f4xx_hal_i2s.c **** 
 137:Drivers/STM32F4xx_HAL_Driver/Src/stm32f4xx_hal_i2s.c **** /* Includes ------------------------------------------------------------------*/
 138:Drivers/STM32F4xx_HAL_Driver/Src/stm32f4xx_hal_i2s.c **** #include "stm32f4xx_hal.h"
 139:Drivers/STM32F4xx_HAL_Driver/Src/stm32f4xx_hal_i2s.c **** 
 140:Drivers/STM32F4xx_HAL_Driver/Src/stm32f4xx_hal_i2s.c **** /** @addtogroup STM32F4xx_HAL_Driver
 141:Drivers/STM32F4xx_HAL_Driver/Src/stm32f4xx_hal_i2s.c ****   * @{
 142:Drivers/STM32F4xx_HAL_Driver/Src/stm32f4xx_hal_i2s.c ****   */
 143:Drivers/STM32F4xx_HAL_Driver/Src/stm32f4xx_hal_i2s.c **** 
 144:Drivers/STM32F4xx_HAL_Driver/Src/stm32f4xx_hal_i2s.c **** #ifdef HAL_I2S_MODULE_ENABLED
 145:Drivers/STM32F4xx_HAL_Driver/Src/stm32f4xx_hal_i2s.c **** 
ARM GAS  /tmp/cceNxm2U.s 			page 4


 146:Drivers/STM32F4xx_HAL_Driver/Src/stm32f4xx_hal_i2s.c **** /** @defgroup I2S I2S
 147:Drivers/STM32F4xx_HAL_Driver/Src/stm32f4xx_hal_i2s.c ****   * @brief I2S HAL module driver
 148:Drivers/STM32F4xx_HAL_Driver/Src/stm32f4xx_hal_i2s.c ****   * @{
 149:Drivers/STM32F4xx_HAL_Driver/Src/stm32f4xx_hal_i2s.c ****   */
 150:Drivers/STM32F4xx_HAL_Driver/Src/stm32f4xx_hal_i2s.c **** 
 151:Drivers/STM32F4xx_HAL_Driver/Src/stm32f4xx_hal_i2s.c **** /* Private typedef -----------------------------------------------------------*/
 152:Drivers/STM32F4xx_HAL_Driver/Src/stm32f4xx_hal_i2s.c **** /* Private define ------------------------------------------------------------*/
 153:Drivers/STM32F4xx_HAL_Driver/Src/stm32f4xx_hal_i2s.c **** /* Private macro -------------------------------------------------------------*/
 154:Drivers/STM32F4xx_HAL_Driver/Src/stm32f4xx_hal_i2s.c **** /* Private variables ---------------------------------------------------------*/
 155:Drivers/STM32F4xx_HAL_Driver/Src/stm32f4xx_hal_i2s.c **** /* Private function prototypes -----------------------------------------------*/
 156:Drivers/STM32F4xx_HAL_Driver/Src/stm32f4xx_hal_i2s.c **** 
 157:Drivers/STM32F4xx_HAL_Driver/Src/stm32f4xx_hal_i2s.c **** /** @addtogroup I2S_Private_Functions
 158:Drivers/STM32F4xx_HAL_Driver/Src/stm32f4xx_hal_i2s.c ****   * @{
 159:Drivers/STM32F4xx_HAL_Driver/Src/stm32f4xx_hal_i2s.c ****   */
 160:Drivers/STM32F4xx_HAL_Driver/Src/stm32f4xx_hal_i2s.c **** static void               I2S_DMATxCplt(DMA_HandleTypeDef *hdma);
 161:Drivers/STM32F4xx_HAL_Driver/Src/stm32f4xx_hal_i2s.c **** static void               I2S_DMATxHalfCplt(DMA_HandleTypeDef *hdma);
 162:Drivers/STM32F4xx_HAL_Driver/Src/stm32f4xx_hal_i2s.c **** static void               I2S_DMARxCplt(DMA_HandleTypeDef *hdma);
 163:Drivers/STM32F4xx_HAL_Driver/Src/stm32f4xx_hal_i2s.c **** static void               I2S_DMARxHalfCplt(DMA_HandleTypeDef *hdma);
 164:Drivers/STM32F4xx_HAL_Driver/Src/stm32f4xx_hal_i2s.c **** static void               I2S_DMAError(DMA_HandleTypeDef *hdma);
 165:Drivers/STM32F4xx_HAL_Driver/Src/stm32f4xx_hal_i2s.c **** static void               I2S_Transmit_IT(I2S_HandleTypeDef *hi2s);
 166:Drivers/STM32F4xx_HAL_Driver/Src/stm32f4xx_hal_i2s.c **** static void               I2S_Receive_IT(I2S_HandleTypeDef *hi2s);
 167:Drivers/STM32F4xx_HAL_Driver/Src/stm32f4xx_hal_i2s.c **** static void               I2S_IRQHandler(I2S_HandleTypeDef *hi2s);
 168:Drivers/STM32F4xx_HAL_Driver/Src/stm32f4xx_hal_i2s.c **** static HAL_StatusTypeDef  I2S_WaitFlagStateUntilTimeout(I2S_HandleTypeDef *hi2s, uint32_t Flag, uin
 169:Drivers/STM32F4xx_HAL_Driver/Src/stm32f4xx_hal_i2s.c ****                                                         uint32_t Timeout);
 170:Drivers/STM32F4xx_HAL_Driver/Src/stm32f4xx_hal_i2s.c **** /**
 171:Drivers/STM32F4xx_HAL_Driver/Src/stm32f4xx_hal_i2s.c ****   * @}
 172:Drivers/STM32F4xx_HAL_Driver/Src/stm32f4xx_hal_i2s.c ****   */
 173:Drivers/STM32F4xx_HAL_Driver/Src/stm32f4xx_hal_i2s.c **** 
 174:Drivers/STM32F4xx_HAL_Driver/Src/stm32f4xx_hal_i2s.c **** /* Exported functions --------------------------------------------------------*/
 175:Drivers/STM32F4xx_HAL_Driver/Src/stm32f4xx_hal_i2s.c **** /** @addtogroup I2S_Exported_Functions I2S Exported Functions
 176:Drivers/STM32F4xx_HAL_Driver/Src/stm32f4xx_hal_i2s.c ****   * @{
 177:Drivers/STM32F4xx_HAL_Driver/Src/stm32f4xx_hal_i2s.c ****   */
 178:Drivers/STM32F4xx_HAL_Driver/Src/stm32f4xx_hal_i2s.c **** 
 179:Drivers/STM32F4xx_HAL_Driver/Src/stm32f4xx_hal_i2s.c **** /** @addtogroup  I2S_Exported_Functions_Group1
 180:Drivers/STM32F4xx_HAL_Driver/Src/stm32f4xx_hal_i2s.c ****   *  @brief    Initialization and Configuration functions
 181:Drivers/STM32F4xx_HAL_Driver/Src/stm32f4xx_hal_i2s.c ****   *
 182:Drivers/STM32F4xx_HAL_Driver/Src/stm32f4xx_hal_i2s.c **** @verbatim
 183:Drivers/STM32F4xx_HAL_Driver/Src/stm32f4xx_hal_i2s.c ****  ===============================================================================
 184:Drivers/STM32F4xx_HAL_Driver/Src/stm32f4xx_hal_i2s.c ****               ##### Initialization and de-initialization functions #####
 185:Drivers/STM32F4xx_HAL_Driver/Src/stm32f4xx_hal_i2s.c ****  ===============================================================================
 186:Drivers/STM32F4xx_HAL_Driver/Src/stm32f4xx_hal_i2s.c ****     [..]  This subsection provides a set of functions allowing to initialize and
 187:Drivers/STM32F4xx_HAL_Driver/Src/stm32f4xx_hal_i2s.c ****           de-initialize the I2Sx peripheral in simplex mode:
 188:Drivers/STM32F4xx_HAL_Driver/Src/stm32f4xx_hal_i2s.c **** 
 189:Drivers/STM32F4xx_HAL_Driver/Src/stm32f4xx_hal_i2s.c ****       (+) User must Implement HAL_I2S_MspInit() function in which he configures
 190:Drivers/STM32F4xx_HAL_Driver/Src/stm32f4xx_hal_i2s.c ****           all related peripherals resources (CLOCK, GPIO, DMA, IT and NVIC ).
 191:Drivers/STM32F4xx_HAL_Driver/Src/stm32f4xx_hal_i2s.c **** 
 192:Drivers/STM32F4xx_HAL_Driver/Src/stm32f4xx_hal_i2s.c ****       (+) Call the function HAL_I2S_Init() to configure the selected device with
 193:Drivers/STM32F4xx_HAL_Driver/Src/stm32f4xx_hal_i2s.c ****           the selected configuration:
 194:Drivers/STM32F4xx_HAL_Driver/Src/stm32f4xx_hal_i2s.c ****         (++) Mode
 195:Drivers/STM32F4xx_HAL_Driver/Src/stm32f4xx_hal_i2s.c ****         (++) Standard
 196:Drivers/STM32F4xx_HAL_Driver/Src/stm32f4xx_hal_i2s.c ****         (++) Data Format
 197:Drivers/STM32F4xx_HAL_Driver/Src/stm32f4xx_hal_i2s.c ****         (++) MCLK Output
 198:Drivers/STM32F4xx_HAL_Driver/Src/stm32f4xx_hal_i2s.c ****         (++) Audio frequency
 199:Drivers/STM32F4xx_HAL_Driver/Src/stm32f4xx_hal_i2s.c ****         (++) Polarity
 200:Drivers/STM32F4xx_HAL_Driver/Src/stm32f4xx_hal_i2s.c ****         (++) Full duplex mode
 201:Drivers/STM32F4xx_HAL_Driver/Src/stm32f4xx_hal_i2s.c **** 
 202:Drivers/STM32F4xx_HAL_Driver/Src/stm32f4xx_hal_i2s.c ****       (+) Call the function HAL_I2S_DeInit() to restore the default configuration
ARM GAS  /tmp/cceNxm2U.s 			page 5


 203:Drivers/STM32F4xx_HAL_Driver/Src/stm32f4xx_hal_i2s.c ****           of the selected I2Sx peripheral.
 204:Drivers/STM32F4xx_HAL_Driver/Src/stm32f4xx_hal_i2s.c **** @endverbatim
 205:Drivers/STM32F4xx_HAL_Driver/Src/stm32f4xx_hal_i2s.c ****   * @{
 206:Drivers/STM32F4xx_HAL_Driver/Src/stm32f4xx_hal_i2s.c ****   */
 207:Drivers/STM32F4xx_HAL_Driver/Src/stm32f4xx_hal_i2s.c **** 
 208:Drivers/STM32F4xx_HAL_Driver/Src/stm32f4xx_hal_i2s.c **** /**
 209:Drivers/STM32F4xx_HAL_Driver/Src/stm32f4xx_hal_i2s.c ****   * @brief Initializes the I2S according to the specified parameters
 210:Drivers/STM32F4xx_HAL_Driver/Src/stm32f4xx_hal_i2s.c ****   *         in the I2S_InitTypeDef and create the associated handle.
 211:Drivers/STM32F4xx_HAL_Driver/Src/stm32f4xx_hal_i2s.c ****   * @param  hi2s pointer to a I2S_HandleTypeDef structure that contains
 212:Drivers/STM32F4xx_HAL_Driver/Src/stm32f4xx_hal_i2s.c ****   *         the configuration information for I2S module
 213:Drivers/STM32F4xx_HAL_Driver/Src/stm32f4xx_hal_i2s.c ****   * @retval HAL status
 214:Drivers/STM32F4xx_HAL_Driver/Src/stm32f4xx_hal_i2s.c ****   */
 215:Drivers/STM32F4xx_HAL_Driver/Src/stm32f4xx_hal_i2s.c **** HAL_StatusTypeDef HAL_I2S_Init(I2S_HandleTypeDef *hi2s)
 216:Drivers/STM32F4xx_HAL_Driver/Src/stm32f4xx_hal_i2s.c **** {
 217:Drivers/STM32F4xx_HAL_Driver/Src/stm32f4xx_hal_i2s.c ****   uint32_t tmpreg = 0U, i2sdiv = 2U, i2sodd = 0U, packetlength = 16U;
 218:Drivers/STM32F4xx_HAL_Driver/Src/stm32f4xx_hal_i2s.c ****   uint32_t tmp = 0U, i2sclk = 0U;
 219:Drivers/STM32F4xx_HAL_Driver/Src/stm32f4xx_hal_i2s.c **** 
 220:Drivers/STM32F4xx_HAL_Driver/Src/stm32f4xx_hal_i2s.c ****   /* Check the I2S handle allocation */
 221:Drivers/STM32F4xx_HAL_Driver/Src/stm32f4xx_hal_i2s.c ****   if(hi2s == NULL)
 222:Drivers/STM32F4xx_HAL_Driver/Src/stm32f4xx_hal_i2s.c ****   {
 223:Drivers/STM32F4xx_HAL_Driver/Src/stm32f4xx_hal_i2s.c ****     return HAL_ERROR;
 224:Drivers/STM32F4xx_HAL_Driver/Src/stm32f4xx_hal_i2s.c ****   }
 225:Drivers/STM32F4xx_HAL_Driver/Src/stm32f4xx_hal_i2s.c **** 
 226:Drivers/STM32F4xx_HAL_Driver/Src/stm32f4xx_hal_i2s.c ****   /* Check the I2S parameters */
 227:Drivers/STM32F4xx_HAL_Driver/Src/stm32f4xx_hal_i2s.c ****   assert_param(IS_I2S_ALL_INSTANCE(hi2s->Instance));
 228:Drivers/STM32F4xx_HAL_Driver/Src/stm32f4xx_hal_i2s.c ****   assert_param(IS_I2S_MODE(hi2s->Init.Mode));
 229:Drivers/STM32F4xx_HAL_Driver/Src/stm32f4xx_hal_i2s.c ****   assert_param(IS_I2S_STANDARD(hi2s->Init.Standard));
 230:Drivers/STM32F4xx_HAL_Driver/Src/stm32f4xx_hal_i2s.c ****   assert_param(IS_I2S_DATA_FORMAT(hi2s->Init.DataFormat));
 231:Drivers/STM32F4xx_HAL_Driver/Src/stm32f4xx_hal_i2s.c ****   assert_param(IS_I2S_MCLK_OUTPUT(hi2s->Init.MCLKOutput));
 232:Drivers/STM32F4xx_HAL_Driver/Src/stm32f4xx_hal_i2s.c ****   assert_param(IS_I2S_AUDIO_FREQ(hi2s->Init.AudioFreq));
 233:Drivers/STM32F4xx_HAL_Driver/Src/stm32f4xx_hal_i2s.c ****   assert_param(IS_I2S_CPOL(hi2s->Init.CPOL));
 234:Drivers/STM32F4xx_HAL_Driver/Src/stm32f4xx_hal_i2s.c ****   assert_param(IS_I2S_CLOCKSOURCE(hi2s->Init.ClockSource));
 235:Drivers/STM32F4xx_HAL_Driver/Src/stm32f4xx_hal_i2s.c **** 
 236:Drivers/STM32F4xx_HAL_Driver/Src/stm32f4xx_hal_i2s.c ****   hi2s->State = HAL_I2S_STATE_BUSY;
 237:Drivers/STM32F4xx_HAL_Driver/Src/stm32f4xx_hal_i2s.c **** 
 238:Drivers/STM32F4xx_HAL_Driver/Src/stm32f4xx_hal_i2s.c ****   /* Initialize Default I2S IrqHandler ISR */
 239:Drivers/STM32F4xx_HAL_Driver/Src/stm32f4xx_hal_i2s.c ****   hi2s->IrqHandlerISR = I2S_IRQHandler;
 240:Drivers/STM32F4xx_HAL_Driver/Src/stm32f4xx_hal_i2s.c **** 
 241:Drivers/STM32F4xx_HAL_Driver/Src/stm32f4xx_hal_i2s.c ****   /* Init the low level hardware : GPIO, CLOCK, CORTEX...etc */
 242:Drivers/STM32F4xx_HAL_Driver/Src/stm32f4xx_hal_i2s.c ****   HAL_I2S_MspInit(hi2s);
 243:Drivers/STM32F4xx_HAL_Driver/Src/stm32f4xx_hal_i2s.c **** 
 244:Drivers/STM32F4xx_HAL_Driver/Src/stm32f4xx_hal_i2s.c ****   /*----------------------- SPIx I2SCFGR & I2SPR Configuration ---------------*/
 245:Drivers/STM32F4xx_HAL_Driver/Src/stm32f4xx_hal_i2s.c ****   /* Clear I2SMOD, I2SE, I2SCFG, PCMSYNC, I2SSTD, CKPOL, DATLEN and CHLEN bits */
 246:Drivers/STM32F4xx_HAL_Driver/Src/stm32f4xx_hal_i2s.c ****   CLEAR_BIT(hi2s->Instance->I2SCFGR,(SPI_I2SCFGR_CHLEN | SPI_I2SCFGR_DATLEN | SPI_I2SCFGR_CKPOL | \
 247:Drivers/STM32F4xx_HAL_Driver/Src/stm32f4xx_hal_i2s.c ****                                      SPI_I2SCFGR_I2SSTD | SPI_I2SCFGR_PCMSYNC | SPI_I2SCFGR_I2SCFG 
 248:Drivers/STM32F4xx_HAL_Driver/Src/stm32f4xx_hal_i2s.c ****                                      SPI_I2SCFGR_I2SE | SPI_I2SCFGR_I2SMOD));
 249:Drivers/STM32F4xx_HAL_Driver/Src/stm32f4xx_hal_i2s.c ****   hi2s->Instance->I2SPR = 0x0002U;
 250:Drivers/STM32F4xx_HAL_Driver/Src/stm32f4xx_hal_i2s.c **** 
 251:Drivers/STM32F4xx_HAL_Driver/Src/stm32f4xx_hal_i2s.c ****   /* Get the I2SCFGR register value */
 252:Drivers/STM32F4xx_HAL_Driver/Src/stm32f4xx_hal_i2s.c ****   tmpreg = hi2s->Instance->I2SCFGR;
 253:Drivers/STM32F4xx_HAL_Driver/Src/stm32f4xx_hal_i2s.c **** 
 254:Drivers/STM32F4xx_HAL_Driver/Src/stm32f4xx_hal_i2s.c ****   /* If the default frequency value has to be written, reinitialize i2sdiv and i2sodd */
 255:Drivers/STM32F4xx_HAL_Driver/Src/stm32f4xx_hal_i2s.c ****   /* If the requested audio frequency is not the default, compute the prescaler */
 256:Drivers/STM32F4xx_HAL_Driver/Src/stm32f4xx_hal_i2s.c ****   if(hi2s->Init.AudioFreq != I2S_AUDIOFREQ_DEFAULT)
 257:Drivers/STM32F4xx_HAL_Driver/Src/stm32f4xx_hal_i2s.c ****   {
 258:Drivers/STM32F4xx_HAL_Driver/Src/stm32f4xx_hal_i2s.c ****     /* Check the frame length (For the Prescaler computing) *******************/
 259:Drivers/STM32F4xx_HAL_Driver/Src/stm32f4xx_hal_i2s.c ****     /* Set I2S Packet Length value*/
ARM GAS  /tmp/cceNxm2U.s 			page 6


 260:Drivers/STM32F4xx_HAL_Driver/Src/stm32f4xx_hal_i2s.c ****     if(hi2s->Init.DataFormat != I2S_DATAFORMAT_16B)
 261:Drivers/STM32F4xx_HAL_Driver/Src/stm32f4xx_hal_i2s.c ****     {
 262:Drivers/STM32F4xx_HAL_Driver/Src/stm32f4xx_hal_i2s.c ****       /* Packet length is 32 bits */
 263:Drivers/STM32F4xx_HAL_Driver/Src/stm32f4xx_hal_i2s.c ****       packetlength = 32U;
 264:Drivers/STM32F4xx_HAL_Driver/Src/stm32f4xx_hal_i2s.c ****     }
 265:Drivers/STM32F4xx_HAL_Driver/Src/stm32f4xx_hal_i2s.c ****     else
 266:Drivers/STM32F4xx_HAL_Driver/Src/stm32f4xx_hal_i2s.c ****     {
 267:Drivers/STM32F4xx_HAL_Driver/Src/stm32f4xx_hal_i2s.c ****       /* Packet length is 16 bits */
 268:Drivers/STM32F4xx_HAL_Driver/Src/stm32f4xx_hal_i2s.c ****       packetlength = 16U;
 269:Drivers/STM32F4xx_HAL_Driver/Src/stm32f4xx_hal_i2s.c ****     }
 270:Drivers/STM32F4xx_HAL_Driver/Src/stm32f4xx_hal_i2s.c **** 
 271:Drivers/STM32F4xx_HAL_Driver/Src/stm32f4xx_hal_i2s.c ****     /* I2S standard */
 272:Drivers/STM32F4xx_HAL_Driver/Src/stm32f4xx_hal_i2s.c ****     if(hi2s->Init.Standard <= I2S_STANDARD_LSB)
 273:Drivers/STM32F4xx_HAL_Driver/Src/stm32f4xx_hal_i2s.c ****     {
 274:Drivers/STM32F4xx_HAL_Driver/Src/stm32f4xx_hal_i2s.c ****       /* In I2S standard packet lenght is multiplied by 2 */
 275:Drivers/STM32F4xx_HAL_Driver/Src/stm32f4xx_hal_i2s.c ****       packetlength = packetlength * 2U;
 276:Drivers/STM32F4xx_HAL_Driver/Src/stm32f4xx_hal_i2s.c ****     }
 277:Drivers/STM32F4xx_HAL_Driver/Src/stm32f4xx_hal_i2s.c **** 
 278:Drivers/STM32F4xx_HAL_Driver/Src/stm32f4xx_hal_i2s.c ****     /* Get I2S source Clock frequency from RCC ********************************/
 279:Drivers/STM32F4xx_HAL_Driver/Src/stm32f4xx_hal_i2s.c **** #if defined(I2S_APB1_APB2_FEATURE)
 280:Drivers/STM32F4xx_HAL_Driver/Src/stm32f4xx_hal_i2s.c ****     if(IS_I2S_APB1_INSTANCE(hi2s->Instance))
 281:Drivers/STM32F4xx_HAL_Driver/Src/stm32f4xx_hal_i2s.c ****     {
 282:Drivers/STM32F4xx_HAL_Driver/Src/stm32f4xx_hal_i2s.c ****       i2sclk = HAL_RCCEx_GetPeriphCLKFreq(RCC_PERIPHCLK_I2S_APB1);
 283:Drivers/STM32F4xx_HAL_Driver/Src/stm32f4xx_hal_i2s.c ****     }
 284:Drivers/STM32F4xx_HAL_Driver/Src/stm32f4xx_hal_i2s.c ****     else
 285:Drivers/STM32F4xx_HAL_Driver/Src/stm32f4xx_hal_i2s.c ****     {
 286:Drivers/STM32F4xx_HAL_Driver/Src/stm32f4xx_hal_i2s.c ****       i2sclk = HAL_RCCEx_GetPeriphCLKFreq(RCC_PERIPHCLK_I2S_APB2);
 287:Drivers/STM32F4xx_HAL_Driver/Src/stm32f4xx_hal_i2s.c ****     }
 288:Drivers/STM32F4xx_HAL_Driver/Src/stm32f4xx_hal_i2s.c **** #else
 289:Drivers/STM32F4xx_HAL_Driver/Src/stm32f4xx_hal_i2s.c ****     i2sclk = HAL_RCCEx_GetPeriphCLKFreq(RCC_PERIPHCLK_I2S);
 290:Drivers/STM32F4xx_HAL_Driver/Src/stm32f4xx_hal_i2s.c **** #endif
 291:Drivers/STM32F4xx_HAL_Driver/Src/stm32f4xx_hal_i2s.c **** 
 292:Drivers/STM32F4xx_HAL_Driver/Src/stm32f4xx_hal_i2s.c ****     /* Compute the Real divider depending on the MCLK output state, with a floating point */
 293:Drivers/STM32F4xx_HAL_Driver/Src/stm32f4xx_hal_i2s.c ****     if(hi2s->Init.MCLKOutput == I2S_MCLKOUTPUT_ENABLE)
 294:Drivers/STM32F4xx_HAL_Driver/Src/stm32f4xx_hal_i2s.c ****     {
 295:Drivers/STM32F4xx_HAL_Driver/Src/stm32f4xx_hal_i2s.c ****       /* MCLK output is enabled */
 296:Drivers/STM32F4xx_HAL_Driver/Src/stm32f4xx_hal_i2s.c ****       if (hi2s->Init.DataFormat != I2S_DATAFORMAT_16B)
 297:Drivers/STM32F4xx_HAL_Driver/Src/stm32f4xx_hal_i2s.c ****       {
 298:Drivers/STM32F4xx_HAL_Driver/Src/stm32f4xx_hal_i2s.c ****         tmp = (uint32_t)(((((i2sclk / (packetlength*4)) * 10) / hi2s->Init.AudioFreq)) + 5);
 299:Drivers/STM32F4xx_HAL_Driver/Src/stm32f4xx_hal_i2s.c ****       }
 300:Drivers/STM32F4xx_HAL_Driver/Src/stm32f4xx_hal_i2s.c ****       else
 301:Drivers/STM32F4xx_HAL_Driver/Src/stm32f4xx_hal_i2s.c ****       {
 302:Drivers/STM32F4xx_HAL_Driver/Src/stm32f4xx_hal_i2s.c ****         tmp = (uint32_t)(((((i2sclk / (packetlength*8)) * 10) / hi2s->Init.AudioFreq)) + 5);
 303:Drivers/STM32F4xx_HAL_Driver/Src/stm32f4xx_hal_i2s.c ****       }
 304:Drivers/STM32F4xx_HAL_Driver/Src/stm32f4xx_hal_i2s.c ****     }
 305:Drivers/STM32F4xx_HAL_Driver/Src/stm32f4xx_hal_i2s.c ****     else
 306:Drivers/STM32F4xx_HAL_Driver/Src/stm32f4xx_hal_i2s.c ****     {
 307:Drivers/STM32F4xx_HAL_Driver/Src/stm32f4xx_hal_i2s.c ****       /* MCLK output is disabled */
 308:Drivers/STM32F4xx_HAL_Driver/Src/stm32f4xx_hal_i2s.c ****       tmp = (uint32_t)(((((i2sclk / packetlength) *10 ) / hi2s->Init.AudioFreq)) + 5);
 309:Drivers/STM32F4xx_HAL_Driver/Src/stm32f4xx_hal_i2s.c ****     }
 310:Drivers/STM32F4xx_HAL_Driver/Src/stm32f4xx_hal_i2s.c **** 
 311:Drivers/STM32F4xx_HAL_Driver/Src/stm32f4xx_hal_i2s.c ****     /* Remove the flatting point */
 312:Drivers/STM32F4xx_HAL_Driver/Src/stm32f4xx_hal_i2s.c ****     tmp = tmp / 10U;
 313:Drivers/STM32F4xx_HAL_Driver/Src/stm32f4xx_hal_i2s.c **** 
 314:Drivers/STM32F4xx_HAL_Driver/Src/stm32f4xx_hal_i2s.c ****     /* Check the parity of the divider */
 315:Drivers/STM32F4xx_HAL_Driver/Src/stm32f4xx_hal_i2s.c ****     i2sodd = (uint16_t)(tmp & (uint16_t)1U);
 316:Drivers/STM32F4xx_HAL_Driver/Src/stm32f4xx_hal_i2s.c **** 
ARM GAS  /tmp/cceNxm2U.s 			page 7


 317:Drivers/STM32F4xx_HAL_Driver/Src/stm32f4xx_hal_i2s.c ****     /* Compute the i2sdiv prescaler */
 318:Drivers/STM32F4xx_HAL_Driver/Src/stm32f4xx_hal_i2s.c ****     i2sdiv = (uint16_t)((tmp - i2sodd) / 2U);
 319:Drivers/STM32F4xx_HAL_Driver/Src/stm32f4xx_hal_i2s.c **** 
 320:Drivers/STM32F4xx_HAL_Driver/Src/stm32f4xx_hal_i2s.c ****     /* Get the Mask for the Odd bit (SPI_I2SPR[8]) register */
 321:Drivers/STM32F4xx_HAL_Driver/Src/stm32f4xx_hal_i2s.c ****     i2sodd = (uint32_t) (i2sodd << 8U);
 322:Drivers/STM32F4xx_HAL_Driver/Src/stm32f4xx_hal_i2s.c ****   }
 323:Drivers/STM32F4xx_HAL_Driver/Src/stm32f4xx_hal_i2s.c **** 
 324:Drivers/STM32F4xx_HAL_Driver/Src/stm32f4xx_hal_i2s.c ****   /* Test if the divider is 1 or 0 or greater than 0xFF */
 325:Drivers/STM32F4xx_HAL_Driver/Src/stm32f4xx_hal_i2s.c ****   if((i2sdiv < 2U) || (i2sdiv > 0xFFU))
 326:Drivers/STM32F4xx_HAL_Driver/Src/stm32f4xx_hal_i2s.c ****   {
 327:Drivers/STM32F4xx_HAL_Driver/Src/stm32f4xx_hal_i2s.c ****     /* Set the default values */
 328:Drivers/STM32F4xx_HAL_Driver/Src/stm32f4xx_hal_i2s.c ****     i2sdiv = 2U;
 329:Drivers/STM32F4xx_HAL_Driver/Src/stm32f4xx_hal_i2s.c ****     i2sodd = 0U;
 330:Drivers/STM32F4xx_HAL_Driver/Src/stm32f4xx_hal_i2s.c **** 
 331:Drivers/STM32F4xx_HAL_Driver/Src/stm32f4xx_hal_i2s.c ****     /* Set the error code and execute error callback*/
 332:Drivers/STM32F4xx_HAL_Driver/Src/stm32f4xx_hal_i2s.c ****     SET_BIT(hi2s->ErrorCode, HAL_I2S_ERROR_PRESCALER);
 333:Drivers/STM32F4xx_HAL_Driver/Src/stm32f4xx_hal_i2s.c ****     HAL_I2S_ErrorCallback(hi2s);
 334:Drivers/STM32F4xx_HAL_Driver/Src/stm32f4xx_hal_i2s.c ****     return  HAL_ERROR;
 335:Drivers/STM32F4xx_HAL_Driver/Src/stm32f4xx_hal_i2s.c ****   }
 336:Drivers/STM32F4xx_HAL_Driver/Src/stm32f4xx_hal_i2s.c **** 
 337:Drivers/STM32F4xx_HAL_Driver/Src/stm32f4xx_hal_i2s.c ****   /* Write to SPIx I2SPR register the computed value */
 338:Drivers/STM32F4xx_HAL_Driver/Src/stm32f4xx_hal_i2s.c ****   hi2s->Instance->I2SPR = (uint32_t)((uint32_t)i2sdiv | (uint32_t)(i2sodd | (uint32_t)hi2s->Init.MC
 339:Drivers/STM32F4xx_HAL_Driver/Src/stm32f4xx_hal_i2s.c **** 
 340:Drivers/STM32F4xx_HAL_Driver/Src/stm32f4xx_hal_i2s.c ****   /* Configure the I2S with the I2S_InitStruct values */
 341:Drivers/STM32F4xx_HAL_Driver/Src/stm32f4xx_hal_i2s.c ****   tmpreg |= (uint16_t)((uint16_t)SPI_I2SCFGR_I2SMOD | (uint16_t)(hi2s->Init.Mode | \
 342:Drivers/STM32F4xx_HAL_Driver/Src/stm32f4xx_hal_i2s.c ****                        (uint16_t)(hi2s->Init.Standard | (uint16_t)(hi2s->Init.DataFormat | \
 343:Drivers/STM32F4xx_HAL_Driver/Src/stm32f4xx_hal_i2s.c ****                        (uint16_t)hi2s->Init.CPOL))));
 344:Drivers/STM32F4xx_HAL_Driver/Src/stm32f4xx_hal_i2s.c **** 
 345:Drivers/STM32F4xx_HAL_Driver/Src/stm32f4xx_hal_i2s.c **** #if defined(SPI_I2SCFGR_ASTRTEN)
 346:Drivers/STM32F4xx_HAL_Driver/Src/stm32f4xx_hal_i2s.c ****   if ((hi2s->Init.Standard == I2S_STANDARD_PCM_SHORT) ||(hi2s->Init.Standard == I2S_STANDARD_PCM_LO
 347:Drivers/STM32F4xx_HAL_Driver/Src/stm32f4xx_hal_i2s.c ****   {
 348:Drivers/STM32F4xx_HAL_Driver/Src/stm32f4xx_hal_i2s.c ****   /* Write to SPIx I2SCFGR */
 349:Drivers/STM32F4xx_HAL_Driver/Src/stm32f4xx_hal_i2s.c ****     WRITE_REG(hi2s->Instance->I2SCFGR,(tmpreg | SPI_I2SCFGR_ASTRTEN));
 350:Drivers/STM32F4xx_HAL_Driver/Src/stm32f4xx_hal_i2s.c ****   }
 351:Drivers/STM32F4xx_HAL_Driver/Src/stm32f4xx_hal_i2s.c ****   else
 352:Drivers/STM32F4xx_HAL_Driver/Src/stm32f4xx_hal_i2s.c ****   {
 353:Drivers/STM32F4xx_HAL_Driver/Src/stm32f4xx_hal_i2s.c ****   /* Write to SPIx I2SCFGR */
 354:Drivers/STM32F4xx_HAL_Driver/Src/stm32f4xx_hal_i2s.c ****     WRITE_REG(hi2s->Instance->I2SCFGR,tmpreg);
 355:Drivers/STM32F4xx_HAL_Driver/Src/stm32f4xx_hal_i2s.c ****   }
 356:Drivers/STM32F4xx_HAL_Driver/Src/stm32f4xx_hal_i2s.c **** #else
 357:Drivers/STM32F4xx_HAL_Driver/Src/stm32f4xx_hal_i2s.c ****   /* Write to SPIx I2SCFGR */
 358:Drivers/STM32F4xx_HAL_Driver/Src/stm32f4xx_hal_i2s.c ****   WRITE_REG(hi2s->Instance->I2SCFGR, tmpreg);
 359:Drivers/STM32F4xx_HAL_Driver/Src/stm32f4xx_hal_i2s.c **** #endif
 360:Drivers/STM32F4xx_HAL_Driver/Src/stm32f4xx_hal_i2s.c **** 
 361:Drivers/STM32F4xx_HAL_Driver/Src/stm32f4xx_hal_i2s.c **** #if defined (SPI_I2S_FULLDUPLEX_SUPPORT)
 362:Drivers/STM32F4xx_HAL_Driver/Src/stm32f4xx_hal_i2s.c **** 
 363:Drivers/STM32F4xx_HAL_Driver/Src/stm32f4xx_hal_i2s.c ****   /* Configure the I2S extended if the full duplex mode is enabled */
 364:Drivers/STM32F4xx_HAL_Driver/Src/stm32f4xx_hal_i2s.c ****   assert_param(IS_I2S_FULLDUPLEX_MODE(hi2s->Init.FullDuplexMode));
 365:Drivers/STM32F4xx_HAL_Driver/Src/stm32f4xx_hal_i2s.c **** 
 366:Drivers/STM32F4xx_HAL_Driver/Src/stm32f4xx_hal_i2s.c ****   if(hi2s->Init.FullDuplexMode == I2S_FULLDUPLEXMODE_ENABLE)
 367:Drivers/STM32F4xx_HAL_Driver/Src/stm32f4xx_hal_i2s.c ****   {
 368:Drivers/STM32F4xx_HAL_Driver/Src/stm32f4xx_hal_i2s.c ****   	/* Set FullDuplex I2S IrqHandler ISR if FULLDUPLEXMODE is enabled */
 369:Drivers/STM32F4xx_HAL_Driver/Src/stm32f4xx_hal_i2s.c ****     hi2s->IrqHandlerISR = HAL_I2SEx_FullDuplex_IRQHandler;
 370:Drivers/STM32F4xx_HAL_Driver/Src/stm32f4xx_hal_i2s.c **** 
 371:Drivers/STM32F4xx_HAL_Driver/Src/stm32f4xx_hal_i2s.c ****     /* Clear I2SMOD, I2SE, I2SCFG, PCMSYNC, I2SSTD, CKPOL, DATLEN and CHLEN bits */
 372:Drivers/STM32F4xx_HAL_Driver/Src/stm32f4xx_hal_i2s.c ****     CLEAR_BIT(I2SxEXT(hi2s->Instance)->I2SCFGR,(SPI_I2SCFGR_CHLEN | SPI_I2SCFGR_DATLEN | SPI_I2SCFG
 373:Drivers/STM32F4xx_HAL_Driver/Src/stm32f4xx_hal_i2s.c ****                                                 SPI_I2SCFGR_I2SSTD | SPI_I2SCFGR_PCMSYNC | SPI_I2SC
ARM GAS  /tmp/cceNxm2U.s 			page 8


 374:Drivers/STM32F4xx_HAL_Driver/Src/stm32f4xx_hal_i2s.c ****                                                 SPI_I2SCFGR_I2SE | SPI_I2SCFGR_I2SMOD));
 375:Drivers/STM32F4xx_HAL_Driver/Src/stm32f4xx_hal_i2s.c ****     I2SxEXT(hi2s->Instance)->I2SPR = 2U;
 376:Drivers/STM32F4xx_HAL_Driver/Src/stm32f4xx_hal_i2s.c **** 
 377:Drivers/STM32F4xx_HAL_Driver/Src/stm32f4xx_hal_i2s.c ****     /* Get the I2SCFGR register value */
 378:Drivers/STM32F4xx_HAL_Driver/Src/stm32f4xx_hal_i2s.c ****     tmpreg = I2SxEXT(hi2s->Instance)->I2SCFGR;
 379:Drivers/STM32F4xx_HAL_Driver/Src/stm32f4xx_hal_i2s.c **** 
 380:Drivers/STM32F4xx_HAL_Driver/Src/stm32f4xx_hal_i2s.c ****     /* Get the mode to be configured for the extended I2S */
 381:Drivers/STM32F4xx_HAL_Driver/Src/stm32f4xx_hal_i2s.c ****     if((hi2s->Init.Mode == I2S_MODE_MASTER_TX) || (hi2s->Init.Mode == I2S_MODE_SLAVE_TX))
 382:Drivers/STM32F4xx_HAL_Driver/Src/stm32f4xx_hal_i2s.c ****     {
 383:Drivers/STM32F4xx_HAL_Driver/Src/stm32f4xx_hal_i2s.c ****       tmp = I2S_MODE_SLAVE_RX;
 384:Drivers/STM32F4xx_HAL_Driver/Src/stm32f4xx_hal_i2s.c ****     }
 385:Drivers/STM32F4xx_HAL_Driver/Src/stm32f4xx_hal_i2s.c ****     else /* I2S_MODE_MASTER_RX ||  I2S_MODE_SLAVE_RX */
 386:Drivers/STM32F4xx_HAL_Driver/Src/stm32f4xx_hal_i2s.c ****     {
 387:Drivers/STM32F4xx_HAL_Driver/Src/stm32f4xx_hal_i2s.c ****       tmp = I2S_MODE_SLAVE_TX;
 388:Drivers/STM32F4xx_HAL_Driver/Src/stm32f4xx_hal_i2s.c ****     }
 389:Drivers/STM32F4xx_HAL_Driver/Src/stm32f4xx_hal_i2s.c **** 
 390:Drivers/STM32F4xx_HAL_Driver/Src/stm32f4xx_hal_i2s.c ****     /* Configure the I2S Slave with the I2S Master parameter values */
 391:Drivers/STM32F4xx_HAL_Driver/Src/stm32f4xx_hal_i2s.c ****     tmpreg |= (uint16_t)((uint16_t)SPI_I2SCFGR_I2SMOD | (uint16_t)(tmp | \
 392:Drivers/STM32F4xx_HAL_Driver/Src/stm32f4xx_hal_i2s.c ****                          (uint16_t)(hi2s->Init.Standard | (uint16_t)(hi2s->Init.DataFormat | \
 393:Drivers/STM32F4xx_HAL_Driver/Src/stm32f4xx_hal_i2s.c ****                          (uint16_t)hi2s->Init.CPOL))));
 394:Drivers/STM32F4xx_HAL_Driver/Src/stm32f4xx_hal_i2s.c **** 
 395:Drivers/STM32F4xx_HAL_Driver/Src/stm32f4xx_hal_i2s.c ****     /* Write to SPIx I2SCFGR */
 396:Drivers/STM32F4xx_HAL_Driver/Src/stm32f4xx_hal_i2s.c ****     WRITE_REG(I2SxEXT(hi2s->Instance)->I2SCFGR,tmpreg);
 397:Drivers/STM32F4xx_HAL_Driver/Src/stm32f4xx_hal_i2s.c ****   }
 398:Drivers/STM32F4xx_HAL_Driver/Src/stm32f4xx_hal_i2s.c **** #endif /* SPI_I2S_FULLDUPLEX_SUPPORT */
 399:Drivers/STM32F4xx_HAL_Driver/Src/stm32f4xx_hal_i2s.c **** 
 400:Drivers/STM32F4xx_HAL_Driver/Src/stm32f4xx_hal_i2s.c ****   hi2s->ErrorCode = HAL_I2S_ERROR_NONE;
 401:Drivers/STM32F4xx_HAL_Driver/Src/stm32f4xx_hal_i2s.c ****   hi2s->State     = HAL_I2S_STATE_READY;
 402:Drivers/STM32F4xx_HAL_Driver/Src/stm32f4xx_hal_i2s.c **** 
 403:Drivers/STM32F4xx_HAL_Driver/Src/stm32f4xx_hal_i2s.c ****   return HAL_OK;
 404:Drivers/STM32F4xx_HAL_Driver/Src/stm32f4xx_hal_i2s.c **** }
 405:Drivers/STM32F4xx_HAL_Driver/Src/stm32f4xx_hal_i2s.c **** 
 406:Drivers/STM32F4xx_HAL_Driver/Src/stm32f4xx_hal_i2s.c **** /**
 407:Drivers/STM32F4xx_HAL_Driver/Src/stm32f4xx_hal_i2s.c ****   * @brief DeInitializes the I2S peripheral
 408:Drivers/STM32F4xx_HAL_Driver/Src/stm32f4xx_hal_i2s.c ****   * @param  hi2s pointer to a I2S_HandleTypeDef structure that contains
 409:Drivers/STM32F4xx_HAL_Driver/Src/stm32f4xx_hal_i2s.c ****   *         the configuration information for I2S module
 410:Drivers/STM32F4xx_HAL_Driver/Src/stm32f4xx_hal_i2s.c ****   * @retval HAL status
 411:Drivers/STM32F4xx_HAL_Driver/Src/stm32f4xx_hal_i2s.c ****   */
 412:Drivers/STM32F4xx_HAL_Driver/Src/stm32f4xx_hal_i2s.c **** HAL_StatusTypeDef HAL_I2S_DeInit(I2S_HandleTypeDef *hi2s)
 413:Drivers/STM32F4xx_HAL_Driver/Src/stm32f4xx_hal_i2s.c **** {
 414:Drivers/STM32F4xx_HAL_Driver/Src/stm32f4xx_hal_i2s.c ****   /* Check the I2S handle allocation */
 415:Drivers/STM32F4xx_HAL_Driver/Src/stm32f4xx_hal_i2s.c ****   if(hi2s == NULL)
 416:Drivers/STM32F4xx_HAL_Driver/Src/stm32f4xx_hal_i2s.c ****   {
 417:Drivers/STM32F4xx_HAL_Driver/Src/stm32f4xx_hal_i2s.c ****     return HAL_ERROR;
 418:Drivers/STM32F4xx_HAL_Driver/Src/stm32f4xx_hal_i2s.c ****   }
 419:Drivers/STM32F4xx_HAL_Driver/Src/stm32f4xx_hal_i2s.c **** 
 420:Drivers/STM32F4xx_HAL_Driver/Src/stm32f4xx_hal_i2s.c ****   hi2s->State = HAL_I2S_STATE_BUSY;
 421:Drivers/STM32F4xx_HAL_Driver/Src/stm32f4xx_hal_i2s.c **** 
 422:Drivers/STM32F4xx_HAL_Driver/Src/stm32f4xx_hal_i2s.c ****   /* DeInit the low level hardware: GPIO, CLOCK, NVIC... */
 423:Drivers/STM32F4xx_HAL_Driver/Src/stm32f4xx_hal_i2s.c ****   HAL_I2S_MspDeInit(hi2s);
 424:Drivers/STM32F4xx_HAL_Driver/Src/stm32f4xx_hal_i2s.c **** 
 425:Drivers/STM32F4xx_HAL_Driver/Src/stm32f4xx_hal_i2s.c ****   hi2s->ErrorCode = HAL_I2S_ERROR_NONE;
 426:Drivers/STM32F4xx_HAL_Driver/Src/stm32f4xx_hal_i2s.c ****   hi2s->State     = HAL_I2S_STATE_RESET;
 427:Drivers/STM32F4xx_HAL_Driver/Src/stm32f4xx_hal_i2s.c **** 
 428:Drivers/STM32F4xx_HAL_Driver/Src/stm32f4xx_hal_i2s.c ****   /* Release Lock */
 429:Drivers/STM32F4xx_HAL_Driver/Src/stm32f4xx_hal_i2s.c ****   __HAL_UNLOCK(hi2s);
 430:Drivers/STM32F4xx_HAL_Driver/Src/stm32f4xx_hal_i2s.c **** 
ARM GAS  /tmp/cceNxm2U.s 			page 9


 431:Drivers/STM32F4xx_HAL_Driver/Src/stm32f4xx_hal_i2s.c ****   return HAL_OK;
 432:Drivers/STM32F4xx_HAL_Driver/Src/stm32f4xx_hal_i2s.c **** }
 433:Drivers/STM32F4xx_HAL_Driver/Src/stm32f4xx_hal_i2s.c **** 
 434:Drivers/STM32F4xx_HAL_Driver/Src/stm32f4xx_hal_i2s.c **** /**
 435:Drivers/STM32F4xx_HAL_Driver/Src/stm32f4xx_hal_i2s.c ****   * @brief I2S MSP Init
 436:Drivers/STM32F4xx_HAL_Driver/Src/stm32f4xx_hal_i2s.c ****   * @param  hi2s pointer to a I2S_HandleTypeDef structure that contains
 437:Drivers/STM32F4xx_HAL_Driver/Src/stm32f4xx_hal_i2s.c ****   *         the configuration information for I2S module
 438:Drivers/STM32F4xx_HAL_Driver/Src/stm32f4xx_hal_i2s.c ****   * @retval None
 439:Drivers/STM32F4xx_HAL_Driver/Src/stm32f4xx_hal_i2s.c ****   */
 440:Drivers/STM32F4xx_HAL_Driver/Src/stm32f4xx_hal_i2s.c ****  __weak void HAL_I2S_MspInit(I2S_HandleTypeDef *hi2s)
 441:Drivers/STM32F4xx_HAL_Driver/Src/stm32f4xx_hal_i2s.c **** {
 442:Drivers/STM32F4xx_HAL_Driver/Src/stm32f4xx_hal_i2s.c ****   /* Prevent unused argument(s) compilation warning */
 443:Drivers/STM32F4xx_HAL_Driver/Src/stm32f4xx_hal_i2s.c ****   UNUSED(hi2s);
 444:Drivers/STM32F4xx_HAL_Driver/Src/stm32f4xx_hal_i2s.c ****   /* NOTE : This function Should not be modified, when the callback is needed,
 445:Drivers/STM32F4xx_HAL_Driver/Src/stm32f4xx_hal_i2s.c ****             the HAL_I2S_MspInit could be implemented in the user file
 446:Drivers/STM32F4xx_HAL_Driver/Src/stm32f4xx_hal_i2s.c ****    */
 447:Drivers/STM32F4xx_HAL_Driver/Src/stm32f4xx_hal_i2s.c **** }
 448:Drivers/STM32F4xx_HAL_Driver/Src/stm32f4xx_hal_i2s.c **** 
 449:Drivers/STM32F4xx_HAL_Driver/Src/stm32f4xx_hal_i2s.c **** /**
 450:Drivers/STM32F4xx_HAL_Driver/Src/stm32f4xx_hal_i2s.c ****   * @brief I2S MSP DeInit
 451:Drivers/STM32F4xx_HAL_Driver/Src/stm32f4xx_hal_i2s.c ****   * @param  hi2s pointer to a I2S_HandleTypeDef structure that contains
 452:Drivers/STM32F4xx_HAL_Driver/Src/stm32f4xx_hal_i2s.c ****   *         the configuration information for I2S module
 453:Drivers/STM32F4xx_HAL_Driver/Src/stm32f4xx_hal_i2s.c ****   * @retval None
 454:Drivers/STM32F4xx_HAL_Driver/Src/stm32f4xx_hal_i2s.c ****   */
 455:Drivers/STM32F4xx_HAL_Driver/Src/stm32f4xx_hal_i2s.c ****  __weak void HAL_I2S_MspDeInit(I2S_HandleTypeDef *hi2s)
 456:Drivers/STM32F4xx_HAL_Driver/Src/stm32f4xx_hal_i2s.c **** {
 457:Drivers/STM32F4xx_HAL_Driver/Src/stm32f4xx_hal_i2s.c ****   /* Prevent unused argument(s) compilation warning */
 458:Drivers/STM32F4xx_HAL_Driver/Src/stm32f4xx_hal_i2s.c ****   UNUSED(hi2s);
 459:Drivers/STM32F4xx_HAL_Driver/Src/stm32f4xx_hal_i2s.c ****   /* NOTE : This function Should not be modified, when the callback is needed,
 460:Drivers/STM32F4xx_HAL_Driver/Src/stm32f4xx_hal_i2s.c ****             the HAL_I2S_MspDeInit could be implemented in the user file
 461:Drivers/STM32F4xx_HAL_Driver/Src/stm32f4xx_hal_i2s.c ****    */
 462:Drivers/STM32F4xx_HAL_Driver/Src/stm32f4xx_hal_i2s.c **** }
 463:Drivers/STM32F4xx_HAL_Driver/Src/stm32f4xx_hal_i2s.c **** /**
 464:Drivers/STM32F4xx_HAL_Driver/Src/stm32f4xx_hal_i2s.c ****   * @}
 465:Drivers/STM32F4xx_HAL_Driver/Src/stm32f4xx_hal_i2s.c ****   */
 466:Drivers/STM32F4xx_HAL_Driver/Src/stm32f4xx_hal_i2s.c **** 
 467:Drivers/STM32F4xx_HAL_Driver/Src/stm32f4xx_hal_i2s.c **** /** @addtogroup I2S_Exported_Functions_Group2
 468:Drivers/STM32F4xx_HAL_Driver/Src/stm32f4xx_hal_i2s.c ****   *  @brief Data transfers functions
 469:Drivers/STM32F4xx_HAL_Driver/Src/stm32f4xx_hal_i2s.c ****   *
 470:Drivers/STM32F4xx_HAL_Driver/Src/stm32f4xx_hal_i2s.c **** @verbatim
 471:Drivers/STM32F4xx_HAL_Driver/Src/stm32f4xx_hal_i2s.c ****  ===============================================================================
 472:Drivers/STM32F4xx_HAL_Driver/Src/stm32f4xx_hal_i2s.c ****                       ##### IO operation functions #####
 473:Drivers/STM32F4xx_HAL_Driver/Src/stm32f4xx_hal_i2s.c ****  ===============================================================================
 474:Drivers/STM32F4xx_HAL_Driver/Src/stm32f4xx_hal_i2s.c ****     [..]
 475:Drivers/STM32F4xx_HAL_Driver/Src/stm32f4xx_hal_i2s.c ****     This subsection provides a set of functions allowing to manage the I2S data
 476:Drivers/STM32F4xx_HAL_Driver/Src/stm32f4xx_hal_i2s.c ****     transfers.
 477:Drivers/STM32F4xx_HAL_Driver/Src/stm32f4xx_hal_i2s.c **** 
 478:Drivers/STM32F4xx_HAL_Driver/Src/stm32f4xx_hal_i2s.c ****     (#) There are two modes of transfer:
 479:Drivers/STM32F4xx_HAL_Driver/Src/stm32f4xx_hal_i2s.c ****        (++) Blocking mode : The communication is performed in the polling mode.
 480:Drivers/STM32F4xx_HAL_Driver/Src/stm32f4xx_hal_i2s.c ****             The status of all data processing is returned by the same function
 481:Drivers/STM32F4xx_HAL_Driver/Src/stm32f4xx_hal_i2s.c ****             after finishing transfer.
 482:Drivers/STM32F4xx_HAL_Driver/Src/stm32f4xx_hal_i2s.c ****        (++) No-Blocking mode : The communication is performed using Interrupts
 483:Drivers/STM32F4xx_HAL_Driver/Src/stm32f4xx_hal_i2s.c ****             or DMA. These functions return the status of the transfer startup.
 484:Drivers/STM32F4xx_HAL_Driver/Src/stm32f4xx_hal_i2s.c ****             The end of the data processing will be indicated through the
 485:Drivers/STM32F4xx_HAL_Driver/Src/stm32f4xx_hal_i2s.c ****             dedicated I2S IRQ when using Interrupt mode or the DMA IRQ when
 486:Drivers/STM32F4xx_HAL_Driver/Src/stm32f4xx_hal_i2s.c ****             using DMA mode.
 487:Drivers/STM32F4xx_HAL_Driver/Src/stm32f4xx_hal_i2s.c **** 
ARM GAS  /tmp/cceNxm2U.s 			page 10


 488:Drivers/STM32F4xx_HAL_Driver/Src/stm32f4xx_hal_i2s.c ****     (#) Blocking mode functions are :
 489:Drivers/STM32F4xx_HAL_Driver/Src/stm32f4xx_hal_i2s.c ****         (++) HAL_I2S_Transmit()
 490:Drivers/STM32F4xx_HAL_Driver/Src/stm32f4xx_hal_i2s.c ****         (++) HAL_I2S_Receive()
 491:Drivers/STM32F4xx_HAL_Driver/Src/stm32f4xx_hal_i2s.c **** 
 492:Drivers/STM32F4xx_HAL_Driver/Src/stm32f4xx_hal_i2s.c ****     (#) No-Blocking mode functions with Interrupt are :
 493:Drivers/STM32F4xx_HAL_Driver/Src/stm32f4xx_hal_i2s.c ****         (++) HAL_I2S_Transmit_IT()
 494:Drivers/STM32F4xx_HAL_Driver/Src/stm32f4xx_hal_i2s.c ****         (++) HAL_I2S_Receive_IT()
 495:Drivers/STM32F4xx_HAL_Driver/Src/stm32f4xx_hal_i2s.c **** 
 496:Drivers/STM32F4xx_HAL_Driver/Src/stm32f4xx_hal_i2s.c ****     (#) No-Blocking mode functions with DMA are :
 497:Drivers/STM32F4xx_HAL_Driver/Src/stm32f4xx_hal_i2s.c ****         (++) HAL_I2S_Transmit_DMA()
 498:Drivers/STM32F4xx_HAL_Driver/Src/stm32f4xx_hal_i2s.c ****         (++) HAL_I2S_Receive_DMA()
 499:Drivers/STM32F4xx_HAL_Driver/Src/stm32f4xx_hal_i2s.c **** 
 500:Drivers/STM32F4xx_HAL_Driver/Src/stm32f4xx_hal_i2s.c ****     (#) A set of Transfer Complete Callbacks are provided in non Blocking mode:
 501:Drivers/STM32F4xx_HAL_Driver/Src/stm32f4xx_hal_i2s.c ****         (++) HAL_I2S_TxCpltCallback()
 502:Drivers/STM32F4xx_HAL_Driver/Src/stm32f4xx_hal_i2s.c ****         (++) HAL_I2S_RxCpltCallback()
 503:Drivers/STM32F4xx_HAL_Driver/Src/stm32f4xx_hal_i2s.c ****         (++) HAL_I2S_ErrorCallback()
 504:Drivers/STM32F4xx_HAL_Driver/Src/stm32f4xx_hal_i2s.c **** 
 505:Drivers/STM32F4xx_HAL_Driver/Src/stm32f4xx_hal_i2s.c **** @endverbatim
 506:Drivers/STM32F4xx_HAL_Driver/Src/stm32f4xx_hal_i2s.c ****   * @{
 507:Drivers/STM32F4xx_HAL_Driver/Src/stm32f4xx_hal_i2s.c ****   */
 508:Drivers/STM32F4xx_HAL_Driver/Src/stm32f4xx_hal_i2s.c **** 
 509:Drivers/STM32F4xx_HAL_Driver/Src/stm32f4xx_hal_i2s.c **** /**
 510:Drivers/STM32F4xx_HAL_Driver/Src/stm32f4xx_hal_i2s.c ****   * @brief Transmit an amount of data in blocking mode
 511:Drivers/STM32F4xx_HAL_Driver/Src/stm32f4xx_hal_i2s.c ****   * @param  hi2s pointer to a I2S_HandleTypeDef structure that contains
 512:Drivers/STM32F4xx_HAL_Driver/Src/stm32f4xx_hal_i2s.c ****   *         the configuration information for I2S module
 513:Drivers/STM32F4xx_HAL_Driver/Src/stm32f4xx_hal_i2s.c ****   * @param pData a 16-bit pointer to data buffer.
 514:Drivers/STM32F4xx_HAL_Driver/Src/stm32f4xx_hal_i2s.c ****   * @param Size number of data sample to be sent:
 515:Drivers/STM32F4xx_HAL_Driver/Src/stm32f4xx_hal_i2s.c ****   * @note When a 16-bit data frame or a 16-bit data frame extended is selected during the I2S
 516:Drivers/STM32F4xx_HAL_Driver/Src/stm32f4xx_hal_i2s.c ****   *       configuration phase, the Size parameter means the number of 16-bit data length
 517:Drivers/STM32F4xx_HAL_Driver/Src/stm32f4xx_hal_i2s.c ****   *       in the transaction and when a 24-bit data frame or a 32-bit data frame is selected
 518:Drivers/STM32F4xx_HAL_Driver/Src/stm32f4xx_hal_i2s.c ****   *       the Size parameter means the number of 16-bit data length.
 519:Drivers/STM32F4xx_HAL_Driver/Src/stm32f4xx_hal_i2s.c ****   * @param  Timeout Timeout duration
 520:Drivers/STM32F4xx_HAL_Driver/Src/stm32f4xx_hal_i2s.c ****   * @note The I2S is kept enabled at the end of transaction to avoid the clock de-synchronization
 521:Drivers/STM32F4xx_HAL_Driver/Src/stm32f4xx_hal_i2s.c ****   *       between Master and Slave(example: audio streaming).
 522:Drivers/STM32F4xx_HAL_Driver/Src/stm32f4xx_hal_i2s.c ****   * @retval HAL status
 523:Drivers/STM32F4xx_HAL_Driver/Src/stm32f4xx_hal_i2s.c ****   */
 524:Drivers/STM32F4xx_HAL_Driver/Src/stm32f4xx_hal_i2s.c **** HAL_StatusTypeDef HAL_I2S_Transmit(I2S_HandleTypeDef *hi2s, uint16_t *pData, uint16_t Size, uint32_
 525:Drivers/STM32F4xx_HAL_Driver/Src/stm32f4xx_hal_i2s.c **** {
 526:Drivers/STM32F4xx_HAL_Driver/Src/stm32f4xx_hal_i2s.c ****   uint32_t tmp1 = 0U;
 527:Drivers/STM32F4xx_HAL_Driver/Src/stm32f4xx_hal_i2s.c **** 
 528:Drivers/STM32F4xx_HAL_Driver/Src/stm32f4xx_hal_i2s.c ****   if((pData == NULL ) || (Size == 0U))
 529:Drivers/STM32F4xx_HAL_Driver/Src/stm32f4xx_hal_i2s.c ****   {
 530:Drivers/STM32F4xx_HAL_Driver/Src/stm32f4xx_hal_i2s.c ****     return  HAL_ERROR;
 531:Drivers/STM32F4xx_HAL_Driver/Src/stm32f4xx_hal_i2s.c ****   }
 532:Drivers/STM32F4xx_HAL_Driver/Src/stm32f4xx_hal_i2s.c **** 
 533:Drivers/STM32F4xx_HAL_Driver/Src/stm32f4xx_hal_i2s.c ****   if(hi2s->State == HAL_I2S_STATE_READY)
 534:Drivers/STM32F4xx_HAL_Driver/Src/stm32f4xx_hal_i2s.c ****   {
 535:Drivers/STM32F4xx_HAL_Driver/Src/stm32f4xx_hal_i2s.c ****     tmp1 = hi2s->Instance->I2SCFGR & (SPI_I2SCFGR_DATLEN | SPI_I2SCFGR_CHLEN);
 536:Drivers/STM32F4xx_HAL_Driver/Src/stm32f4xx_hal_i2s.c **** 
 537:Drivers/STM32F4xx_HAL_Driver/Src/stm32f4xx_hal_i2s.c ****     if((tmp1 == I2S_DATAFORMAT_24B) || (tmp1 == I2S_DATAFORMAT_32B))
 538:Drivers/STM32F4xx_HAL_Driver/Src/stm32f4xx_hal_i2s.c ****     {
 539:Drivers/STM32F4xx_HAL_Driver/Src/stm32f4xx_hal_i2s.c ****       hi2s->TxXferSize  = (Size << 1U);
 540:Drivers/STM32F4xx_HAL_Driver/Src/stm32f4xx_hal_i2s.c ****       hi2s->TxXferCount = (Size << 1U);
 541:Drivers/STM32F4xx_HAL_Driver/Src/stm32f4xx_hal_i2s.c ****     }
 542:Drivers/STM32F4xx_HAL_Driver/Src/stm32f4xx_hal_i2s.c ****     else
 543:Drivers/STM32F4xx_HAL_Driver/Src/stm32f4xx_hal_i2s.c ****     {
 544:Drivers/STM32F4xx_HAL_Driver/Src/stm32f4xx_hal_i2s.c ****       hi2s->TxXferSize  = Size;
ARM GAS  /tmp/cceNxm2U.s 			page 11


 545:Drivers/STM32F4xx_HAL_Driver/Src/stm32f4xx_hal_i2s.c ****       hi2s->TxXferCount = Size;
 546:Drivers/STM32F4xx_HAL_Driver/Src/stm32f4xx_hal_i2s.c ****     }
 547:Drivers/STM32F4xx_HAL_Driver/Src/stm32f4xx_hal_i2s.c **** 
 548:Drivers/STM32F4xx_HAL_Driver/Src/stm32f4xx_hal_i2s.c ****     /* Process Locked */
 549:Drivers/STM32F4xx_HAL_Driver/Src/stm32f4xx_hal_i2s.c ****     __HAL_LOCK(hi2s);
 550:Drivers/STM32F4xx_HAL_Driver/Src/stm32f4xx_hal_i2s.c **** 
 551:Drivers/STM32F4xx_HAL_Driver/Src/stm32f4xx_hal_i2s.c ****     hi2s->ErrorCode = HAL_I2S_ERROR_NONE;
 552:Drivers/STM32F4xx_HAL_Driver/Src/stm32f4xx_hal_i2s.c ****     hi2s->State     = HAL_I2S_STATE_BUSY_TX;
 553:Drivers/STM32F4xx_HAL_Driver/Src/stm32f4xx_hal_i2s.c **** 
 554:Drivers/STM32F4xx_HAL_Driver/Src/stm32f4xx_hal_i2s.c ****     /* Check if the I2S is already enabled */
 555:Drivers/STM32F4xx_HAL_Driver/Src/stm32f4xx_hal_i2s.c ****     if((hi2s->Instance->I2SCFGR &SPI_I2SCFGR_I2SE) != SPI_I2SCFGR_I2SE)
 556:Drivers/STM32F4xx_HAL_Driver/Src/stm32f4xx_hal_i2s.c ****     {
 557:Drivers/STM32F4xx_HAL_Driver/Src/stm32f4xx_hal_i2s.c ****       /* Enable I2S peripheral */
 558:Drivers/STM32F4xx_HAL_Driver/Src/stm32f4xx_hal_i2s.c ****       __HAL_I2S_ENABLE(hi2s);
 559:Drivers/STM32F4xx_HAL_Driver/Src/stm32f4xx_hal_i2s.c ****     }
 560:Drivers/STM32F4xx_HAL_Driver/Src/stm32f4xx_hal_i2s.c **** 
 561:Drivers/STM32F4xx_HAL_Driver/Src/stm32f4xx_hal_i2s.c ****     while(hi2s->TxXferCount > 0U)
 562:Drivers/STM32F4xx_HAL_Driver/Src/stm32f4xx_hal_i2s.c ****     {
 563:Drivers/STM32F4xx_HAL_Driver/Src/stm32f4xx_hal_i2s.c ****       hi2s->Instance->DR = (*pData++);
 564:Drivers/STM32F4xx_HAL_Driver/Src/stm32f4xx_hal_i2s.c ****       hi2s->TxXferCount--;
 565:Drivers/STM32F4xx_HAL_Driver/Src/stm32f4xx_hal_i2s.c **** 
 566:Drivers/STM32F4xx_HAL_Driver/Src/stm32f4xx_hal_i2s.c ****       /* Wait until TXE flag is set */
 567:Drivers/STM32F4xx_HAL_Driver/Src/stm32f4xx_hal_i2s.c ****       if (I2S_WaitFlagStateUntilTimeout(hi2s, I2S_FLAG_TXE, SET, Timeout) != HAL_OK)
 568:Drivers/STM32F4xx_HAL_Driver/Src/stm32f4xx_hal_i2s.c ****       {
 569:Drivers/STM32F4xx_HAL_Driver/Src/stm32f4xx_hal_i2s.c ****         /* Set the error code and execute error callback*/
 570:Drivers/STM32F4xx_HAL_Driver/Src/stm32f4xx_hal_i2s.c ****         SET_BIT(hi2s->ErrorCode, HAL_I2S_ERROR_TIMEOUT);
 571:Drivers/STM32F4xx_HAL_Driver/Src/stm32f4xx_hal_i2s.c ****         HAL_I2S_ErrorCallback(hi2s);
 572:Drivers/STM32F4xx_HAL_Driver/Src/stm32f4xx_hal_i2s.c ****         return HAL_TIMEOUT;
 573:Drivers/STM32F4xx_HAL_Driver/Src/stm32f4xx_hal_i2s.c ****       }
 574:Drivers/STM32F4xx_HAL_Driver/Src/stm32f4xx_hal_i2s.c **** 
 575:Drivers/STM32F4xx_HAL_Driver/Src/stm32f4xx_hal_i2s.c ****       /* Check if an underrun occurs */
 576:Drivers/STM32F4xx_HAL_Driver/Src/stm32f4xx_hal_i2s.c ****       if(__HAL_I2S_GET_FLAG(hi2s, I2S_FLAG_UDR) == SET)
 577:Drivers/STM32F4xx_HAL_Driver/Src/stm32f4xx_hal_i2s.c ****       {
 578:Drivers/STM32F4xx_HAL_Driver/Src/stm32f4xx_hal_i2s.c ****         /* Clear underrun flag */
 579:Drivers/STM32F4xx_HAL_Driver/Src/stm32f4xx_hal_i2s.c ****         __HAL_I2S_CLEAR_UDRFLAG(hi2s);
 580:Drivers/STM32F4xx_HAL_Driver/Src/stm32f4xx_hal_i2s.c ****         /* Set the I2S State ready */
 581:Drivers/STM32F4xx_HAL_Driver/Src/stm32f4xx_hal_i2s.c ****         hi2s->State = HAL_I2S_STATE_READY;
 582:Drivers/STM32F4xx_HAL_Driver/Src/stm32f4xx_hal_i2s.c **** 
 583:Drivers/STM32F4xx_HAL_Driver/Src/stm32f4xx_hal_i2s.c ****         /* Process Unlocked */
 584:Drivers/STM32F4xx_HAL_Driver/Src/stm32f4xx_hal_i2s.c ****         __HAL_UNLOCK(hi2s);
 585:Drivers/STM32F4xx_HAL_Driver/Src/stm32f4xx_hal_i2s.c **** 
 586:Drivers/STM32F4xx_HAL_Driver/Src/stm32f4xx_hal_i2s.c ****         /* Set the error code and execute error callback*/
 587:Drivers/STM32F4xx_HAL_Driver/Src/stm32f4xx_hal_i2s.c ****         SET_BIT(hi2s->ErrorCode, HAL_I2S_ERROR_UDR);
 588:Drivers/STM32F4xx_HAL_Driver/Src/stm32f4xx_hal_i2s.c ****         HAL_I2S_ErrorCallback(hi2s);
 589:Drivers/STM32F4xx_HAL_Driver/Src/stm32f4xx_hal_i2s.c **** 
 590:Drivers/STM32F4xx_HAL_Driver/Src/stm32f4xx_hal_i2s.c ****         return HAL_ERROR;
 591:Drivers/STM32F4xx_HAL_Driver/Src/stm32f4xx_hal_i2s.c ****       }
 592:Drivers/STM32F4xx_HAL_Driver/Src/stm32f4xx_hal_i2s.c ****     }
 593:Drivers/STM32F4xx_HAL_Driver/Src/stm32f4xx_hal_i2s.c ****     hi2s->State = HAL_I2S_STATE_READY;
 594:Drivers/STM32F4xx_HAL_Driver/Src/stm32f4xx_hal_i2s.c **** 
 595:Drivers/STM32F4xx_HAL_Driver/Src/stm32f4xx_hal_i2s.c ****     /* Process Unlocked */
 596:Drivers/STM32F4xx_HAL_Driver/Src/stm32f4xx_hal_i2s.c ****     __HAL_UNLOCK(hi2s);
 597:Drivers/STM32F4xx_HAL_Driver/Src/stm32f4xx_hal_i2s.c **** 
 598:Drivers/STM32F4xx_HAL_Driver/Src/stm32f4xx_hal_i2s.c ****     return HAL_OK;
 599:Drivers/STM32F4xx_HAL_Driver/Src/stm32f4xx_hal_i2s.c ****   }
 600:Drivers/STM32F4xx_HAL_Driver/Src/stm32f4xx_hal_i2s.c ****   else
 601:Drivers/STM32F4xx_HAL_Driver/Src/stm32f4xx_hal_i2s.c ****   {
ARM GAS  /tmp/cceNxm2U.s 			page 12


 602:Drivers/STM32F4xx_HAL_Driver/Src/stm32f4xx_hal_i2s.c ****     return HAL_BUSY;
 603:Drivers/STM32F4xx_HAL_Driver/Src/stm32f4xx_hal_i2s.c ****   }
 604:Drivers/STM32F4xx_HAL_Driver/Src/stm32f4xx_hal_i2s.c **** }
 605:Drivers/STM32F4xx_HAL_Driver/Src/stm32f4xx_hal_i2s.c **** 
 606:Drivers/STM32F4xx_HAL_Driver/Src/stm32f4xx_hal_i2s.c **** /**
 607:Drivers/STM32F4xx_HAL_Driver/Src/stm32f4xx_hal_i2s.c ****   * @brief Receive an amount of data in blocking mode
 608:Drivers/STM32F4xx_HAL_Driver/Src/stm32f4xx_hal_i2s.c ****   * @param  hi2s pointer to a I2S_HandleTypeDef structure that contains
 609:Drivers/STM32F4xx_HAL_Driver/Src/stm32f4xx_hal_i2s.c ****   *         the configuration information for I2S module
 610:Drivers/STM32F4xx_HAL_Driver/Src/stm32f4xx_hal_i2s.c ****   * @param pData a 16-bit pointer to data buffer
 611:Drivers/STM32F4xx_HAL_Driver/Src/stm32f4xx_hal_i2s.c ****   * @param Size number of data sample to be sent:
 612:Drivers/STM32F4xx_HAL_Driver/Src/stm32f4xx_hal_i2s.c ****   * @note When a 16-bit data frame or a 16-bit data frame extended is selected during the I2S
 613:Drivers/STM32F4xx_HAL_Driver/Src/stm32f4xx_hal_i2s.c ****   *       configuration phase, the Size parameter means the number of 16-bit data length
 614:Drivers/STM32F4xx_HAL_Driver/Src/stm32f4xx_hal_i2s.c ****   *       in the transaction and when a 24-bit data frame or a 32-bit data frame is selected
 615:Drivers/STM32F4xx_HAL_Driver/Src/stm32f4xx_hal_i2s.c ****   *       the Size parameter means the number of 16-bit data length.
 616:Drivers/STM32F4xx_HAL_Driver/Src/stm32f4xx_hal_i2s.c ****   * @param Timeout Timeout duration
 617:Drivers/STM32F4xx_HAL_Driver/Src/stm32f4xx_hal_i2s.c ****   * @note The I2S is kept enabled at the end of transaction to avoid the clock de-synchronization
 618:Drivers/STM32F4xx_HAL_Driver/Src/stm32f4xx_hal_i2s.c ****   *       between Master and Slave(example: audio streaming)
 619:Drivers/STM32F4xx_HAL_Driver/Src/stm32f4xx_hal_i2s.c ****   * @note In I2S Master Receiver mode, just after enabling the peripheral the clock will be generat
 620:Drivers/STM32F4xx_HAL_Driver/Src/stm32f4xx_hal_i2s.c ****   *       in continuous way and as the I2S is not disabled at the end of the I2S transaction
 621:Drivers/STM32F4xx_HAL_Driver/Src/stm32f4xx_hal_i2s.c ****   * @retval HAL status
 622:Drivers/STM32F4xx_HAL_Driver/Src/stm32f4xx_hal_i2s.c ****   */
 623:Drivers/STM32F4xx_HAL_Driver/Src/stm32f4xx_hal_i2s.c **** HAL_StatusTypeDef HAL_I2S_Receive(I2S_HandleTypeDef *hi2s, uint16_t *pData, uint16_t Size, uint32_t
 624:Drivers/STM32F4xx_HAL_Driver/Src/stm32f4xx_hal_i2s.c **** {
 625:Drivers/STM32F4xx_HAL_Driver/Src/stm32f4xx_hal_i2s.c ****   uint32_t tmp1 = 0U;
 626:Drivers/STM32F4xx_HAL_Driver/Src/stm32f4xx_hal_i2s.c **** 
 627:Drivers/STM32F4xx_HAL_Driver/Src/stm32f4xx_hal_i2s.c ****   if((pData == NULL ) || (Size == 0U))
 628:Drivers/STM32F4xx_HAL_Driver/Src/stm32f4xx_hal_i2s.c ****   {
 629:Drivers/STM32F4xx_HAL_Driver/Src/stm32f4xx_hal_i2s.c ****     return  HAL_ERROR;
 630:Drivers/STM32F4xx_HAL_Driver/Src/stm32f4xx_hal_i2s.c ****   }
 631:Drivers/STM32F4xx_HAL_Driver/Src/stm32f4xx_hal_i2s.c **** 
 632:Drivers/STM32F4xx_HAL_Driver/Src/stm32f4xx_hal_i2s.c ****   if(hi2s->State == HAL_I2S_STATE_READY)
 633:Drivers/STM32F4xx_HAL_Driver/Src/stm32f4xx_hal_i2s.c ****   {
 634:Drivers/STM32F4xx_HAL_Driver/Src/stm32f4xx_hal_i2s.c ****     tmp1 = hi2s->Instance->I2SCFGR & (SPI_I2SCFGR_DATLEN | SPI_I2SCFGR_CHLEN);
 635:Drivers/STM32F4xx_HAL_Driver/Src/stm32f4xx_hal_i2s.c ****     if((tmp1 == I2S_DATAFORMAT_24B) || (tmp1 == I2S_DATAFORMAT_32B))
 636:Drivers/STM32F4xx_HAL_Driver/Src/stm32f4xx_hal_i2s.c ****     {
 637:Drivers/STM32F4xx_HAL_Driver/Src/stm32f4xx_hal_i2s.c ****       hi2s->RxXferSize  = (Size << 1U);
 638:Drivers/STM32F4xx_HAL_Driver/Src/stm32f4xx_hal_i2s.c ****       hi2s->RxXferCount = (Size << 1U);
 639:Drivers/STM32F4xx_HAL_Driver/Src/stm32f4xx_hal_i2s.c ****     }
 640:Drivers/STM32F4xx_HAL_Driver/Src/stm32f4xx_hal_i2s.c ****     else
 641:Drivers/STM32F4xx_HAL_Driver/Src/stm32f4xx_hal_i2s.c ****     {
 642:Drivers/STM32F4xx_HAL_Driver/Src/stm32f4xx_hal_i2s.c ****       hi2s->RxXferSize  = Size;
 643:Drivers/STM32F4xx_HAL_Driver/Src/stm32f4xx_hal_i2s.c ****       hi2s->RxXferCount = Size;
 644:Drivers/STM32F4xx_HAL_Driver/Src/stm32f4xx_hal_i2s.c ****     }
 645:Drivers/STM32F4xx_HAL_Driver/Src/stm32f4xx_hal_i2s.c ****     /* Process Locked */
 646:Drivers/STM32F4xx_HAL_Driver/Src/stm32f4xx_hal_i2s.c ****     __HAL_LOCK(hi2s);
 647:Drivers/STM32F4xx_HAL_Driver/Src/stm32f4xx_hal_i2s.c **** 
 648:Drivers/STM32F4xx_HAL_Driver/Src/stm32f4xx_hal_i2s.c ****     hi2s->ErrorCode = HAL_I2S_ERROR_NONE;
 649:Drivers/STM32F4xx_HAL_Driver/Src/stm32f4xx_hal_i2s.c ****     hi2s->State     = HAL_I2S_STATE_BUSY_RX;
 650:Drivers/STM32F4xx_HAL_Driver/Src/stm32f4xx_hal_i2s.c **** 
 651:Drivers/STM32F4xx_HAL_Driver/Src/stm32f4xx_hal_i2s.c ****     /* Check if the I2S is already enabled */
 652:Drivers/STM32F4xx_HAL_Driver/Src/stm32f4xx_hal_i2s.c ****     if((hi2s->Instance->I2SCFGR & SPI_I2SCFGR_I2SE) != SPI_I2SCFGR_I2SE)
 653:Drivers/STM32F4xx_HAL_Driver/Src/stm32f4xx_hal_i2s.c ****     {
 654:Drivers/STM32F4xx_HAL_Driver/Src/stm32f4xx_hal_i2s.c ****       /* Enable I2S peripheral */
 655:Drivers/STM32F4xx_HAL_Driver/Src/stm32f4xx_hal_i2s.c ****       __HAL_I2S_ENABLE(hi2s);
 656:Drivers/STM32F4xx_HAL_Driver/Src/stm32f4xx_hal_i2s.c ****     }
 657:Drivers/STM32F4xx_HAL_Driver/Src/stm32f4xx_hal_i2s.c **** 
 658:Drivers/STM32F4xx_HAL_Driver/Src/stm32f4xx_hal_i2s.c ****     /* Check if Master Receiver mode is selected */
ARM GAS  /tmp/cceNxm2U.s 			page 13


 659:Drivers/STM32F4xx_HAL_Driver/Src/stm32f4xx_hal_i2s.c ****     if((hi2s->Instance->I2SCFGR & SPI_I2SCFGR_I2SCFG) == I2S_MODE_MASTER_RX)
 660:Drivers/STM32F4xx_HAL_Driver/Src/stm32f4xx_hal_i2s.c ****     {
 661:Drivers/STM32F4xx_HAL_Driver/Src/stm32f4xx_hal_i2s.c ****       /* Clear the Overrun Flag by a read operation on the SPI_DR register followed by a read
 662:Drivers/STM32F4xx_HAL_Driver/Src/stm32f4xx_hal_i2s.c ****       access to the SPI_SR register. */
 663:Drivers/STM32F4xx_HAL_Driver/Src/stm32f4xx_hal_i2s.c ****       __HAL_I2S_CLEAR_OVRFLAG(hi2s);
 664:Drivers/STM32F4xx_HAL_Driver/Src/stm32f4xx_hal_i2s.c ****     }
 665:Drivers/STM32F4xx_HAL_Driver/Src/stm32f4xx_hal_i2s.c **** 
 666:Drivers/STM32F4xx_HAL_Driver/Src/stm32f4xx_hal_i2s.c ****     /* Receive data */
 667:Drivers/STM32F4xx_HAL_Driver/Src/stm32f4xx_hal_i2s.c ****     while(hi2s->RxXferCount > 0U)
 668:Drivers/STM32F4xx_HAL_Driver/Src/stm32f4xx_hal_i2s.c ****     {
 669:Drivers/STM32F4xx_HAL_Driver/Src/stm32f4xx_hal_i2s.c ****       /* Wait until RXNE flag is set */
 670:Drivers/STM32F4xx_HAL_Driver/Src/stm32f4xx_hal_i2s.c ****       if (I2S_WaitFlagStateUntilTimeout(hi2s, I2S_FLAG_RXNE, SET, Timeout) != HAL_OK)
 671:Drivers/STM32F4xx_HAL_Driver/Src/stm32f4xx_hal_i2s.c ****       {
 672:Drivers/STM32F4xx_HAL_Driver/Src/stm32f4xx_hal_i2s.c ****         /* Set the error code and execute error callback*/
 673:Drivers/STM32F4xx_HAL_Driver/Src/stm32f4xx_hal_i2s.c ****         SET_BIT(hi2s->ErrorCode,HAL_I2S_ERROR_TIMEOUT);
 674:Drivers/STM32F4xx_HAL_Driver/Src/stm32f4xx_hal_i2s.c ****         HAL_I2S_ErrorCallback(hi2s);
 675:Drivers/STM32F4xx_HAL_Driver/Src/stm32f4xx_hal_i2s.c ****         return HAL_TIMEOUT;
 676:Drivers/STM32F4xx_HAL_Driver/Src/stm32f4xx_hal_i2s.c ****       }
 677:Drivers/STM32F4xx_HAL_Driver/Src/stm32f4xx_hal_i2s.c **** 
 678:Drivers/STM32F4xx_HAL_Driver/Src/stm32f4xx_hal_i2s.c ****       /* Check if an overrun occurs */
 679:Drivers/STM32F4xx_HAL_Driver/Src/stm32f4xx_hal_i2s.c ****       if(__HAL_I2S_GET_FLAG(hi2s, I2S_FLAG_OVR) == SET)
 680:Drivers/STM32F4xx_HAL_Driver/Src/stm32f4xx_hal_i2s.c ****       {
 681:Drivers/STM32F4xx_HAL_Driver/Src/stm32f4xx_hal_i2s.c ****         /* Clear overrun flag */
 682:Drivers/STM32F4xx_HAL_Driver/Src/stm32f4xx_hal_i2s.c ****         __HAL_I2S_CLEAR_OVRFLAG(hi2s);
 683:Drivers/STM32F4xx_HAL_Driver/Src/stm32f4xx_hal_i2s.c **** 
 684:Drivers/STM32F4xx_HAL_Driver/Src/stm32f4xx_hal_i2s.c ****         /* Set the I2S State ready */
 685:Drivers/STM32F4xx_HAL_Driver/Src/stm32f4xx_hal_i2s.c ****         hi2s->State = HAL_I2S_STATE_READY;
 686:Drivers/STM32F4xx_HAL_Driver/Src/stm32f4xx_hal_i2s.c **** 
 687:Drivers/STM32F4xx_HAL_Driver/Src/stm32f4xx_hal_i2s.c ****         /* Process Unlocked */
 688:Drivers/STM32F4xx_HAL_Driver/Src/stm32f4xx_hal_i2s.c ****         __HAL_UNLOCK(hi2s);
 689:Drivers/STM32F4xx_HAL_Driver/Src/stm32f4xx_hal_i2s.c **** 
 690:Drivers/STM32F4xx_HAL_Driver/Src/stm32f4xx_hal_i2s.c ****         /* Set the error code and execute error callback*/
 691:Drivers/STM32F4xx_HAL_Driver/Src/stm32f4xx_hal_i2s.c ****         SET_BIT(hi2s->ErrorCode, HAL_I2S_ERROR_OVR);
 692:Drivers/STM32F4xx_HAL_Driver/Src/stm32f4xx_hal_i2s.c ****         HAL_I2S_ErrorCallback(hi2s);
 693:Drivers/STM32F4xx_HAL_Driver/Src/stm32f4xx_hal_i2s.c **** 
 694:Drivers/STM32F4xx_HAL_Driver/Src/stm32f4xx_hal_i2s.c ****         return HAL_ERROR;
 695:Drivers/STM32F4xx_HAL_Driver/Src/stm32f4xx_hal_i2s.c ****       }
 696:Drivers/STM32F4xx_HAL_Driver/Src/stm32f4xx_hal_i2s.c **** 
 697:Drivers/STM32F4xx_HAL_Driver/Src/stm32f4xx_hal_i2s.c ****       (*pData++) = hi2s->Instance->DR;
 698:Drivers/STM32F4xx_HAL_Driver/Src/stm32f4xx_hal_i2s.c ****       hi2s->RxXferCount--;
 699:Drivers/STM32F4xx_HAL_Driver/Src/stm32f4xx_hal_i2s.c ****     }
 700:Drivers/STM32F4xx_HAL_Driver/Src/stm32f4xx_hal_i2s.c **** 
 701:Drivers/STM32F4xx_HAL_Driver/Src/stm32f4xx_hal_i2s.c ****     hi2s->State = HAL_I2S_STATE_READY;
 702:Drivers/STM32F4xx_HAL_Driver/Src/stm32f4xx_hal_i2s.c **** 
 703:Drivers/STM32F4xx_HAL_Driver/Src/stm32f4xx_hal_i2s.c ****     /* Process Unlocked */
 704:Drivers/STM32F4xx_HAL_Driver/Src/stm32f4xx_hal_i2s.c ****     __HAL_UNLOCK(hi2s);
 705:Drivers/STM32F4xx_HAL_Driver/Src/stm32f4xx_hal_i2s.c **** 
 706:Drivers/STM32F4xx_HAL_Driver/Src/stm32f4xx_hal_i2s.c ****     return HAL_OK;
 707:Drivers/STM32F4xx_HAL_Driver/Src/stm32f4xx_hal_i2s.c ****   }
 708:Drivers/STM32F4xx_HAL_Driver/Src/stm32f4xx_hal_i2s.c ****   else
 709:Drivers/STM32F4xx_HAL_Driver/Src/stm32f4xx_hal_i2s.c ****   {
 710:Drivers/STM32F4xx_HAL_Driver/Src/stm32f4xx_hal_i2s.c ****     return HAL_BUSY;
 711:Drivers/STM32F4xx_HAL_Driver/Src/stm32f4xx_hal_i2s.c ****   }
 712:Drivers/STM32F4xx_HAL_Driver/Src/stm32f4xx_hal_i2s.c **** }
 713:Drivers/STM32F4xx_HAL_Driver/Src/stm32f4xx_hal_i2s.c **** 
 714:Drivers/STM32F4xx_HAL_Driver/Src/stm32f4xx_hal_i2s.c **** /**
 715:Drivers/STM32F4xx_HAL_Driver/Src/stm32f4xx_hal_i2s.c ****   * @brief Transmit an amount of data in non-blocking mode with Interrupt
ARM GAS  /tmp/cceNxm2U.s 			page 14


 716:Drivers/STM32F4xx_HAL_Driver/Src/stm32f4xx_hal_i2s.c ****   * @param  hi2s pointer to a I2S_HandleTypeDef structure that contains
 717:Drivers/STM32F4xx_HAL_Driver/Src/stm32f4xx_hal_i2s.c ****   *         the configuration information for I2S module
 718:Drivers/STM32F4xx_HAL_Driver/Src/stm32f4xx_hal_i2s.c ****   * @param pData a 16-bit pointer to data buffer.
 719:Drivers/STM32F4xx_HAL_Driver/Src/stm32f4xx_hal_i2s.c ****   * @param Size number of data sample to be sent:
 720:Drivers/STM32F4xx_HAL_Driver/Src/stm32f4xx_hal_i2s.c ****   * @note When a 16-bit data frame or a 16-bit data frame extended is selected during the I2S
 721:Drivers/STM32F4xx_HAL_Driver/Src/stm32f4xx_hal_i2s.c ****   *       configuration phase, the Size parameter means the number of 16-bit data length
 722:Drivers/STM32F4xx_HAL_Driver/Src/stm32f4xx_hal_i2s.c ****   *       in the transaction and when a 24-bit data frame or a 32-bit data frame is selected
 723:Drivers/STM32F4xx_HAL_Driver/Src/stm32f4xx_hal_i2s.c ****   *       the Size parameter means the number of 16-bit data length.
 724:Drivers/STM32F4xx_HAL_Driver/Src/stm32f4xx_hal_i2s.c ****   * @note The I2S is kept enabled at the end of transaction to avoid the clock de-synchronization
 725:Drivers/STM32F4xx_HAL_Driver/Src/stm32f4xx_hal_i2s.c ****   *       between Master and Slave(example: audio streaming).
 726:Drivers/STM32F4xx_HAL_Driver/Src/stm32f4xx_hal_i2s.c ****   * @retval HAL status
 727:Drivers/STM32F4xx_HAL_Driver/Src/stm32f4xx_hal_i2s.c ****   */
 728:Drivers/STM32F4xx_HAL_Driver/Src/stm32f4xx_hal_i2s.c **** HAL_StatusTypeDef HAL_I2S_Transmit_IT(I2S_HandleTypeDef *hi2s, uint16_t *pData, uint16_t Size)
 729:Drivers/STM32F4xx_HAL_Driver/Src/stm32f4xx_hal_i2s.c **** {
 730:Drivers/STM32F4xx_HAL_Driver/Src/stm32f4xx_hal_i2s.c ****   uint32_t tmp1 = 0U;
 731:Drivers/STM32F4xx_HAL_Driver/Src/stm32f4xx_hal_i2s.c **** 
 732:Drivers/STM32F4xx_HAL_Driver/Src/stm32f4xx_hal_i2s.c ****   if(hi2s->State == HAL_I2S_STATE_READY)
 733:Drivers/STM32F4xx_HAL_Driver/Src/stm32f4xx_hal_i2s.c ****   {
 734:Drivers/STM32F4xx_HAL_Driver/Src/stm32f4xx_hal_i2s.c ****     if((pData == NULL) || (Size == 0U))
 735:Drivers/STM32F4xx_HAL_Driver/Src/stm32f4xx_hal_i2s.c ****     {
 736:Drivers/STM32F4xx_HAL_Driver/Src/stm32f4xx_hal_i2s.c ****       return  HAL_ERROR;
 737:Drivers/STM32F4xx_HAL_Driver/Src/stm32f4xx_hal_i2s.c ****     }
 738:Drivers/STM32F4xx_HAL_Driver/Src/stm32f4xx_hal_i2s.c **** 
 739:Drivers/STM32F4xx_HAL_Driver/Src/stm32f4xx_hal_i2s.c ****     hi2s->pTxBuffPtr = pData;
 740:Drivers/STM32F4xx_HAL_Driver/Src/stm32f4xx_hal_i2s.c ****     tmp1 = hi2s->Instance->I2SCFGR & (SPI_I2SCFGR_DATLEN | SPI_I2SCFGR_CHLEN);
 741:Drivers/STM32F4xx_HAL_Driver/Src/stm32f4xx_hal_i2s.c ****     if((tmp1 == I2S_DATAFORMAT_24B) || (tmp1 == I2S_DATAFORMAT_32B))
 742:Drivers/STM32F4xx_HAL_Driver/Src/stm32f4xx_hal_i2s.c ****     {
 743:Drivers/STM32F4xx_HAL_Driver/Src/stm32f4xx_hal_i2s.c ****       hi2s->TxXferSize  = (Size << 1U);
 744:Drivers/STM32F4xx_HAL_Driver/Src/stm32f4xx_hal_i2s.c ****       hi2s->TxXferCount = (Size << 1U);
 745:Drivers/STM32F4xx_HAL_Driver/Src/stm32f4xx_hal_i2s.c ****     }
 746:Drivers/STM32F4xx_HAL_Driver/Src/stm32f4xx_hal_i2s.c ****     else
 747:Drivers/STM32F4xx_HAL_Driver/Src/stm32f4xx_hal_i2s.c ****     {
 748:Drivers/STM32F4xx_HAL_Driver/Src/stm32f4xx_hal_i2s.c ****       hi2s->TxXferSize  = Size;
 749:Drivers/STM32F4xx_HAL_Driver/Src/stm32f4xx_hal_i2s.c ****       hi2s->TxXferCount = Size;
 750:Drivers/STM32F4xx_HAL_Driver/Src/stm32f4xx_hal_i2s.c ****     }
 751:Drivers/STM32F4xx_HAL_Driver/Src/stm32f4xx_hal_i2s.c **** 
 752:Drivers/STM32F4xx_HAL_Driver/Src/stm32f4xx_hal_i2s.c ****     /* Process Locked */
 753:Drivers/STM32F4xx_HAL_Driver/Src/stm32f4xx_hal_i2s.c ****     __HAL_LOCK(hi2s);
 754:Drivers/STM32F4xx_HAL_Driver/Src/stm32f4xx_hal_i2s.c **** 
 755:Drivers/STM32F4xx_HAL_Driver/Src/stm32f4xx_hal_i2s.c ****     hi2s->State     = HAL_I2S_STATE_BUSY_TX;
 756:Drivers/STM32F4xx_HAL_Driver/Src/stm32f4xx_hal_i2s.c ****     hi2s->ErrorCode = HAL_I2S_ERROR_NONE;
 757:Drivers/STM32F4xx_HAL_Driver/Src/stm32f4xx_hal_i2s.c **** 
 758:Drivers/STM32F4xx_HAL_Driver/Src/stm32f4xx_hal_i2s.c ****     /* Enable TXE and ERR interrupt */
 759:Drivers/STM32F4xx_HAL_Driver/Src/stm32f4xx_hal_i2s.c ****     __HAL_I2S_ENABLE_IT(hi2s, (I2S_IT_TXE | I2S_IT_ERR));
 760:Drivers/STM32F4xx_HAL_Driver/Src/stm32f4xx_hal_i2s.c **** 
 761:Drivers/STM32F4xx_HAL_Driver/Src/stm32f4xx_hal_i2s.c ****     /* Check if the I2S is already enabled */
 762:Drivers/STM32F4xx_HAL_Driver/Src/stm32f4xx_hal_i2s.c ****     if((hi2s->Instance->I2SCFGR &SPI_I2SCFGR_I2SE) != SPI_I2SCFGR_I2SE)
 763:Drivers/STM32F4xx_HAL_Driver/Src/stm32f4xx_hal_i2s.c ****     {
 764:Drivers/STM32F4xx_HAL_Driver/Src/stm32f4xx_hal_i2s.c ****       /* Enable I2S peripheral */
 765:Drivers/STM32F4xx_HAL_Driver/Src/stm32f4xx_hal_i2s.c ****       __HAL_I2S_ENABLE(hi2s);
 766:Drivers/STM32F4xx_HAL_Driver/Src/stm32f4xx_hal_i2s.c ****     }
 767:Drivers/STM32F4xx_HAL_Driver/Src/stm32f4xx_hal_i2s.c **** 
 768:Drivers/STM32F4xx_HAL_Driver/Src/stm32f4xx_hal_i2s.c ****     /* Process Unlocked */
 769:Drivers/STM32F4xx_HAL_Driver/Src/stm32f4xx_hal_i2s.c ****     __HAL_UNLOCK(hi2s);
 770:Drivers/STM32F4xx_HAL_Driver/Src/stm32f4xx_hal_i2s.c **** 
 771:Drivers/STM32F4xx_HAL_Driver/Src/stm32f4xx_hal_i2s.c ****     return HAL_OK;
 772:Drivers/STM32F4xx_HAL_Driver/Src/stm32f4xx_hal_i2s.c ****   }
ARM GAS  /tmp/cceNxm2U.s 			page 15


 773:Drivers/STM32F4xx_HAL_Driver/Src/stm32f4xx_hal_i2s.c ****   else
 774:Drivers/STM32F4xx_HAL_Driver/Src/stm32f4xx_hal_i2s.c ****   {
 775:Drivers/STM32F4xx_HAL_Driver/Src/stm32f4xx_hal_i2s.c ****     return HAL_BUSY;
 776:Drivers/STM32F4xx_HAL_Driver/Src/stm32f4xx_hal_i2s.c ****   }
 777:Drivers/STM32F4xx_HAL_Driver/Src/stm32f4xx_hal_i2s.c **** }
 778:Drivers/STM32F4xx_HAL_Driver/Src/stm32f4xx_hal_i2s.c **** 
 779:Drivers/STM32F4xx_HAL_Driver/Src/stm32f4xx_hal_i2s.c **** /**
 780:Drivers/STM32F4xx_HAL_Driver/Src/stm32f4xx_hal_i2s.c ****   * @brief Receive an amount of data in non-blocking mode with Interrupt
 781:Drivers/STM32F4xx_HAL_Driver/Src/stm32f4xx_hal_i2s.c ****   * @param  hi2s pointer to a I2S_HandleTypeDef structure that contains
 782:Drivers/STM32F4xx_HAL_Driver/Src/stm32f4xx_hal_i2s.c ****   *         the configuration information for I2S module
 783:Drivers/STM32F4xx_HAL_Driver/Src/stm32f4xx_hal_i2s.c ****   * @param pData a 16-bit pointer to the Receive data buffer.
 784:Drivers/STM32F4xx_HAL_Driver/Src/stm32f4xx_hal_i2s.c ****   * @param Size number of data sample to be sent:
 785:Drivers/STM32F4xx_HAL_Driver/Src/stm32f4xx_hal_i2s.c ****   * @note When a 16-bit data frame or a 16-bit data frame extended is selected during the I2S
 786:Drivers/STM32F4xx_HAL_Driver/Src/stm32f4xx_hal_i2s.c ****   *       configuration phase, the Size parameter means the number of 16-bit data length
 787:Drivers/STM32F4xx_HAL_Driver/Src/stm32f4xx_hal_i2s.c ****   *       in the transaction and when a 24-bit data frame or a 32-bit data frame is selected
 788:Drivers/STM32F4xx_HAL_Driver/Src/stm32f4xx_hal_i2s.c ****   *       the Size parameter means the number of 16-bit data length.
 789:Drivers/STM32F4xx_HAL_Driver/Src/stm32f4xx_hal_i2s.c ****   * @note The I2S is kept enabled at the end of transaction to avoid the clock de-synchronization
 790:Drivers/STM32F4xx_HAL_Driver/Src/stm32f4xx_hal_i2s.c ****   *       between Master and Slave(example: audio streaming).
 791:Drivers/STM32F4xx_HAL_Driver/Src/stm32f4xx_hal_i2s.c ****   * @note It is recommended to use DMA for the I2S receiver to avoid de-synchronisation
 792:Drivers/STM32F4xx_HAL_Driver/Src/stm32f4xx_hal_i2s.c ****   * between Master and Slave otherwise the I2S interrupt should be optimized.
 793:Drivers/STM32F4xx_HAL_Driver/Src/stm32f4xx_hal_i2s.c ****   * @retval HAL status
 794:Drivers/STM32F4xx_HAL_Driver/Src/stm32f4xx_hal_i2s.c ****   */
 795:Drivers/STM32F4xx_HAL_Driver/Src/stm32f4xx_hal_i2s.c **** HAL_StatusTypeDef HAL_I2S_Receive_IT(I2S_HandleTypeDef *hi2s, uint16_t *pData, uint16_t Size)
 796:Drivers/STM32F4xx_HAL_Driver/Src/stm32f4xx_hal_i2s.c **** {
 797:Drivers/STM32F4xx_HAL_Driver/Src/stm32f4xx_hal_i2s.c ****   uint32_t tmp1 = 0U;
 798:Drivers/STM32F4xx_HAL_Driver/Src/stm32f4xx_hal_i2s.c **** 
 799:Drivers/STM32F4xx_HAL_Driver/Src/stm32f4xx_hal_i2s.c ****   if(hi2s->State == HAL_I2S_STATE_READY)
 800:Drivers/STM32F4xx_HAL_Driver/Src/stm32f4xx_hal_i2s.c ****   {
 801:Drivers/STM32F4xx_HAL_Driver/Src/stm32f4xx_hal_i2s.c ****     if((pData == NULL) || (Size == 0U))
 802:Drivers/STM32F4xx_HAL_Driver/Src/stm32f4xx_hal_i2s.c ****     {
 803:Drivers/STM32F4xx_HAL_Driver/Src/stm32f4xx_hal_i2s.c ****       return  HAL_ERROR;
 804:Drivers/STM32F4xx_HAL_Driver/Src/stm32f4xx_hal_i2s.c ****     }
 805:Drivers/STM32F4xx_HAL_Driver/Src/stm32f4xx_hal_i2s.c **** 
 806:Drivers/STM32F4xx_HAL_Driver/Src/stm32f4xx_hal_i2s.c ****     hi2s->pRxBuffPtr = pData;
 807:Drivers/STM32F4xx_HAL_Driver/Src/stm32f4xx_hal_i2s.c ****     tmp1 = hi2s->Instance->I2SCFGR & (SPI_I2SCFGR_DATLEN | SPI_I2SCFGR_CHLEN);
 808:Drivers/STM32F4xx_HAL_Driver/Src/stm32f4xx_hal_i2s.c ****     if((tmp1 == I2S_DATAFORMAT_24B) || (tmp1 == I2S_DATAFORMAT_32B))
 809:Drivers/STM32F4xx_HAL_Driver/Src/stm32f4xx_hal_i2s.c ****     {
 810:Drivers/STM32F4xx_HAL_Driver/Src/stm32f4xx_hal_i2s.c ****       hi2s->RxXferSize  = (Size << 1U);
 811:Drivers/STM32F4xx_HAL_Driver/Src/stm32f4xx_hal_i2s.c ****       hi2s->RxXferCount = (Size << 1U);
 812:Drivers/STM32F4xx_HAL_Driver/Src/stm32f4xx_hal_i2s.c ****     }
 813:Drivers/STM32F4xx_HAL_Driver/Src/stm32f4xx_hal_i2s.c ****     else
 814:Drivers/STM32F4xx_HAL_Driver/Src/stm32f4xx_hal_i2s.c ****     {
 815:Drivers/STM32F4xx_HAL_Driver/Src/stm32f4xx_hal_i2s.c ****       hi2s->RxXferSize  = Size;
 816:Drivers/STM32F4xx_HAL_Driver/Src/stm32f4xx_hal_i2s.c ****       hi2s->RxXferCount = Size;
 817:Drivers/STM32F4xx_HAL_Driver/Src/stm32f4xx_hal_i2s.c ****     }
 818:Drivers/STM32F4xx_HAL_Driver/Src/stm32f4xx_hal_i2s.c ****     /* Process Locked */
 819:Drivers/STM32F4xx_HAL_Driver/Src/stm32f4xx_hal_i2s.c ****     __HAL_LOCK(hi2s);
 820:Drivers/STM32F4xx_HAL_Driver/Src/stm32f4xx_hal_i2s.c **** 
 821:Drivers/STM32F4xx_HAL_Driver/Src/stm32f4xx_hal_i2s.c ****     hi2s->State     = HAL_I2S_STATE_BUSY_RX;
 822:Drivers/STM32F4xx_HAL_Driver/Src/stm32f4xx_hal_i2s.c ****     hi2s->ErrorCode = HAL_I2S_ERROR_NONE;
 823:Drivers/STM32F4xx_HAL_Driver/Src/stm32f4xx_hal_i2s.c **** 
 824:Drivers/STM32F4xx_HAL_Driver/Src/stm32f4xx_hal_i2s.c ****     /* Enable TXE and ERR interrupt */
 825:Drivers/STM32F4xx_HAL_Driver/Src/stm32f4xx_hal_i2s.c ****     __HAL_I2S_ENABLE_IT(hi2s, (I2S_IT_RXNE | I2S_IT_ERR));
 826:Drivers/STM32F4xx_HAL_Driver/Src/stm32f4xx_hal_i2s.c **** 
 827:Drivers/STM32F4xx_HAL_Driver/Src/stm32f4xx_hal_i2s.c ****     /* Check if the I2S is already enabled */
 828:Drivers/STM32F4xx_HAL_Driver/Src/stm32f4xx_hal_i2s.c ****     if((hi2s->Instance->I2SCFGR &SPI_I2SCFGR_I2SE) != SPI_I2SCFGR_I2SE)
 829:Drivers/STM32F4xx_HAL_Driver/Src/stm32f4xx_hal_i2s.c ****     {
ARM GAS  /tmp/cceNxm2U.s 			page 16


 830:Drivers/STM32F4xx_HAL_Driver/Src/stm32f4xx_hal_i2s.c ****       /* Enable I2S peripheral */
 831:Drivers/STM32F4xx_HAL_Driver/Src/stm32f4xx_hal_i2s.c ****       __HAL_I2S_ENABLE(hi2s);
 832:Drivers/STM32F4xx_HAL_Driver/Src/stm32f4xx_hal_i2s.c ****     }
 833:Drivers/STM32F4xx_HAL_Driver/Src/stm32f4xx_hal_i2s.c **** 
 834:Drivers/STM32F4xx_HAL_Driver/Src/stm32f4xx_hal_i2s.c ****     /* Process Unlocked */
 835:Drivers/STM32F4xx_HAL_Driver/Src/stm32f4xx_hal_i2s.c ****     __HAL_UNLOCK(hi2s);
 836:Drivers/STM32F4xx_HAL_Driver/Src/stm32f4xx_hal_i2s.c **** 
 837:Drivers/STM32F4xx_HAL_Driver/Src/stm32f4xx_hal_i2s.c ****     return HAL_OK;
 838:Drivers/STM32F4xx_HAL_Driver/Src/stm32f4xx_hal_i2s.c ****   }
 839:Drivers/STM32F4xx_HAL_Driver/Src/stm32f4xx_hal_i2s.c **** 
 840:Drivers/STM32F4xx_HAL_Driver/Src/stm32f4xx_hal_i2s.c ****   else
 841:Drivers/STM32F4xx_HAL_Driver/Src/stm32f4xx_hal_i2s.c ****   {
 842:Drivers/STM32F4xx_HAL_Driver/Src/stm32f4xx_hal_i2s.c ****     return HAL_BUSY;
 843:Drivers/STM32F4xx_HAL_Driver/Src/stm32f4xx_hal_i2s.c ****   }
 844:Drivers/STM32F4xx_HAL_Driver/Src/stm32f4xx_hal_i2s.c **** }
 845:Drivers/STM32F4xx_HAL_Driver/Src/stm32f4xx_hal_i2s.c **** 
 846:Drivers/STM32F4xx_HAL_Driver/Src/stm32f4xx_hal_i2s.c **** /**
 847:Drivers/STM32F4xx_HAL_Driver/Src/stm32f4xx_hal_i2s.c ****   * @brief Transmit an amount of data in non-blocking mode with DMA
 848:Drivers/STM32F4xx_HAL_Driver/Src/stm32f4xx_hal_i2s.c ****   * @param  hi2s pointer to a I2S_HandleTypeDef structure that contains
 849:Drivers/STM32F4xx_HAL_Driver/Src/stm32f4xx_hal_i2s.c ****   *         the configuration information for I2S module
 850:Drivers/STM32F4xx_HAL_Driver/Src/stm32f4xx_hal_i2s.c ****   * @param pData a 16-bit pointer to the Transmit data buffer.
 851:Drivers/STM32F4xx_HAL_Driver/Src/stm32f4xx_hal_i2s.c ****   * @param Size number of data sample to be sent:
 852:Drivers/STM32F4xx_HAL_Driver/Src/stm32f4xx_hal_i2s.c ****   * @note When a 16-bit data frame or a 16-bit data frame extended is selected during the I2S
 853:Drivers/STM32F4xx_HAL_Driver/Src/stm32f4xx_hal_i2s.c ****   *       configuration phase, the Size parameter means the number of 16-bit data length
 854:Drivers/STM32F4xx_HAL_Driver/Src/stm32f4xx_hal_i2s.c ****   *       in the transaction and when a 24-bit data frame or a 32-bit data frame is selected
 855:Drivers/STM32F4xx_HAL_Driver/Src/stm32f4xx_hal_i2s.c ****   *       the Size parameter means the number of 16-bit data length.
 856:Drivers/STM32F4xx_HAL_Driver/Src/stm32f4xx_hal_i2s.c ****   * @note The I2S is kept enabled at the end of transaction to avoid the clock de-synchronization
 857:Drivers/STM32F4xx_HAL_Driver/Src/stm32f4xx_hal_i2s.c ****   *       between Master and Slave(example: audio streaming).
 858:Drivers/STM32F4xx_HAL_Driver/Src/stm32f4xx_hal_i2s.c ****   * @retval HAL status
 859:Drivers/STM32F4xx_HAL_Driver/Src/stm32f4xx_hal_i2s.c ****   */
 860:Drivers/STM32F4xx_HAL_Driver/Src/stm32f4xx_hal_i2s.c **** HAL_StatusTypeDef HAL_I2S_Transmit_DMA(I2S_HandleTypeDef *hi2s, uint16_t *pData, uint16_t Size)
 861:Drivers/STM32F4xx_HAL_Driver/Src/stm32f4xx_hal_i2s.c **** {
 862:Drivers/STM32F4xx_HAL_Driver/Src/stm32f4xx_hal_i2s.c ****   uint32_t *tmp = NULL;
 863:Drivers/STM32F4xx_HAL_Driver/Src/stm32f4xx_hal_i2s.c ****   uint32_t tmp1 = 0U;
 864:Drivers/STM32F4xx_HAL_Driver/Src/stm32f4xx_hal_i2s.c **** 
 865:Drivers/STM32F4xx_HAL_Driver/Src/stm32f4xx_hal_i2s.c ****   if((pData == NULL) || (Size == 0U))
 866:Drivers/STM32F4xx_HAL_Driver/Src/stm32f4xx_hal_i2s.c ****   {
 867:Drivers/STM32F4xx_HAL_Driver/Src/stm32f4xx_hal_i2s.c ****     return  HAL_ERROR;
 868:Drivers/STM32F4xx_HAL_Driver/Src/stm32f4xx_hal_i2s.c ****   }
 869:Drivers/STM32F4xx_HAL_Driver/Src/stm32f4xx_hal_i2s.c **** 
 870:Drivers/STM32F4xx_HAL_Driver/Src/stm32f4xx_hal_i2s.c ****   if(hi2s->State == HAL_I2S_STATE_READY)
 871:Drivers/STM32F4xx_HAL_Driver/Src/stm32f4xx_hal_i2s.c ****   {
 872:Drivers/STM32F4xx_HAL_Driver/Src/stm32f4xx_hal_i2s.c ****     hi2s->pTxBuffPtr = pData;
 873:Drivers/STM32F4xx_HAL_Driver/Src/stm32f4xx_hal_i2s.c ****     tmp1 = hi2s->Instance->I2SCFGR & (SPI_I2SCFGR_DATLEN | SPI_I2SCFGR_CHLEN);
 874:Drivers/STM32F4xx_HAL_Driver/Src/stm32f4xx_hal_i2s.c ****     if((tmp1 == I2S_DATAFORMAT_24B) || (tmp1 == I2S_DATAFORMAT_32B))
 875:Drivers/STM32F4xx_HAL_Driver/Src/stm32f4xx_hal_i2s.c ****     {
 876:Drivers/STM32F4xx_HAL_Driver/Src/stm32f4xx_hal_i2s.c ****       hi2s->TxXferSize  = (Size << 1U);
 877:Drivers/STM32F4xx_HAL_Driver/Src/stm32f4xx_hal_i2s.c ****       hi2s->TxXferCount = (Size << 1U);
 878:Drivers/STM32F4xx_HAL_Driver/Src/stm32f4xx_hal_i2s.c ****     }
 879:Drivers/STM32F4xx_HAL_Driver/Src/stm32f4xx_hal_i2s.c ****     else
 880:Drivers/STM32F4xx_HAL_Driver/Src/stm32f4xx_hal_i2s.c ****     {
 881:Drivers/STM32F4xx_HAL_Driver/Src/stm32f4xx_hal_i2s.c ****       hi2s->TxXferSize  = Size;
 882:Drivers/STM32F4xx_HAL_Driver/Src/stm32f4xx_hal_i2s.c ****       hi2s->TxXferCount = Size;
 883:Drivers/STM32F4xx_HAL_Driver/Src/stm32f4xx_hal_i2s.c ****     }
 884:Drivers/STM32F4xx_HAL_Driver/Src/stm32f4xx_hal_i2s.c **** 
 885:Drivers/STM32F4xx_HAL_Driver/Src/stm32f4xx_hal_i2s.c ****     /* Process Locked */
 886:Drivers/STM32F4xx_HAL_Driver/Src/stm32f4xx_hal_i2s.c ****     __HAL_LOCK(hi2s);
ARM GAS  /tmp/cceNxm2U.s 			page 17


 887:Drivers/STM32F4xx_HAL_Driver/Src/stm32f4xx_hal_i2s.c **** 
 888:Drivers/STM32F4xx_HAL_Driver/Src/stm32f4xx_hal_i2s.c ****     hi2s->ErrorCode = HAL_I2S_ERROR_NONE;
 889:Drivers/STM32F4xx_HAL_Driver/Src/stm32f4xx_hal_i2s.c ****     hi2s->State     = HAL_I2S_STATE_BUSY_TX;
 890:Drivers/STM32F4xx_HAL_Driver/Src/stm32f4xx_hal_i2s.c **** 
 891:Drivers/STM32F4xx_HAL_Driver/Src/stm32f4xx_hal_i2s.c ****     /* Set the I2S Tx DMA Half transfer complete callback */
 892:Drivers/STM32F4xx_HAL_Driver/Src/stm32f4xx_hal_i2s.c ****     hi2s->hdmatx->XferHalfCpltCallback = I2S_DMATxHalfCplt;
 893:Drivers/STM32F4xx_HAL_Driver/Src/stm32f4xx_hal_i2s.c **** 
 894:Drivers/STM32F4xx_HAL_Driver/Src/stm32f4xx_hal_i2s.c ****     /* Set the I2S Tx DMA transfer complete callback */
 895:Drivers/STM32F4xx_HAL_Driver/Src/stm32f4xx_hal_i2s.c ****     hi2s->hdmatx->XferCpltCallback = I2S_DMATxCplt;
 896:Drivers/STM32F4xx_HAL_Driver/Src/stm32f4xx_hal_i2s.c **** 
 897:Drivers/STM32F4xx_HAL_Driver/Src/stm32f4xx_hal_i2s.c ****     /* Set the DMA error callback */
 898:Drivers/STM32F4xx_HAL_Driver/Src/stm32f4xx_hal_i2s.c ****     hi2s->hdmatx->XferErrorCallback = I2S_DMAError;
 899:Drivers/STM32F4xx_HAL_Driver/Src/stm32f4xx_hal_i2s.c **** 
 900:Drivers/STM32F4xx_HAL_Driver/Src/stm32f4xx_hal_i2s.c ****     /* Enable the Tx DMA Stream */
 901:Drivers/STM32F4xx_HAL_Driver/Src/stm32f4xx_hal_i2s.c ****     tmp = (uint32_t*)&pData;
 902:Drivers/STM32F4xx_HAL_Driver/Src/stm32f4xx_hal_i2s.c ****     HAL_DMA_Start_IT(hi2s->hdmatx, *(uint32_t*)tmp, (uint32_t)&hi2s->Instance->DR, hi2s->TxXferSize
 903:Drivers/STM32F4xx_HAL_Driver/Src/stm32f4xx_hal_i2s.c **** 
 904:Drivers/STM32F4xx_HAL_Driver/Src/stm32f4xx_hal_i2s.c ****     /* Check if the I2S is already enabled */
 905:Drivers/STM32F4xx_HAL_Driver/Src/stm32f4xx_hal_i2s.c ****     if((hi2s->Instance->I2SCFGR &SPI_I2SCFGR_I2SE) != SPI_I2SCFGR_I2SE)
 906:Drivers/STM32F4xx_HAL_Driver/Src/stm32f4xx_hal_i2s.c ****     {
 907:Drivers/STM32F4xx_HAL_Driver/Src/stm32f4xx_hal_i2s.c ****       /* Enable I2S peripheral */
 908:Drivers/STM32F4xx_HAL_Driver/Src/stm32f4xx_hal_i2s.c ****       __HAL_I2S_ENABLE(hi2s);
 909:Drivers/STM32F4xx_HAL_Driver/Src/stm32f4xx_hal_i2s.c ****     }
 910:Drivers/STM32F4xx_HAL_Driver/Src/stm32f4xx_hal_i2s.c **** 
 911:Drivers/STM32F4xx_HAL_Driver/Src/stm32f4xx_hal_i2s.c ****      /* Check if the I2S Tx request is already enabled */
 912:Drivers/STM32F4xx_HAL_Driver/Src/stm32f4xx_hal_i2s.c ****     if((hi2s->Instance->CR2 & SPI_CR2_TXDMAEN) != SPI_CR2_TXDMAEN)
 913:Drivers/STM32F4xx_HAL_Driver/Src/stm32f4xx_hal_i2s.c ****     {
 914:Drivers/STM32F4xx_HAL_Driver/Src/stm32f4xx_hal_i2s.c ****       /* Enable Tx DMA Request */
 915:Drivers/STM32F4xx_HAL_Driver/Src/stm32f4xx_hal_i2s.c ****       SET_BIT(hi2s->Instance->CR2, SPI_CR2_TXDMAEN);
 916:Drivers/STM32F4xx_HAL_Driver/Src/stm32f4xx_hal_i2s.c ****     }
 917:Drivers/STM32F4xx_HAL_Driver/Src/stm32f4xx_hal_i2s.c **** 
 918:Drivers/STM32F4xx_HAL_Driver/Src/stm32f4xx_hal_i2s.c ****     /* Process Unlocked */
 919:Drivers/STM32F4xx_HAL_Driver/Src/stm32f4xx_hal_i2s.c ****     __HAL_UNLOCK(hi2s);
 920:Drivers/STM32F4xx_HAL_Driver/Src/stm32f4xx_hal_i2s.c **** 
 921:Drivers/STM32F4xx_HAL_Driver/Src/stm32f4xx_hal_i2s.c ****     return HAL_OK;
 922:Drivers/STM32F4xx_HAL_Driver/Src/stm32f4xx_hal_i2s.c ****   }
 923:Drivers/STM32F4xx_HAL_Driver/Src/stm32f4xx_hal_i2s.c ****   else
 924:Drivers/STM32F4xx_HAL_Driver/Src/stm32f4xx_hal_i2s.c ****   {
 925:Drivers/STM32F4xx_HAL_Driver/Src/stm32f4xx_hal_i2s.c ****     return HAL_BUSY;
 926:Drivers/STM32F4xx_HAL_Driver/Src/stm32f4xx_hal_i2s.c ****   }
 927:Drivers/STM32F4xx_HAL_Driver/Src/stm32f4xx_hal_i2s.c **** }
 928:Drivers/STM32F4xx_HAL_Driver/Src/stm32f4xx_hal_i2s.c **** 
 929:Drivers/STM32F4xx_HAL_Driver/Src/stm32f4xx_hal_i2s.c **** /**
 930:Drivers/STM32F4xx_HAL_Driver/Src/stm32f4xx_hal_i2s.c ****   * @brief Receive an amount of data in non-blocking mode with DMA
 931:Drivers/STM32F4xx_HAL_Driver/Src/stm32f4xx_hal_i2s.c ****   * @param  hi2s pointer to a I2S_HandleTypeDef structure that contains
 932:Drivers/STM32F4xx_HAL_Driver/Src/stm32f4xx_hal_i2s.c ****   *         the configuration information for I2S module
 933:Drivers/STM32F4xx_HAL_Driver/Src/stm32f4xx_hal_i2s.c ****   * @param pData a 16-bit pointer to the Receive data buffer.
 934:Drivers/STM32F4xx_HAL_Driver/Src/stm32f4xx_hal_i2s.c ****   * @param Size number of data sample to be sent:
 935:Drivers/STM32F4xx_HAL_Driver/Src/stm32f4xx_hal_i2s.c ****   * @note When a 16-bit data frame or a 16-bit data frame extended is selected during the I2S
 936:Drivers/STM32F4xx_HAL_Driver/Src/stm32f4xx_hal_i2s.c ****   *       configuration phase, the Size parameter means the number of 16-bit data length
 937:Drivers/STM32F4xx_HAL_Driver/Src/stm32f4xx_hal_i2s.c ****   *       in the transaction and when a 24-bit data frame or a 32-bit data frame is selected
 938:Drivers/STM32F4xx_HAL_Driver/Src/stm32f4xx_hal_i2s.c ****   *       the Size parameter means the number of 16-bit data length.
 939:Drivers/STM32F4xx_HAL_Driver/Src/stm32f4xx_hal_i2s.c ****   * @note The I2S is kept enabled at the end of transaction to avoid the clock de-synchronization
 940:Drivers/STM32F4xx_HAL_Driver/Src/stm32f4xx_hal_i2s.c ****   *       between Master and Slave(example: audio streaming).
 941:Drivers/STM32F4xx_HAL_Driver/Src/stm32f4xx_hal_i2s.c ****   * @retval HAL status
 942:Drivers/STM32F4xx_HAL_Driver/Src/stm32f4xx_hal_i2s.c ****   */
 943:Drivers/STM32F4xx_HAL_Driver/Src/stm32f4xx_hal_i2s.c **** HAL_StatusTypeDef HAL_I2S_Receive_DMA(I2S_HandleTypeDef *hi2s, uint16_t *pData, uint16_t Size)
ARM GAS  /tmp/cceNxm2U.s 			page 18


 944:Drivers/STM32F4xx_HAL_Driver/Src/stm32f4xx_hal_i2s.c **** {
 945:Drivers/STM32F4xx_HAL_Driver/Src/stm32f4xx_hal_i2s.c ****   uint32_t *tmp = NULL;
 946:Drivers/STM32F4xx_HAL_Driver/Src/stm32f4xx_hal_i2s.c ****   uint32_t tmp1 = 0U;
 947:Drivers/STM32F4xx_HAL_Driver/Src/stm32f4xx_hal_i2s.c **** 
 948:Drivers/STM32F4xx_HAL_Driver/Src/stm32f4xx_hal_i2s.c ****   if((pData == NULL) || (Size == 0U))
 949:Drivers/STM32F4xx_HAL_Driver/Src/stm32f4xx_hal_i2s.c ****   {
 950:Drivers/STM32F4xx_HAL_Driver/Src/stm32f4xx_hal_i2s.c ****     return  HAL_ERROR;
 951:Drivers/STM32F4xx_HAL_Driver/Src/stm32f4xx_hal_i2s.c ****   }
 952:Drivers/STM32F4xx_HAL_Driver/Src/stm32f4xx_hal_i2s.c **** 
 953:Drivers/STM32F4xx_HAL_Driver/Src/stm32f4xx_hal_i2s.c ****   if(hi2s->State == HAL_I2S_STATE_READY)
 954:Drivers/STM32F4xx_HAL_Driver/Src/stm32f4xx_hal_i2s.c ****   {
 955:Drivers/STM32F4xx_HAL_Driver/Src/stm32f4xx_hal_i2s.c ****     hi2s->pRxBuffPtr = pData;
 956:Drivers/STM32F4xx_HAL_Driver/Src/stm32f4xx_hal_i2s.c ****     tmp1 = hi2s->Instance->I2SCFGR & (SPI_I2SCFGR_DATLEN | SPI_I2SCFGR_CHLEN);
 957:Drivers/STM32F4xx_HAL_Driver/Src/stm32f4xx_hal_i2s.c ****     if((tmp1 == I2S_DATAFORMAT_24B) || (tmp1 == I2S_DATAFORMAT_32B))
 958:Drivers/STM32F4xx_HAL_Driver/Src/stm32f4xx_hal_i2s.c ****     {
 959:Drivers/STM32F4xx_HAL_Driver/Src/stm32f4xx_hal_i2s.c ****       hi2s->RxXferSize  = (Size << 1U);
 960:Drivers/STM32F4xx_HAL_Driver/Src/stm32f4xx_hal_i2s.c ****       hi2s->RxXferCount = (Size << 1U);
 961:Drivers/STM32F4xx_HAL_Driver/Src/stm32f4xx_hal_i2s.c ****     }
 962:Drivers/STM32F4xx_HAL_Driver/Src/stm32f4xx_hal_i2s.c ****     else
 963:Drivers/STM32F4xx_HAL_Driver/Src/stm32f4xx_hal_i2s.c ****     {
 964:Drivers/STM32F4xx_HAL_Driver/Src/stm32f4xx_hal_i2s.c ****       hi2s->RxXferSize  = Size;
 965:Drivers/STM32F4xx_HAL_Driver/Src/stm32f4xx_hal_i2s.c ****       hi2s->RxXferCount = Size;
 966:Drivers/STM32F4xx_HAL_Driver/Src/stm32f4xx_hal_i2s.c ****     }
 967:Drivers/STM32F4xx_HAL_Driver/Src/stm32f4xx_hal_i2s.c ****     /* Process Locked */
 968:Drivers/STM32F4xx_HAL_Driver/Src/stm32f4xx_hal_i2s.c ****     __HAL_LOCK(hi2s);
 969:Drivers/STM32F4xx_HAL_Driver/Src/stm32f4xx_hal_i2s.c **** 
 970:Drivers/STM32F4xx_HAL_Driver/Src/stm32f4xx_hal_i2s.c ****     hi2s->State     = HAL_I2S_STATE_BUSY_RX;
 971:Drivers/STM32F4xx_HAL_Driver/Src/stm32f4xx_hal_i2s.c ****     hi2s->ErrorCode = HAL_I2S_ERROR_NONE;
 972:Drivers/STM32F4xx_HAL_Driver/Src/stm32f4xx_hal_i2s.c **** 
 973:Drivers/STM32F4xx_HAL_Driver/Src/stm32f4xx_hal_i2s.c ****     /* Set the I2S Rx DMA Half transfer complete callback */
 974:Drivers/STM32F4xx_HAL_Driver/Src/stm32f4xx_hal_i2s.c ****     hi2s->hdmarx->XferHalfCpltCallback = I2S_DMARxHalfCplt;
 975:Drivers/STM32F4xx_HAL_Driver/Src/stm32f4xx_hal_i2s.c **** 
 976:Drivers/STM32F4xx_HAL_Driver/Src/stm32f4xx_hal_i2s.c ****     /* Set the I2S Rx DMA transfer complete callback */
 977:Drivers/STM32F4xx_HAL_Driver/Src/stm32f4xx_hal_i2s.c ****     hi2s->hdmarx->XferCpltCallback = I2S_DMARxCplt;
 978:Drivers/STM32F4xx_HAL_Driver/Src/stm32f4xx_hal_i2s.c **** 
 979:Drivers/STM32F4xx_HAL_Driver/Src/stm32f4xx_hal_i2s.c ****     /* Set the DMA error callback */
 980:Drivers/STM32F4xx_HAL_Driver/Src/stm32f4xx_hal_i2s.c ****     hi2s->hdmarx->XferErrorCallback = I2S_DMAError;
 981:Drivers/STM32F4xx_HAL_Driver/Src/stm32f4xx_hal_i2s.c **** 
 982:Drivers/STM32F4xx_HAL_Driver/Src/stm32f4xx_hal_i2s.c ****     /* Check if Master Receiver mode is selected */
 983:Drivers/STM32F4xx_HAL_Driver/Src/stm32f4xx_hal_i2s.c ****     if((hi2s->Instance->I2SCFGR & SPI_I2SCFGR_I2SCFG) == I2S_MODE_MASTER_RX)
 984:Drivers/STM32F4xx_HAL_Driver/Src/stm32f4xx_hal_i2s.c ****     {
 985:Drivers/STM32F4xx_HAL_Driver/Src/stm32f4xx_hal_i2s.c ****       /* Clear the Overrun Flag by a read operation to the SPI_DR register followed by a read
 986:Drivers/STM32F4xx_HAL_Driver/Src/stm32f4xx_hal_i2s.c ****       access to the SPI_SR register. */
 987:Drivers/STM32F4xx_HAL_Driver/Src/stm32f4xx_hal_i2s.c ****       __HAL_I2S_CLEAR_OVRFLAG(hi2s);
 988:Drivers/STM32F4xx_HAL_Driver/Src/stm32f4xx_hal_i2s.c ****     }
 989:Drivers/STM32F4xx_HAL_Driver/Src/stm32f4xx_hal_i2s.c **** 
 990:Drivers/STM32F4xx_HAL_Driver/Src/stm32f4xx_hal_i2s.c ****     /* Enable the Rx DMA Stream */
 991:Drivers/STM32F4xx_HAL_Driver/Src/stm32f4xx_hal_i2s.c ****     tmp = (uint32_t*)&pData;
 992:Drivers/STM32F4xx_HAL_Driver/Src/stm32f4xx_hal_i2s.c ****     HAL_DMA_Start_IT(hi2s->hdmarx, (uint32_t)&hi2s->Instance->DR, *(uint32_t*)tmp, hi2s->RxXferSize
 993:Drivers/STM32F4xx_HAL_Driver/Src/stm32f4xx_hal_i2s.c **** 
 994:Drivers/STM32F4xx_HAL_Driver/Src/stm32f4xx_hal_i2s.c ****     /* Check if the I2S is already enabled */
 995:Drivers/STM32F4xx_HAL_Driver/Src/stm32f4xx_hal_i2s.c ****     if((hi2s->Instance->I2SCFGR &SPI_I2SCFGR_I2SE) != SPI_I2SCFGR_I2SE)
 996:Drivers/STM32F4xx_HAL_Driver/Src/stm32f4xx_hal_i2s.c ****     {
 997:Drivers/STM32F4xx_HAL_Driver/Src/stm32f4xx_hal_i2s.c ****       /* Enable I2S peripheral */
 998:Drivers/STM32F4xx_HAL_Driver/Src/stm32f4xx_hal_i2s.c ****       __HAL_I2S_ENABLE(hi2s);
 999:Drivers/STM32F4xx_HAL_Driver/Src/stm32f4xx_hal_i2s.c ****     }
1000:Drivers/STM32F4xx_HAL_Driver/Src/stm32f4xx_hal_i2s.c **** 
ARM GAS  /tmp/cceNxm2U.s 			page 19


1001:Drivers/STM32F4xx_HAL_Driver/Src/stm32f4xx_hal_i2s.c ****      /* Check if the I2S Rx request is already enabled */
1002:Drivers/STM32F4xx_HAL_Driver/Src/stm32f4xx_hal_i2s.c ****     if((hi2s->Instance->CR2 &SPI_CR2_RXDMAEN) != SPI_CR2_RXDMAEN)
1003:Drivers/STM32F4xx_HAL_Driver/Src/stm32f4xx_hal_i2s.c ****     {
1004:Drivers/STM32F4xx_HAL_Driver/Src/stm32f4xx_hal_i2s.c ****       /* Enable Rx DMA Request */
1005:Drivers/STM32F4xx_HAL_Driver/Src/stm32f4xx_hal_i2s.c ****       SET_BIT(hi2s->Instance->CR2,SPI_CR2_RXDMAEN);
1006:Drivers/STM32F4xx_HAL_Driver/Src/stm32f4xx_hal_i2s.c ****     }
1007:Drivers/STM32F4xx_HAL_Driver/Src/stm32f4xx_hal_i2s.c **** 
1008:Drivers/STM32F4xx_HAL_Driver/Src/stm32f4xx_hal_i2s.c ****     /* Process Unlocked */
1009:Drivers/STM32F4xx_HAL_Driver/Src/stm32f4xx_hal_i2s.c ****     __HAL_UNLOCK(hi2s);
1010:Drivers/STM32F4xx_HAL_Driver/Src/stm32f4xx_hal_i2s.c **** 
1011:Drivers/STM32F4xx_HAL_Driver/Src/stm32f4xx_hal_i2s.c ****     return HAL_OK;
1012:Drivers/STM32F4xx_HAL_Driver/Src/stm32f4xx_hal_i2s.c ****   }
1013:Drivers/STM32F4xx_HAL_Driver/Src/stm32f4xx_hal_i2s.c ****   else
1014:Drivers/STM32F4xx_HAL_Driver/Src/stm32f4xx_hal_i2s.c ****   {
1015:Drivers/STM32F4xx_HAL_Driver/Src/stm32f4xx_hal_i2s.c ****     return HAL_BUSY;
1016:Drivers/STM32F4xx_HAL_Driver/Src/stm32f4xx_hal_i2s.c ****   }
1017:Drivers/STM32F4xx_HAL_Driver/Src/stm32f4xx_hal_i2s.c **** }
1018:Drivers/STM32F4xx_HAL_Driver/Src/stm32f4xx_hal_i2s.c **** 
1019:Drivers/STM32F4xx_HAL_Driver/Src/stm32f4xx_hal_i2s.c **** /**
1020:Drivers/STM32F4xx_HAL_Driver/Src/stm32f4xx_hal_i2s.c ****   * @brief Pauses the audio stream playing from the Media.
1021:Drivers/STM32F4xx_HAL_Driver/Src/stm32f4xx_hal_i2s.c ****   * @param  hi2s pointer to a I2S_HandleTypeDef structure that contains
1022:Drivers/STM32F4xx_HAL_Driver/Src/stm32f4xx_hal_i2s.c ****   *         the configuration information for I2S module
1023:Drivers/STM32F4xx_HAL_Driver/Src/stm32f4xx_hal_i2s.c ****   * @retval HAL status
1024:Drivers/STM32F4xx_HAL_Driver/Src/stm32f4xx_hal_i2s.c ****   */
1025:Drivers/STM32F4xx_HAL_Driver/Src/stm32f4xx_hal_i2s.c **** HAL_StatusTypeDef HAL_I2S_DMAPause(I2S_HandleTypeDef *hi2s)
1026:Drivers/STM32F4xx_HAL_Driver/Src/stm32f4xx_hal_i2s.c **** {
1027:Drivers/STM32F4xx_HAL_Driver/Src/stm32f4xx_hal_i2s.c ****   /* Process Locked */
1028:Drivers/STM32F4xx_HAL_Driver/Src/stm32f4xx_hal_i2s.c ****   __HAL_LOCK(hi2s);
1029:Drivers/STM32F4xx_HAL_Driver/Src/stm32f4xx_hal_i2s.c **** 
1030:Drivers/STM32F4xx_HAL_Driver/Src/stm32f4xx_hal_i2s.c ****   if(hi2s->State == HAL_I2S_STATE_BUSY_TX)
1031:Drivers/STM32F4xx_HAL_Driver/Src/stm32f4xx_hal_i2s.c ****   {
1032:Drivers/STM32F4xx_HAL_Driver/Src/stm32f4xx_hal_i2s.c ****     /* Disable the I2S DMA Tx request */
1033:Drivers/STM32F4xx_HAL_Driver/Src/stm32f4xx_hal_i2s.c ****     CLEAR_BIT(hi2s->Instance->CR2,SPI_CR2_TXDMAEN);
1034:Drivers/STM32F4xx_HAL_Driver/Src/stm32f4xx_hal_i2s.c ****   }
1035:Drivers/STM32F4xx_HAL_Driver/Src/stm32f4xx_hal_i2s.c ****   else if(hi2s->State == HAL_I2S_STATE_BUSY_RX)
1036:Drivers/STM32F4xx_HAL_Driver/Src/stm32f4xx_hal_i2s.c ****   {
1037:Drivers/STM32F4xx_HAL_Driver/Src/stm32f4xx_hal_i2s.c ****     /* Disable the I2S DMA Rx request */
1038:Drivers/STM32F4xx_HAL_Driver/Src/stm32f4xx_hal_i2s.c ****     CLEAR_BIT(hi2s->Instance->CR2,SPI_CR2_RXDMAEN);
1039:Drivers/STM32F4xx_HAL_Driver/Src/stm32f4xx_hal_i2s.c ****   }
1040:Drivers/STM32F4xx_HAL_Driver/Src/stm32f4xx_hal_i2s.c **** #if defined (SPI_I2S_FULLDUPLEX_SUPPORT)
1041:Drivers/STM32F4xx_HAL_Driver/Src/stm32f4xx_hal_i2s.c ****   else if(hi2s->State == HAL_I2S_STATE_BUSY_TX_RX)
1042:Drivers/STM32F4xx_HAL_Driver/Src/stm32f4xx_hal_i2s.c ****   {
1043:Drivers/STM32F4xx_HAL_Driver/Src/stm32f4xx_hal_i2s.c ****     /* Pause the audio file playing by disabling the I2S DMA request */
1044:Drivers/STM32F4xx_HAL_Driver/Src/stm32f4xx_hal_i2s.c ****     CLEAR_BIT(hi2s->Instance->CR2,(SPI_CR2_TXDMAEN|SPI_CR2_RXDMAEN));
1045:Drivers/STM32F4xx_HAL_Driver/Src/stm32f4xx_hal_i2s.c ****     CLEAR_BIT(I2SxEXT(hi2s->Instance)->CR2,(SPI_CR2_TXDMAEN|SPI_CR2_RXDMAEN));
1046:Drivers/STM32F4xx_HAL_Driver/Src/stm32f4xx_hal_i2s.c ****   }
1047:Drivers/STM32F4xx_HAL_Driver/Src/stm32f4xx_hal_i2s.c **** #endif /* SPI_I2S_FULLDUPLEX_SUPPORT */
1048:Drivers/STM32F4xx_HAL_Driver/Src/stm32f4xx_hal_i2s.c **** 
1049:Drivers/STM32F4xx_HAL_Driver/Src/stm32f4xx_hal_i2s.c ****   /* Process Unlocked */
1050:Drivers/STM32F4xx_HAL_Driver/Src/stm32f4xx_hal_i2s.c ****   __HAL_UNLOCK(hi2s);
1051:Drivers/STM32F4xx_HAL_Driver/Src/stm32f4xx_hal_i2s.c **** 
1052:Drivers/STM32F4xx_HAL_Driver/Src/stm32f4xx_hal_i2s.c ****   return HAL_OK;
1053:Drivers/STM32F4xx_HAL_Driver/Src/stm32f4xx_hal_i2s.c **** }
1054:Drivers/STM32F4xx_HAL_Driver/Src/stm32f4xx_hal_i2s.c **** 
1055:Drivers/STM32F4xx_HAL_Driver/Src/stm32f4xx_hal_i2s.c **** /**
1056:Drivers/STM32F4xx_HAL_Driver/Src/stm32f4xx_hal_i2s.c ****   * @brief Resumes the audio stream playing from the Media.
1057:Drivers/STM32F4xx_HAL_Driver/Src/stm32f4xx_hal_i2s.c ****   * @param  hi2s pointer to a I2S_HandleTypeDef structure that contains
ARM GAS  /tmp/cceNxm2U.s 			page 20


1058:Drivers/STM32F4xx_HAL_Driver/Src/stm32f4xx_hal_i2s.c ****   *         the configuration information for I2S module
1059:Drivers/STM32F4xx_HAL_Driver/Src/stm32f4xx_hal_i2s.c ****   * @retval HAL status
1060:Drivers/STM32F4xx_HAL_Driver/Src/stm32f4xx_hal_i2s.c ****   */
1061:Drivers/STM32F4xx_HAL_Driver/Src/stm32f4xx_hal_i2s.c **** HAL_StatusTypeDef HAL_I2S_DMAResume(I2S_HandleTypeDef *hi2s)
1062:Drivers/STM32F4xx_HAL_Driver/Src/stm32f4xx_hal_i2s.c **** {
1063:Drivers/STM32F4xx_HAL_Driver/Src/stm32f4xx_hal_i2s.c ****   /* Process Locked */
1064:Drivers/STM32F4xx_HAL_Driver/Src/stm32f4xx_hal_i2s.c ****   __HAL_LOCK(hi2s);
1065:Drivers/STM32F4xx_HAL_Driver/Src/stm32f4xx_hal_i2s.c **** 
1066:Drivers/STM32F4xx_HAL_Driver/Src/stm32f4xx_hal_i2s.c ****   if(hi2s->State == HAL_I2S_STATE_BUSY_TX)
1067:Drivers/STM32F4xx_HAL_Driver/Src/stm32f4xx_hal_i2s.c ****   {
1068:Drivers/STM32F4xx_HAL_Driver/Src/stm32f4xx_hal_i2s.c ****     /* Enable the I2S DMA Tx request */
1069:Drivers/STM32F4xx_HAL_Driver/Src/stm32f4xx_hal_i2s.c ****     SET_BIT(hi2s->Instance->CR2,SPI_CR2_TXDMAEN);
1070:Drivers/STM32F4xx_HAL_Driver/Src/stm32f4xx_hal_i2s.c ****   }
1071:Drivers/STM32F4xx_HAL_Driver/Src/stm32f4xx_hal_i2s.c ****   else if(hi2s->State == HAL_I2S_STATE_BUSY_RX)
1072:Drivers/STM32F4xx_HAL_Driver/Src/stm32f4xx_hal_i2s.c ****   {
1073:Drivers/STM32F4xx_HAL_Driver/Src/stm32f4xx_hal_i2s.c ****     /* Enable the I2S DMA Rx request */
1074:Drivers/STM32F4xx_HAL_Driver/Src/stm32f4xx_hal_i2s.c ****     SET_BIT(hi2s->Instance->CR2,SPI_CR2_RXDMAEN);
1075:Drivers/STM32F4xx_HAL_Driver/Src/stm32f4xx_hal_i2s.c ****   }
1076:Drivers/STM32F4xx_HAL_Driver/Src/stm32f4xx_hal_i2s.c **** #if defined (SPI_I2S_FULLDUPLEX_SUPPORT)
1077:Drivers/STM32F4xx_HAL_Driver/Src/stm32f4xx_hal_i2s.c ****   else if(hi2s->State == HAL_I2S_STATE_BUSY_TX_RX)
1078:Drivers/STM32F4xx_HAL_Driver/Src/stm32f4xx_hal_i2s.c ****   {
1079:Drivers/STM32F4xx_HAL_Driver/Src/stm32f4xx_hal_i2s.c ****     /* Pause the audio file playing by disabling the I2S DMA request */
1080:Drivers/STM32F4xx_HAL_Driver/Src/stm32f4xx_hal_i2s.c ****     SET_BIT(hi2s->Instance->CR2,(SPI_CR2_RXDMAEN | SPI_CR2_TXDMAEN));
1081:Drivers/STM32F4xx_HAL_Driver/Src/stm32f4xx_hal_i2s.c ****     SET_BIT(I2SxEXT(hi2s->Instance)->CR2,(SPI_CR2_RXDMAEN | SPI_CR2_TXDMAEN));
1082:Drivers/STM32F4xx_HAL_Driver/Src/stm32f4xx_hal_i2s.c **** 
1083:Drivers/STM32F4xx_HAL_Driver/Src/stm32f4xx_hal_i2s.c ****     /* If the I2Sext peripheral is still not enabled, enable it */
1084:Drivers/STM32F4xx_HAL_Driver/Src/stm32f4xx_hal_i2s.c ****     if ((I2SxEXT(hi2s->Instance)->I2SCFGR & SPI_I2SCFGR_I2SE) == 0U)
1085:Drivers/STM32F4xx_HAL_Driver/Src/stm32f4xx_hal_i2s.c ****     {
1086:Drivers/STM32F4xx_HAL_Driver/Src/stm32f4xx_hal_i2s.c ****       /* Enable I2Sext peripheral */
1087:Drivers/STM32F4xx_HAL_Driver/Src/stm32f4xx_hal_i2s.c ****       __HAL_I2SEXT_ENABLE(hi2s);
1088:Drivers/STM32F4xx_HAL_Driver/Src/stm32f4xx_hal_i2s.c ****     }
1089:Drivers/STM32F4xx_HAL_Driver/Src/stm32f4xx_hal_i2s.c ****   }
1090:Drivers/STM32F4xx_HAL_Driver/Src/stm32f4xx_hal_i2s.c **** #endif /* SPI_I2S_FULLDUPLEX_SUPPORT */
1091:Drivers/STM32F4xx_HAL_Driver/Src/stm32f4xx_hal_i2s.c **** 
1092:Drivers/STM32F4xx_HAL_Driver/Src/stm32f4xx_hal_i2s.c ****   /* If the I2S peripheral is still not enabled, enable it */
1093:Drivers/STM32F4xx_HAL_Driver/Src/stm32f4xx_hal_i2s.c ****   if ((hi2s->Instance->I2SCFGR & SPI_I2SCFGR_I2SE) == 0U)
1094:Drivers/STM32F4xx_HAL_Driver/Src/stm32f4xx_hal_i2s.c ****   {
1095:Drivers/STM32F4xx_HAL_Driver/Src/stm32f4xx_hal_i2s.c ****     /* Enable I2S peripheral */
1096:Drivers/STM32F4xx_HAL_Driver/Src/stm32f4xx_hal_i2s.c ****     __HAL_I2S_ENABLE(hi2s);
1097:Drivers/STM32F4xx_HAL_Driver/Src/stm32f4xx_hal_i2s.c ****   }
1098:Drivers/STM32F4xx_HAL_Driver/Src/stm32f4xx_hal_i2s.c **** 
1099:Drivers/STM32F4xx_HAL_Driver/Src/stm32f4xx_hal_i2s.c ****   /* Process Unlocked */
1100:Drivers/STM32F4xx_HAL_Driver/Src/stm32f4xx_hal_i2s.c ****   __HAL_UNLOCK(hi2s);
1101:Drivers/STM32F4xx_HAL_Driver/Src/stm32f4xx_hal_i2s.c **** 
1102:Drivers/STM32F4xx_HAL_Driver/Src/stm32f4xx_hal_i2s.c ****   return HAL_OK;
1103:Drivers/STM32F4xx_HAL_Driver/Src/stm32f4xx_hal_i2s.c **** }
1104:Drivers/STM32F4xx_HAL_Driver/Src/stm32f4xx_hal_i2s.c **** 
1105:Drivers/STM32F4xx_HAL_Driver/Src/stm32f4xx_hal_i2s.c **** /**
1106:Drivers/STM32F4xx_HAL_Driver/Src/stm32f4xx_hal_i2s.c ****   * @brief Resumes the audio stream playing from the Media.
1107:Drivers/STM32F4xx_HAL_Driver/Src/stm32f4xx_hal_i2s.c ****   * @param  hi2s pointer to a I2S_HandleTypeDef structure that contains
1108:Drivers/STM32F4xx_HAL_Driver/Src/stm32f4xx_hal_i2s.c ****   *         the configuration information for I2S module
1109:Drivers/STM32F4xx_HAL_Driver/Src/stm32f4xx_hal_i2s.c ****   * @retval HAL status
1110:Drivers/STM32F4xx_HAL_Driver/Src/stm32f4xx_hal_i2s.c ****   */
1111:Drivers/STM32F4xx_HAL_Driver/Src/stm32f4xx_hal_i2s.c **** HAL_StatusTypeDef HAL_I2S_DMAStop(I2S_HandleTypeDef *hi2s)
1112:Drivers/STM32F4xx_HAL_Driver/Src/stm32f4xx_hal_i2s.c **** {
1113:Drivers/STM32F4xx_HAL_Driver/Src/stm32f4xx_hal_i2s.c ****   /* Process Locked */
1114:Drivers/STM32F4xx_HAL_Driver/Src/stm32f4xx_hal_i2s.c ****   __HAL_LOCK(hi2s);
ARM GAS  /tmp/cceNxm2U.s 			page 21


1115:Drivers/STM32F4xx_HAL_Driver/Src/stm32f4xx_hal_i2s.c **** 
1116:Drivers/STM32F4xx_HAL_Driver/Src/stm32f4xx_hal_i2s.c ****   if(hi2s->State == HAL_I2S_STATE_BUSY_TX)
1117:Drivers/STM32F4xx_HAL_Driver/Src/stm32f4xx_hal_i2s.c ****   {
1118:Drivers/STM32F4xx_HAL_Driver/Src/stm32f4xx_hal_i2s.c ****     /* Disable the I2S DMA requests */
1119:Drivers/STM32F4xx_HAL_Driver/Src/stm32f4xx_hal_i2s.c ****     CLEAR_BIT(hi2s->Instance->CR2,SPI_CR2_TXDMAEN);
1120:Drivers/STM32F4xx_HAL_Driver/Src/stm32f4xx_hal_i2s.c **** 
1121:Drivers/STM32F4xx_HAL_Driver/Src/stm32f4xx_hal_i2s.c ****     /* Disable the I2S DMA Channel */
1122:Drivers/STM32F4xx_HAL_Driver/Src/stm32f4xx_hal_i2s.c ****     HAL_DMA_Abort(hi2s->hdmatx);
1123:Drivers/STM32F4xx_HAL_Driver/Src/stm32f4xx_hal_i2s.c ****   }
1124:Drivers/STM32F4xx_HAL_Driver/Src/stm32f4xx_hal_i2s.c ****   else if(hi2s->State == HAL_I2S_STATE_BUSY_RX)
1125:Drivers/STM32F4xx_HAL_Driver/Src/stm32f4xx_hal_i2s.c ****   {
1126:Drivers/STM32F4xx_HAL_Driver/Src/stm32f4xx_hal_i2s.c ****     /* Disable the I2S DMA requests */
1127:Drivers/STM32F4xx_HAL_Driver/Src/stm32f4xx_hal_i2s.c ****     CLEAR_BIT(hi2s->Instance->CR2,SPI_CR2_RXDMAEN);
1128:Drivers/STM32F4xx_HAL_Driver/Src/stm32f4xx_hal_i2s.c **** 
1129:Drivers/STM32F4xx_HAL_Driver/Src/stm32f4xx_hal_i2s.c ****     /* Disable the I2S DMA Channel */
1130:Drivers/STM32F4xx_HAL_Driver/Src/stm32f4xx_hal_i2s.c ****     HAL_DMA_Abort(hi2s->hdmarx);
1131:Drivers/STM32F4xx_HAL_Driver/Src/stm32f4xx_hal_i2s.c ****   }
1132:Drivers/STM32F4xx_HAL_Driver/Src/stm32f4xx_hal_i2s.c **** #if defined (SPI_I2S_FULLDUPLEX_SUPPORT)
1133:Drivers/STM32F4xx_HAL_Driver/Src/stm32f4xx_hal_i2s.c ****   else if(hi2s->State == HAL_I2S_STATE_BUSY_TX_RX)
1134:Drivers/STM32F4xx_HAL_Driver/Src/stm32f4xx_hal_i2s.c ****   {
1135:Drivers/STM32F4xx_HAL_Driver/Src/stm32f4xx_hal_i2s.c ****     /* Disable the I2S DMA requests */
1136:Drivers/STM32F4xx_HAL_Driver/Src/stm32f4xx_hal_i2s.c ****     CLEAR_BIT(hi2s->Instance->CR2,(SPI_CR2_RXDMAEN | SPI_CR2_TXDMAEN));
1137:Drivers/STM32F4xx_HAL_Driver/Src/stm32f4xx_hal_i2s.c ****     CLEAR_BIT(I2SxEXT(hi2s->Instance)->CR2,(SPI_CR2_RXDMAEN | SPI_CR2_TXDMAEN));
1138:Drivers/STM32F4xx_HAL_Driver/Src/stm32f4xx_hal_i2s.c **** 
1139:Drivers/STM32F4xx_HAL_Driver/Src/stm32f4xx_hal_i2s.c ****     /* Disable the I2S DMA Channels */
1140:Drivers/STM32F4xx_HAL_Driver/Src/stm32f4xx_hal_i2s.c ****     HAL_DMA_Abort(hi2s->hdmatx);
1141:Drivers/STM32F4xx_HAL_Driver/Src/stm32f4xx_hal_i2s.c ****     HAL_DMA_Abort(hi2s->hdmarx);
1142:Drivers/STM32F4xx_HAL_Driver/Src/stm32f4xx_hal_i2s.c **** 
1143:Drivers/STM32F4xx_HAL_Driver/Src/stm32f4xx_hal_i2s.c ****     /* Disable I2Sext peripheral */
1144:Drivers/STM32F4xx_HAL_Driver/Src/stm32f4xx_hal_i2s.c ****     __HAL_I2SEXT_DISABLE(hi2s);
1145:Drivers/STM32F4xx_HAL_Driver/Src/stm32f4xx_hal_i2s.c ****   }
1146:Drivers/STM32F4xx_HAL_Driver/Src/stm32f4xx_hal_i2s.c **** #endif /* SPI_I2S_FULLDUPLEX_SUPPORT */
1147:Drivers/STM32F4xx_HAL_Driver/Src/stm32f4xx_hal_i2s.c **** 
1148:Drivers/STM32F4xx_HAL_Driver/Src/stm32f4xx_hal_i2s.c ****   /* Disable I2S peripheral */
1149:Drivers/STM32F4xx_HAL_Driver/Src/stm32f4xx_hal_i2s.c ****   __HAL_I2S_DISABLE(hi2s);
1150:Drivers/STM32F4xx_HAL_Driver/Src/stm32f4xx_hal_i2s.c **** 
1151:Drivers/STM32F4xx_HAL_Driver/Src/stm32f4xx_hal_i2s.c ****   hi2s->State = HAL_I2S_STATE_READY;
1152:Drivers/STM32F4xx_HAL_Driver/Src/stm32f4xx_hal_i2s.c **** 
1153:Drivers/STM32F4xx_HAL_Driver/Src/stm32f4xx_hal_i2s.c ****   /* Process Unlocked */
1154:Drivers/STM32F4xx_HAL_Driver/Src/stm32f4xx_hal_i2s.c ****   __HAL_UNLOCK(hi2s);
1155:Drivers/STM32F4xx_HAL_Driver/Src/stm32f4xx_hal_i2s.c **** 
1156:Drivers/STM32F4xx_HAL_Driver/Src/stm32f4xx_hal_i2s.c ****   return HAL_OK;
1157:Drivers/STM32F4xx_HAL_Driver/Src/stm32f4xx_hal_i2s.c **** }
1158:Drivers/STM32F4xx_HAL_Driver/Src/stm32f4xx_hal_i2s.c **** 
1159:Drivers/STM32F4xx_HAL_Driver/Src/stm32f4xx_hal_i2s.c **** /**
1160:Drivers/STM32F4xx_HAL_Driver/Src/stm32f4xx_hal_i2s.c ****   * @brief  This function handles I2S interrupt request.
1161:Drivers/STM32F4xx_HAL_Driver/Src/stm32f4xx_hal_i2s.c ****   * @param  hi2s pointer to a I2S_HandleTypeDef structure that contains
1162:Drivers/STM32F4xx_HAL_Driver/Src/stm32f4xx_hal_i2s.c ****   *         the configuration information for I2S module
1163:Drivers/STM32F4xx_HAL_Driver/Src/stm32f4xx_hal_i2s.c ****   * @retval None
1164:Drivers/STM32F4xx_HAL_Driver/Src/stm32f4xx_hal_i2s.c ****   */
1165:Drivers/STM32F4xx_HAL_Driver/Src/stm32f4xx_hal_i2s.c **** void HAL_I2S_IRQHandler(I2S_HandleTypeDef *hi2s)
1166:Drivers/STM32F4xx_HAL_Driver/Src/stm32f4xx_hal_i2s.c **** {
1167:Drivers/STM32F4xx_HAL_Driver/Src/stm32f4xx_hal_i2s.c ****   /* Call the IrqHandler ISR set during HAL_I2S_INIT */
1168:Drivers/STM32F4xx_HAL_Driver/Src/stm32f4xx_hal_i2s.c ****   hi2s->IrqHandlerISR(hi2s);
1169:Drivers/STM32F4xx_HAL_Driver/Src/stm32f4xx_hal_i2s.c **** }
1170:Drivers/STM32F4xx_HAL_Driver/Src/stm32f4xx_hal_i2s.c **** 
1171:Drivers/STM32F4xx_HAL_Driver/Src/stm32f4xx_hal_i2s.c **** /**
ARM GAS  /tmp/cceNxm2U.s 			page 22


1172:Drivers/STM32F4xx_HAL_Driver/Src/stm32f4xx_hal_i2s.c ****   * @brief Tx Transfer Half completed callbacks
1173:Drivers/STM32F4xx_HAL_Driver/Src/stm32f4xx_hal_i2s.c ****   * @param  hi2s pointer to a I2S_HandleTypeDef structure that contains
1174:Drivers/STM32F4xx_HAL_Driver/Src/stm32f4xx_hal_i2s.c ****   *         the configuration information for I2S module
1175:Drivers/STM32F4xx_HAL_Driver/Src/stm32f4xx_hal_i2s.c ****   * @retval None
1176:Drivers/STM32F4xx_HAL_Driver/Src/stm32f4xx_hal_i2s.c ****   */
1177:Drivers/STM32F4xx_HAL_Driver/Src/stm32f4xx_hal_i2s.c ****  __weak void HAL_I2S_TxHalfCpltCallback(I2S_HandleTypeDef *hi2s)
1178:Drivers/STM32F4xx_HAL_Driver/Src/stm32f4xx_hal_i2s.c **** {
1179:Drivers/STM32F4xx_HAL_Driver/Src/stm32f4xx_hal_i2s.c ****   /* Prevent unused argument(s) compilation warning */
1180:Drivers/STM32F4xx_HAL_Driver/Src/stm32f4xx_hal_i2s.c ****   UNUSED(hi2s);
1181:Drivers/STM32F4xx_HAL_Driver/Src/stm32f4xx_hal_i2s.c ****   /* NOTE : This function Should not be modified, when the callback is needed,
1182:Drivers/STM32F4xx_HAL_Driver/Src/stm32f4xx_hal_i2s.c ****             the HAL_I2S_TxHalfCpltCallback could be implemented in the user file
1183:Drivers/STM32F4xx_HAL_Driver/Src/stm32f4xx_hal_i2s.c ****    */
1184:Drivers/STM32F4xx_HAL_Driver/Src/stm32f4xx_hal_i2s.c **** }
1185:Drivers/STM32F4xx_HAL_Driver/Src/stm32f4xx_hal_i2s.c **** 
1186:Drivers/STM32F4xx_HAL_Driver/Src/stm32f4xx_hal_i2s.c **** /**
1187:Drivers/STM32F4xx_HAL_Driver/Src/stm32f4xx_hal_i2s.c ****   * @brief Tx Transfer completed callbacks
1188:Drivers/STM32F4xx_HAL_Driver/Src/stm32f4xx_hal_i2s.c ****   * @param  hi2s pointer to a I2S_HandleTypeDef structure that contains
1189:Drivers/STM32F4xx_HAL_Driver/Src/stm32f4xx_hal_i2s.c ****   *         the configuration information for I2S module
1190:Drivers/STM32F4xx_HAL_Driver/Src/stm32f4xx_hal_i2s.c ****   * @retval None
1191:Drivers/STM32F4xx_HAL_Driver/Src/stm32f4xx_hal_i2s.c ****   */
1192:Drivers/STM32F4xx_HAL_Driver/Src/stm32f4xx_hal_i2s.c ****  __weak void HAL_I2S_TxCpltCallback(I2S_HandleTypeDef *hi2s)
1193:Drivers/STM32F4xx_HAL_Driver/Src/stm32f4xx_hal_i2s.c **** {
1194:Drivers/STM32F4xx_HAL_Driver/Src/stm32f4xx_hal_i2s.c ****   /* Prevent unused argument(s) compilation warning */
1195:Drivers/STM32F4xx_HAL_Driver/Src/stm32f4xx_hal_i2s.c ****   UNUSED(hi2s);
1196:Drivers/STM32F4xx_HAL_Driver/Src/stm32f4xx_hal_i2s.c ****   /* NOTE : This function Should not be modified, when the callback is needed,
1197:Drivers/STM32F4xx_HAL_Driver/Src/stm32f4xx_hal_i2s.c ****             the HAL_I2S_TxCpltCallback could be implemented in the user file
1198:Drivers/STM32F4xx_HAL_Driver/Src/stm32f4xx_hal_i2s.c ****    */
1199:Drivers/STM32F4xx_HAL_Driver/Src/stm32f4xx_hal_i2s.c **** }
1200:Drivers/STM32F4xx_HAL_Driver/Src/stm32f4xx_hal_i2s.c **** 
1201:Drivers/STM32F4xx_HAL_Driver/Src/stm32f4xx_hal_i2s.c **** /**
1202:Drivers/STM32F4xx_HAL_Driver/Src/stm32f4xx_hal_i2s.c ****   * @brief Rx Transfer half completed callbacks
1203:Drivers/STM32F4xx_HAL_Driver/Src/stm32f4xx_hal_i2s.c ****   * @param  hi2s pointer to a I2S_HandleTypeDef structure that contains
1204:Drivers/STM32F4xx_HAL_Driver/Src/stm32f4xx_hal_i2s.c ****   *         the configuration information for I2S module
1205:Drivers/STM32F4xx_HAL_Driver/Src/stm32f4xx_hal_i2s.c ****   * @retval None
1206:Drivers/STM32F4xx_HAL_Driver/Src/stm32f4xx_hal_i2s.c ****   */
1207:Drivers/STM32F4xx_HAL_Driver/Src/stm32f4xx_hal_i2s.c **** __weak void HAL_I2S_RxHalfCpltCallback(I2S_HandleTypeDef *hi2s)
1208:Drivers/STM32F4xx_HAL_Driver/Src/stm32f4xx_hal_i2s.c **** {
1209:Drivers/STM32F4xx_HAL_Driver/Src/stm32f4xx_hal_i2s.c ****   /* Prevent unused argument(s) compilation warning */
1210:Drivers/STM32F4xx_HAL_Driver/Src/stm32f4xx_hal_i2s.c ****   UNUSED(hi2s);
1211:Drivers/STM32F4xx_HAL_Driver/Src/stm32f4xx_hal_i2s.c ****   /* NOTE : This function Should not be modified, when the callback is needed,
1212:Drivers/STM32F4xx_HAL_Driver/Src/stm32f4xx_hal_i2s.c ****             the HAL_I2S_RxCpltCallback could be implemented in the user file
1213:Drivers/STM32F4xx_HAL_Driver/Src/stm32f4xx_hal_i2s.c ****    */
1214:Drivers/STM32F4xx_HAL_Driver/Src/stm32f4xx_hal_i2s.c **** }
1215:Drivers/STM32F4xx_HAL_Driver/Src/stm32f4xx_hal_i2s.c **** 
1216:Drivers/STM32F4xx_HAL_Driver/Src/stm32f4xx_hal_i2s.c **** /**
1217:Drivers/STM32F4xx_HAL_Driver/Src/stm32f4xx_hal_i2s.c ****   * @brief Rx Transfer completed callbacks
1218:Drivers/STM32F4xx_HAL_Driver/Src/stm32f4xx_hal_i2s.c ****   * @param  hi2s pointer to a I2S_HandleTypeDef structure that contains
1219:Drivers/STM32F4xx_HAL_Driver/Src/stm32f4xx_hal_i2s.c ****   *         the configuration information for I2S module
1220:Drivers/STM32F4xx_HAL_Driver/Src/stm32f4xx_hal_i2s.c ****   * @retval None
1221:Drivers/STM32F4xx_HAL_Driver/Src/stm32f4xx_hal_i2s.c ****   */
1222:Drivers/STM32F4xx_HAL_Driver/Src/stm32f4xx_hal_i2s.c **** __weak void HAL_I2S_RxCpltCallback(I2S_HandleTypeDef *hi2s)
1223:Drivers/STM32F4xx_HAL_Driver/Src/stm32f4xx_hal_i2s.c **** {
1224:Drivers/STM32F4xx_HAL_Driver/Src/stm32f4xx_hal_i2s.c ****   /* Prevent unused argument(s) compilation warning */
1225:Drivers/STM32F4xx_HAL_Driver/Src/stm32f4xx_hal_i2s.c ****   UNUSED(hi2s);
1226:Drivers/STM32F4xx_HAL_Driver/Src/stm32f4xx_hal_i2s.c ****   /* NOTE : This function Should not be modified, when the callback is needed,
1227:Drivers/STM32F4xx_HAL_Driver/Src/stm32f4xx_hal_i2s.c ****             the HAL_I2S_RxCpltCallback could be implemented in the user file
1228:Drivers/STM32F4xx_HAL_Driver/Src/stm32f4xx_hal_i2s.c ****    */
ARM GAS  /tmp/cceNxm2U.s 			page 23


1229:Drivers/STM32F4xx_HAL_Driver/Src/stm32f4xx_hal_i2s.c **** }
1230:Drivers/STM32F4xx_HAL_Driver/Src/stm32f4xx_hal_i2s.c **** 
1231:Drivers/STM32F4xx_HAL_Driver/Src/stm32f4xx_hal_i2s.c **** /**
1232:Drivers/STM32F4xx_HAL_Driver/Src/stm32f4xx_hal_i2s.c ****   * @brief I2S error callbacks
1233:Drivers/STM32F4xx_HAL_Driver/Src/stm32f4xx_hal_i2s.c ****   * @param  hi2s pointer to a I2S_HandleTypeDef structure that contains
1234:Drivers/STM32F4xx_HAL_Driver/Src/stm32f4xx_hal_i2s.c ****   *         the configuration information for I2S module
1235:Drivers/STM32F4xx_HAL_Driver/Src/stm32f4xx_hal_i2s.c ****   * @retval None
1236:Drivers/STM32F4xx_HAL_Driver/Src/stm32f4xx_hal_i2s.c ****   */
1237:Drivers/STM32F4xx_HAL_Driver/Src/stm32f4xx_hal_i2s.c ****  __weak void HAL_I2S_ErrorCallback(I2S_HandleTypeDef *hi2s)
1238:Drivers/STM32F4xx_HAL_Driver/Src/stm32f4xx_hal_i2s.c **** {
1239:Drivers/STM32F4xx_HAL_Driver/Src/stm32f4xx_hal_i2s.c ****   /* Prevent unused argument(s) compilation warning */
1240:Drivers/STM32F4xx_HAL_Driver/Src/stm32f4xx_hal_i2s.c ****   UNUSED(hi2s);
1241:Drivers/STM32F4xx_HAL_Driver/Src/stm32f4xx_hal_i2s.c ****   /* NOTE : This function Should not be modified, when the callback is needed,
1242:Drivers/STM32F4xx_HAL_Driver/Src/stm32f4xx_hal_i2s.c ****             the HAL_I2S_ErrorCallback could be implemented in the user file
1243:Drivers/STM32F4xx_HAL_Driver/Src/stm32f4xx_hal_i2s.c ****    */
1244:Drivers/STM32F4xx_HAL_Driver/Src/stm32f4xx_hal_i2s.c **** }
1245:Drivers/STM32F4xx_HAL_Driver/Src/stm32f4xx_hal_i2s.c **** 
1246:Drivers/STM32F4xx_HAL_Driver/Src/stm32f4xx_hal_i2s.c **** /**
1247:Drivers/STM32F4xx_HAL_Driver/Src/stm32f4xx_hal_i2s.c ****   * @}
1248:Drivers/STM32F4xx_HAL_Driver/Src/stm32f4xx_hal_i2s.c ****   */
1249:Drivers/STM32F4xx_HAL_Driver/Src/stm32f4xx_hal_i2s.c **** 
1250:Drivers/STM32F4xx_HAL_Driver/Src/stm32f4xx_hal_i2s.c **** /** @addtogroup I2S_Exported_Functions_Group3
1251:Drivers/STM32F4xx_HAL_Driver/Src/stm32f4xx_hal_i2s.c ****   *  @brief   Peripheral State functions
1252:Drivers/STM32F4xx_HAL_Driver/Src/stm32f4xx_hal_i2s.c ****   *
1253:Drivers/STM32F4xx_HAL_Driver/Src/stm32f4xx_hal_i2s.c **** @verbatim
1254:Drivers/STM32F4xx_HAL_Driver/Src/stm32f4xx_hal_i2s.c ****  ===============================================================================
1255:Drivers/STM32F4xx_HAL_Driver/Src/stm32f4xx_hal_i2s.c ****                       ##### Peripheral State and Errors functions #####
1256:Drivers/STM32F4xx_HAL_Driver/Src/stm32f4xx_hal_i2s.c ****  ===============================================================================
1257:Drivers/STM32F4xx_HAL_Driver/Src/stm32f4xx_hal_i2s.c ****     [..]
1258:Drivers/STM32F4xx_HAL_Driver/Src/stm32f4xx_hal_i2s.c ****     This subsection permits to get in run-time the status of the peripheral
1259:Drivers/STM32F4xx_HAL_Driver/Src/stm32f4xx_hal_i2s.c ****     and the data flow.
1260:Drivers/STM32F4xx_HAL_Driver/Src/stm32f4xx_hal_i2s.c **** 
1261:Drivers/STM32F4xx_HAL_Driver/Src/stm32f4xx_hal_i2s.c **** @endverbatim
1262:Drivers/STM32F4xx_HAL_Driver/Src/stm32f4xx_hal_i2s.c ****   * @{
1263:Drivers/STM32F4xx_HAL_Driver/Src/stm32f4xx_hal_i2s.c ****   */
1264:Drivers/STM32F4xx_HAL_Driver/Src/stm32f4xx_hal_i2s.c **** 
1265:Drivers/STM32F4xx_HAL_Driver/Src/stm32f4xx_hal_i2s.c **** /**
1266:Drivers/STM32F4xx_HAL_Driver/Src/stm32f4xx_hal_i2s.c ****   * @brief  Return the I2S state
1267:Drivers/STM32F4xx_HAL_Driver/Src/stm32f4xx_hal_i2s.c ****   * @param  hi2s pointer to a I2S_HandleTypeDef structure that contains
1268:Drivers/STM32F4xx_HAL_Driver/Src/stm32f4xx_hal_i2s.c ****   *         the configuration information for I2S module
1269:Drivers/STM32F4xx_HAL_Driver/Src/stm32f4xx_hal_i2s.c ****   * @retval HAL state
1270:Drivers/STM32F4xx_HAL_Driver/Src/stm32f4xx_hal_i2s.c ****   */
1271:Drivers/STM32F4xx_HAL_Driver/Src/stm32f4xx_hal_i2s.c **** HAL_I2S_StateTypeDef HAL_I2S_GetState(I2S_HandleTypeDef *hi2s)
1272:Drivers/STM32F4xx_HAL_Driver/Src/stm32f4xx_hal_i2s.c **** {
1273:Drivers/STM32F4xx_HAL_Driver/Src/stm32f4xx_hal_i2s.c ****   return hi2s->State;
1274:Drivers/STM32F4xx_HAL_Driver/Src/stm32f4xx_hal_i2s.c **** }
1275:Drivers/STM32F4xx_HAL_Driver/Src/stm32f4xx_hal_i2s.c **** 
1276:Drivers/STM32F4xx_HAL_Driver/Src/stm32f4xx_hal_i2s.c **** /**
1277:Drivers/STM32F4xx_HAL_Driver/Src/stm32f4xx_hal_i2s.c ****   * @brief  Return the I2S error code
1278:Drivers/STM32F4xx_HAL_Driver/Src/stm32f4xx_hal_i2s.c ****   * @param  hi2s pointer to a I2S_HandleTypeDef structure that contains
1279:Drivers/STM32F4xx_HAL_Driver/Src/stm32f4xx_hal_i2s.c ****   *         the configuration information for I2S module
1280:Drivers/STM32F4xx_HAL_Driver/Src/stm32f4xx_hal_i2s.c ****   * @retval I2S Error Code
1281:Drivers/STM32F4xx_HAL_Driver/Src/stm32f4xx_hal_i2s.c ****   */
1282:Drivers/STM32F4xx_HAL_Driver/Src/stm32f4xx_hal_i2s.c **** uint32_t HAL_I2S_GetError(I2S_HandleTypeDef *hi2s)
1283:Drivers/STM32F4xx_HAL_Driver/Src/stm32f4xx_hal_i2s.c **** {
1284:Drivers/STM32F4xx_HAL_Driver/Src/stm32f4xx_hal_i2s.c ****   return hi2s->ErrorCode;
1285:Drivers/STM32F4xx_HAL_Driver/Src/stm32f4xx_hal_i2s.c **** }
ARM GAS  /tmp/cceNxm2U.s 			page 24


1286:Drivers/STM32F4xx_HAL_Driver/Src/stm32f4xx_hal_i2s.c **** /**
1287:Drivers/STM32F4xx_HAL_Driver/Src/stm32f4xx_hal_i2s.c ****   * @}
1288:Drivers/STM32F4xx_HAL_Driver/Src/stm32f4xx_hal_i2s.c ****   */
1289:Drivers/STM32F4xx_HAL_Driver/Src/stm32f4xx_hal_i2s.c **** 
1290:Drivers/STM32F4xx_HAL_Driver/Src/stm32f4xx_hal_i2s.c **** /**
1291:Drivers/STM32F4xx_HAL_Driver/Src/stm32f4xx_hal_i2s.c ****   * @}
1292:Drivers/STM32F4xx_HAL_Driver/Src/stm32f4xx_hal_i2s.c ****   */
1293:Drivers/STM32F4xx_HAL_Driver/Src/stm32f4xx_hal_i2s.c **** 
1294:Drivers/STM32F4xx_HAL_Driver/Src/stm32f4xx_hal_i2s.c **** /** @addtogroup I2S_Private_Functions I2S Private Functions
1295:Drivers/STM32F4xx_HAL_Driver/Src/stm32f4xx_hal_i2s.c ****   * @{
1296:Drivers/STM32F4xx_HAL_Driver/Src/stm32f4xx_hal_i2s.c ****   */
1297:Drivers/STM32F4xx_HAL_Driver/Src/stm32f4xx_hal_i2s.c **** /**
1298:Drivers/STM32F4xx_HAL_Driver/Src/stm32f4xx_hal_i2s.c ****   * @brief DMA I2S transmit process complete callback
1299:Drivers/STM32F4xx_HAL_Driver/Src/stm32f4xx_hal_i2s.c ****   * @param  hdma pointer to a DMA_HandleTypeDef structure that contains
1300:Drivers/STM32F4xx_HAL_Driver/Src/stm32f4xx_hal_i2s.c ****   *                the configuration information for the specified DMA module.
1301:Drivers/STM32F4xx_HAL_Driver/Src/stm32f4xx_hal_i2s.c ****   * @retval None
1302:Drivers/STM32F4xx_HAL_Driver/Src/stm32f4xx_hal_i2s.c ****   */
1303:Drivers/STM32F4xx_HAL_Driver/Src/stm32f4xx_hal_i2s.c **** static void I2S_DMATxCplt(DMA_HandleTypeDef *hdma)
1304:Drivers/STM32F4xx_HAL_Driver/Src/stm32f4xx_hal_i2s.c **** {
1305:Drivers/STM32F4xx_HAL_Driver/Src/stm32f4xx_hal_i2s.c ****   I2S_HandleTypeDef* hi2s = ( I2S_HandleTypeDef* )((DMA_HandleTypeDef* )hdma)->Parent;
1306:Drivers/STM32F4xx_HAL_Driver/Src/stm32f4xx_hal_i2s.c **** 
1307:Drivers/STM32F4xx_HAL_Driver/Src/stm32f4xx_hal_i2s.c ****   if((hdma->Instance->CR & DMA_SxCR_CIRC) == 0U)
1308:Drivers/STM32F4xx_HAL_Driver/Src/stm32f4xx_hal_i2s.c ****   {
1309:Drivers/STM32F4xx_HAL_Driver/Src/stm32f4xx_hal_i2s.c ****     /* Disable Tx DMA Request */
1310:Drivers/STM32F4xx_HAL_Driver/Src/stm32f4xx_hal_i2s.c ****     CLEAR_BIT(hi2s->Instance->CR2,SPI_CR2_TXDMAEN);
1311:Drivers/STM32F4xx_HAL_Driver/Src/stm32f4xx_hal_i2s.c **** 
1312:Drivers/STM32F4xx_HAL_Driver/Src/stm32f4xx_hal_i2s.c ****     hi2s->TxXferCount = 0U;
1313:Drivers/STM32F4xx_HAL_Driver/Src/stm32f4xx_hal_i2s.c ****     hi2s->State       = HAL_I2S_STATE_READY;
1314:Drivers/STM32F4xx_HAL_Driver/Src/stm32f4xx_hal_i2s.c ****   }
1315:Drivers/STM32F4xx_HAL_Driver/Src/stm32f4xx_hal_i2s.c ****   HAL_I2S_TxCpltCallback(hi2s);
1316:Drivers/STM32F4xx_HAL_Driver/Src/stm32f4xx_hal_i2s.c **** }
1317:Drivers/STM32F4xx_HAL_Driver/Src/stm32f4xx_hal_i2s.c **** /**
1318:Drivers/STM32F4xx_HAL_Driver/Src/stm32f4xx_hal_i2s.c ****   * @brief DMA I2S transmit process half complete callback
1319:Drivers/STM32F4xx_HAL_Driver/Src/stm32f4xx_hal_i2s.c ****   * @param  hdma pointer to a DMA_HandleTypeDef structure that contains
1320:Drivers/STM32F4xx_HAL_Driver/Src/stm32f4xx_hal_i2s.c ****   *                the configuration information for the specified DMA module.
1321:Drivers/STM32F4xx_HAL_Driver/Src/stm32f4xx_hal_i2s.c ****   * @retval None
1322:Drivers/STM32F4xx_HAL_Driver/Src/stm32f4xx_hal_i2s.c ****   */
1323:Drivers/STM32F4xx_HAL_Driver/Src/stm32f4xx_hal_i2s.c **** static void I2S_DMATxHalfCplt(DMA_HandleTypeDef *hdma)
1324:Drivers/STM32F4xx_HAL_Driver/Src/stm32f4xx_hal_i2s.c **** {
1325:Drivers/STM32F4xx_HAL_Driver/Src/stm32f4xx_hal_i2s.c ****   I2S_HandleTypeDef* hi2s = (I2S_HandleTypeDef*)((DMA_HandleTypeDef*)hdma)->Parent;
1326:Drivers/STM32F4xx_HAL_Driver/Src/stm32f4xx_hal_i2s.c **** 
1327:Drivers/STM32F4xx_HAL_Driver/Src/stm32f4xx_hal_i2s.c ****   HAL_I2S_TxHalfCpltCallback(hi2s);
1328:Drivers/STM32F4xx_HAL_Driver/Src/stm32f4xx_hal_i2s.c **** }
1329:Drivers/STM32F4xx_HAL_Driver/Src/stm32f4xx_hal_i2s.c **** 
1330:Drivers/STM32F4xx_HAL_Driver/Src/stm32f4xx_hal_i2s.c **** /**
1331:Drivers/STM32F4xx_HAL_Driver/Src/stm32f4xx_hal_i2s.c ****   * @brief DMA I2S receive process complete callback
1332:Drivers/STM32F4xx_HAL_Driver/Src/stm32f4xx_hal_i2s.c ****   * @param  hdma pointer to a DMA_HandleTypeDef structure that contains
1333:Drivers/STM32F4xx_HAL_Driver/Src/stm32f4xx_hal_i2s.c ****   *                the configuration information for the specified DMA module.
1334:Drivers/STM32F4xx_HAL_Driver/Src/stm32f4xx_hal_i2s.c ****   * @retval None
1335:Drivers/STM32F4xx_HAL_Driver/Src/stm32f4xx_hal_i2s.c ****   */
1336:Drivers/STM32F4xx_HAL_Driver/Src/stm32f4xx_hal_i2s.c **** static void I2S_DMARxCplt(DMA_HandleTypeDef *hdma)
1337:Drivers/STM32F4xx_HAL_Driver/Src/stm32f4xx_hal_i2s.c **** {
1338:Drivers/STM32F4xx_HAL_Driver/Src/stm32f4xx_hal_i2s.c ****   I2S_HandleTypeDef* hi2s = ( I2S_HandleTypeDef* )((DMA_HandleTypeDef* )hdma)->Parent;
1339:Drivers/STM32F4xx_HAL_Driver/Src/stm32f4xx_hal_i2s.c **** 
1340:Drivers/STM32F4xx_HAL_Driver/Src/stm32f4xx_hal_i2s.c ****   if((hdma->Instance->CR & DMA_SxCR_CIRC) == 0U)
1341:Drivers/STM32F4xx_HAL_Driver/Src/stm32f4xx_hal_i2s.c ****   {
1342:Drivers/STM32F4xx_HAL_Driver/Src/stm32f4xx_hal_i2s.c ****     /* Disable Rx DMA Request */
ARM GAS  /tmp/cceNxm2U.s 			page 25


1343:Drivers/STM32F4xx_HAL_Driver/Src/stm32f4xx_hal_i2s.c ****     CLEAR_BIT(hi2s->Instance->CR2,SPI_CR2_RXDMAEN);
1344:Drivers/STM32F4xx_HAL_Driver/Src/stm32f4xx_hal_i2s.c ****     hi2s->RxXferCount = 0U;
1345:Drivers/STM32F4xx_HAL_Driver/Src/stm32f4xx_hal_i2s.c ****     hi2s->State       = HAL_I2S_STATE_READY;
1346:Drivers/STM32F4xx_HAL_Driver/Src/stm32f4xx_hal_i2s.c ****   }
1347:Drivers/STM32F4xx_HAL_Driver/Src/stm32f4xx_hal_i2s.c ****   HAL_I2S_RxCpltCallback(hi2s);
1348:Drivers/STM32F4xx_HAL_Driver/Src/stm32f4xx_hal_i2s.c **** }
1349:Drivers/STM32F4xx_HAL_Driver/Src/stm32f4xx_hal_i2s.c **** 
1350:Drivers/STM32F4xx_HAL_Driver/Src/stm32f4xx_hal_i2s.c **** /**
1351:Drivers/STM32F4xx_HAL_Driver/Src/stm32f4xx_hal_i2s.c ****   * @brief DMA I2S receive process half complete callback
1352:Drivers/STM32F4xx_HAL_Driver/Src/stm32f4xx_hal_i2s.c ****   * @param  hdma pointer to a DMA_HandleTypeDef structure that contains
1353:Drivers/STM32F4xx_HAL_Driver/Src/stm32f4xx_hal_i2s.c ****   *                the configuration information for the specified DMA module.
1354:Drivers/STM32F4xx_HAL_Driver/Src/stm32f4xx_hal_i2s.c ****   * @retval None
1355:Drivers/STM32F4xx_HAL_Driver/Src/stm32f4xx_hal_i2s.c ****   */
1356:Drivers/STM32F4xx_HAL_Driver/Src/stm32f4xx_hal_i2s.c **** static void I2S_DMARxHalfCplt(DMA_HandleTypeDef *hdma)
1357:Drivers/STM32F4xx_HAL_Driver/Src/stm32f4xx_hal_i2s.c **** {
1358:Drivers/STM32F4xx_HAL_Driver/Src/stm32f4xx_hal_i2s.c ****   I2S_HandleTypeDef* hi2s = (I2S_HandleTypeDef*)((DMA_HandleTypeDef*)hdma)->Parent;
1359:Drivers/STM32F4xx_HAL_Driver/Src/stm32f4xx_hal_i2s.c **** 
1360:Drivers/STM32F4xx_HAL_Driver/Src/stm32f4xx_hal_i2s.c ****   HAL_I2S_RxHalfCpltCallback(hi2s);
1361:Drivers/STM32F4xx_HAL_Driver/Src/stm32f4xx_hal_i2s.c **** }
1362:Drivers/STM32F4xx_HAL_Driver/Src/stm32f4xx_hal_i2s.c **** 
1363:Drivers/STM32F4xx_HAL_Driver/Src/stm32f4xx_hal_i2s.c **** /**
1364:Drivers/STM32F4xx_HAL_Driver/Src/stm32f4xx_hal_i2s.c ****   * @brief DMA I2S communication error callback
1365:Drivers/STM32F4xx_HAL_Driver/Src/stm32f4xx_hal_i2s.c ****   * @param  hdma pointer to a DMA_HandleTypeDef structure that contains
1366:Drivers/STM32F4xx_HAL_Driver/Src/stm32f4xx_hal_i2s.c ****   *                the configuration information for the specified DMA module.
1367:Drivers/STM32F4xx_HAL_Driver/Src/stm32f4xx_hal_i2s.c ****   * @retval None
1368:Drivers/STM32F4xx_HAL_Driver/Src/stm32f4xx_hal_i2s.c ****   */
1369:Drivers/STM32F4xx_HAL_Driver/Src/stm32f4xx_hal_i2s.c **** static void I2S_DMAError(DMA_HandleTypeDef *hdma)
1370:Drivers/STM32F4xx_HAL_Driver/Src/stm32f4xx_hal_i2s.c **** {
1371:Drivers/STM32F4xx_HAL_Driver/Src/stm32f4xx_hal_i2s.c ****   I2S_HandleTypeDef* hi2s = (I2S_HandleTypeDef*)((DMA_HandleTypeDef*)hdma)->Parent;
1372:Drivers/STM32F4xx_HAL_Driver/Src/stm32f4xx_hal_i2s.c **** 
1373:Drivers/STM32F4xx_HAL_Driver/Src/stm32f4xx_hal_i2s.c ****   /* Disable Rx and Tx DMA Request */
1374:Drivers/STM32F4xx_HAL_Driver/Src/stm32f4xx_hal_i2s.c ****   CLEAR_BIT(hi2s->Instance->CR2,(SPI_CR2_RXDMAEN | SPI_CR2_TXDMAEN));
1375:Drivers/STM32F4xx_HAL_Driver/Src/stm32f4xx_hal_i2s.c ****   hi2s->TxXferCount = 0U;
1376:Drivers/STM32F4xx_HAL_Driver/Src/stm32f4xx_hal_i2s.c ****   hi2s->RxXferCount = 0U;
1377:Drivers/STM32F4xx_HAL_Driver/Src/stm32f4xx_hal_i2s.c **** 
1378:Drivers/STM32F4xx_HAL_Driver/Src/stm32f4xx_hal_i2s.c ****   hi2s->State= HAL_I2S_STATE_READY;
1379:Drivers/STM32F4xx_HAL_Driver/Src/stm32f4xx_hal_i2s.c **** 
1380:Drivers/STM32F4xx_HAL_Driver/Src/stm32f4xx_hal_i2s.c ****   SET_BIT(hi2s->ErrorCode,HAL_I2S_ERROR_DMA);
1381:Drivers/STM32F4xx_HAL_Driver/Src/stm32f4xx_hal_i2s.c ****   HAL_I2S_ErrorCallback(hi2s);
1382:Drivers/STM32F4xx_HAL_Driver/Src/stm32f4xx_hal_i2s.c **** }
1383:Drivers/STM32F4xx_HAL_Driver/Src/stm32f4xx_hal_i2s.c **** 
1384:Drivers/STM32F4xx_HAL_Driver/Src/stm32f4xx_hal_i2s.c **** /**
1385:Drivers/STM32F4xx_HAL_Driver/Src/stm32f4xx_hal_i2s.c ****   * @brief Transmit an amount of data in non-blocking mode with Interrupt
1386:Drivers/STM32F4xx_HAL_Driver/Src/stm32f4xx_hal_i2s.c ****   * @param  hi2s pointer to a I2S_HandleTypeDef structure that contains
1387:Drivers/STM32F4xx_HAL_Driver/Src/stm32f4xx_hal_i2s.c ****   *         the configuration information for I2S module
1388:Drivers/STM32F4xx_HAL_Driver/Src/stm32f4xx_hal_i2s.c ****   * @retval HAL status
1389:Drivers/STM32F4xx_HAL_Driver/Src/stm32f4xx_hal_i2s.c ****   */
1390:Drivers/STM32F4xx_HAL_Driver/Src/stm32f4xx_hal_i2s.c **** static void I2S_Transmit_IT(I2S_HandleTypeDef *hi2s)
1391:Drivers/STM32F4xx_HAL_Driver/Src/stm32f4xx_hal_i2s.c **** {
1392:Drivers/STM32F4xx_HAL_Driver/Src/stm32f4xx_hal_i2s.c ****   /* Transmit data */
1393:Drivers/STM32F4xx_HAL_Driver/Src/stm32f4xx_hal_i2s.c ****   hi2s->Instance->DR = (*hi2s->pTxBuffPtr++);
1394:Drivers/STM32F4xx_HAL_Driver/Src/stm32f4xx_hal_i2s.c ****   hi2s->TxXferCount--;
1395:Drivers/STM32F4xx_HAL_Driver/Src/stm32f4xx_hal_i2s.c **** 
1396:Drivers/STM32F4xx_HAL_Driver/Src/stm32f4xx_hal_i2s.c ****   if(hi2s->TxXferCount == 0U)
1397:Drivers/STM32F4xx_HAL_Driver/Src/stm32f4xx_hal_i2s.c ****   {
1398:Drivers/STM32F4xx_HAL_Driver/Src/stm32f4xx_hal_i2s.c ****     /* Disable TXE and ERR interrupt */
1399:Drivers/STM32F4xx_HAL_Driver/Src/stm32f4xx_hal_i2s.c ****     __HAL_I2S_DISABLE_IT(hi2s, (I2S_IT_TXE | I2S_IT_ERR));
ARM GAS  /tmp/cceNxm2U.s 			page 26


1400:Drivers/STM32F4xx_HAL_Driver/Src/stm32f4xx_hal_i2s.c **** 
1401:Drivers/STM32F4xx_HAL_Driver/Src/stm32f4xx_hal_i2s.c ****     hi2s->State = HAL_I2S_STATE_READY;
1402:Drivers/STM32F4xx_HAL_Driver/Src/stm32f4xx_hal_i2s.c ****     HAL_I2S_TxCpltCallback(hi2s);
1403:Drivers/STM32F4xx_HAL_Driver/Src/stm32f4xx_hal_i2s.c ****   }
1404:Drivers/STM32F4xx_HAL_Driver/Src/stm32f4xx_hal_i2s.c **** }
1405:Drivers/STM32F4xx_HAL_Driver/Src/stm32f4xx_hal_i2s.c **** 
1406:Drivers/STM32F4xx_HAL_Driver/Src/stm32f4xx_hal_i2s.c **** /**
1407:Drivers/STM32F4xx_HAL_Driver/Src/stm32f4xx_hal_i2s.c ****   * @brief Receive an amount of data in non-blocking mode with Interrupt
1408:Drivers/STM32F4xx_HAL_Driver/Src/stm32f4xx_hal_i2s.c ****   * @param  hi2s pointer to a I2S_HandleTypeDef structure that contains
1409:Drivers/STM32F4xx_HAL_Driver/Src/stm32f4xx_hal_i2s.c ****   *         the configuration information for I2S module
1410:Drivers/STM32F4xx_HAL_Driver/Src/stm32f4xx_hal_i2s.c ****   * @retval HAL status
1411:Drivers/STM32F4xx_HAL_Driver/Src/stm32f4xx_hal_i2s.c ****   */
1412:Drivers/STM32F4xx_HAL_Driver/Src/stm32f4xx_hal_i2s.c **** static void I2S_Receive_IT(I2S_HandleTypeDef *hi2s)
1413:Drivers/STM32F4xx_HAL_Driver/Src/stm32f4xx_hal_i2s.c **** {
1414:Drivers/STM32F4xx_HAL_Driver/Src/stm32f4xx_hal_i2s.c ****   /* Receive data */
1415:Drivers/STM32F4xx_HAL_Driver/Src/stm32f4xx_hal_i2s.c ****   (*hi2s->pRxBuffPtr++) = hi2s->Instance->DR;
1416:Drivers/STM32F4xx_HAL_Driver/Src/stm32f4xx_hal_i2s.c ****   hi2s->RxXferCount--;
1417:Drivers/STM32F4xx_HAL_Driver/Src/stm32f4xx_hal_i2s.c **** 
1418:Drivers/STM32F4xx_HAL_Driver/Src/stm32f4xx_hal_i2s.c ****   if(hi2s->RxXferCount == 0U)
1419:Drivers/STM32F4xx_HAL_Driver/Src/stm32f4xx_hal_i2s.c ****   {
1420:Drivers/STM32F4xx_HAL_Driver/Src/stm32f4xx_hal_i2s.c ****     /* Disable RXNE and ERR interrupt */
1421:Drivers/STM32F4xx_HAL_Driver/Src/stm32f4xx_hal_i2s.c ****     __HAL_I2S_DISABLE_IT(hi2s, (I2S_IT_RXNE | I2S_IT_ERR));
1422:Drivers/STM32F4xx_HAL_Driver/Src/stm32f4xx_hal_i2s.c **** 
1423:Drivers/STM32F4xx_HAL_Driver/Src/stm32f4xx_hal_i2s.c ****     hi2s->State = HAL_I2S_STATE_READY;
1424:Drivers/STM32F4xx_HAL_Driver/Src/stm32f4xx_hal_i2s.c ****     HAL_I2S_RxCpltCallback(hi2s);
1425:Drivers/STM32F4xx_HAL_Driver/Src/stm32f4xx_hal_i2s.c ****   }
1426:Drivers/STM32F4xx_HAL_Driver/Src/stm32f4xx_hal_i2s.c **** }
1427:Drivers/STM32F4xx_HAL_Driver/Src/stm32f4xx_hal_i2s.c **** 
1428:Drivers/STM32F4xx_HAL_Driver/Src/stm32f4xx_hal_i2s.c **** /**
1429:Drivers/STM32F4xx_HAL_Driver/Src/stm32f4xx_hal_i2s.c ****   * @brief  This function handles I2S interrupt request.
1430:Drivers/STM32F4xx_HAL_Driver/Src/stm32f4xx_hal_i2s.c ****   * @param  hi2s pointer to a I2S_HandleTypeDef structure that contains
1431:Drivers/STM32F4xx_HAL_Driver/Src/stm32f4xx_hal_i2s.c ****   *         the configuration information for I2S module
1432:Drivers/STM32F4xx_HAL_Driver/Src/stm32f4xx_hal_i2s.c ****   * @retval None
1433:Drivers/STM32F4xx_HAL_Driver/Src/stm32f4xx_hal_i2s.c ****   */
1434:Drivers/STM32F4xx_HAL_Driver/Src/stm32f4xx_hal_i2s.c **** static void I2S_IRQHandler(I2S_HandleTypeDef *hi2s)
1435:Drivers/STM32F4xx_HAL_Driver/Src/stm32f4xx_hal_i2s.c **** {
1436:Drivers/STM32F4xx_HAL_Driver/Src/stm32f4xx_hal_i2s.c ****   __IO uint32_t i2ssr = hi2s->Instance->SR;
1437:Drivers/STM32F4xx_HAL_Driver/Src/stm32f4xx_hal_i2s.c **** 
1438:Drivers/STM32F4xx_HAL_Driver/Src/stm32f4xx_hal_i2s.c ****   if(hi2s->State == HAL_I2S_STATE_BUSY_RX)
1439:Drivers/STM32F4xx_HAL_Driver/Src/stm32f4xx_hal_i2s.c ****   {
1440:Drivers/STM32F4xx_HAL_Driver/Src/stm32f4xx_hal_i2s.c ****     /* I2S in mode Receiver ------------------------------------------------*/
1441:Drivers/STM32F4xx_HAL_Driver/Src/stm32f4xx_hal_i2s.c ****     if(((i2ssr & I2S_FLAG_RXNE) == I2S_FLAG_RXNE) && (__HAL_I2S_GET_IT_SOURCE(hi2s, I2S_IT_RXNE) !=
1442:Drivers/STM32F4xx_HAL_Driver/Src/stm32f4xx_hal_i2s.c ****     {
1443:Drivers/STM32F4xx_HAL_Driver/Src/stm32f4xx_hal_i2s.c ****       I2S_Receive_IT(hi2s);
1444:Drivers/STM32F4xx_HAL_Driver/Src/stm32f4xx_hal_i2s.c ****     }
1445:Drivers/STM32F4xx_HAL_Driver/Src/stm32f4xx_hal_i2s.c **** 
1446:Drivers/STM32F4xx_HAL_Driver/Src/stm32f4xx_hal_i2s.c ****     /* I2S Overrun error interrupt occured -------------------------------------*/
1447:Drivers/STM32F4xx_HAL_Driver/Src/stm32f4xx_hal_i2s.c ****     if(((i2ssr & I2S_FLAG_OVR) == I2S_FLAG_OVR) && (__HAL_I2S_GET_IT_SOURCE(hi2s, I2S_IT_ERR) != RE
1448:Drivers/STM32F4xx_HAL_Driver/Src/stm32f4xx_hal_i2s.c ****     {
1449:Drivers/STM32F4xx_HAL_Driver/Src/stm32f4xx_hal_i2s.c ****       /* Disable RXNE and ERR interrupt */
1450:Drivers/STM32F4xx_HAL_Driver/Src/stm32f4xx_hal_i2s.c ****       __HAL_I2S_DISABLE_IT(hi2s, (I2S_IT_RXNE | I2S_IT_ERR));
1451:Drivers/STM32F4xx_HAL_Driver/Src/stm32f4xx_hal_i2s.c **** 
1452:Drivers/STM32F4xx_HAL_Driver/Src/stm32f4xx_hal_i2s.c ****       /* Clear Overrun flag */
1453:Drivers/STM32F4xx_HAL_Driver/Src/stm32f4xx_hal_i2s.c ****       __HAL_I2S_CLEAR_OVRFLAG(hi2s);
1454:Drivers/STM32F4xx_HAL_Driver/Src/stm32f4xx_hal_i2s.c **** 
1455:Drivers/STM32F4xx_HAL_Driver/Src/stm32f4xx_hal_i2s.c ****       /* Set the I2S State ready */
1456:Drivers/STM32F4xx_HAL_Driver/Src/stm32f4xx_hal_i2s.c ****       hi2s->State = HAL_I2S_STATE_READY;
ARM GAS  /tmp/cceNxm2U.s 			page 27


1457:Drivers/STM32F4xx_HAL_Driver/Src/stm32f4xx_hal_i2s.c **** 
1458:Drivers/STM32F4xx_HAL_Driver/Src/stm32f4xx_hal_i2s.c **** 
1459:Drivers/STM32F4xx_HAL_Driver/Src/stm32f4xx_hal_i2s.c ****       /* Set the error code and execute error callback*/
1460:Drivers/STM32F4xx_HAL_Driver/Src/stm32f4xx_hal_i2s.c ****       SET_BIT(hi2s->ErrorCode,HAL_I2S_ERROR_OVR);
1461:Drivers/STM32F4xx_HAL_Driver/Src/stm32f4xx_hal_i2s.c ****       HAL_I2S_ErrorCallback(hi2s);
1462:Drivers/STM32F4xx_HAL_Driver/Src/stm32f4xx_hal_i2s.c ****       }
1463:Drivers/STM32F4xx_HAL_Driver/Src/stm32f4xx_hal_i2s.c ****     }
1464:Drivers/STM32F4xx_HAL_Driver/Src/stm32f4xx_hal_i2s.c **** 
1465:Drivers/STM32F4xx_HAL_Driver/Src/stm32f4xx_hal_i2s.c ****     if(hi2s->State == HAL_I2S_STATE_BUSY_TX)
1466:Drivers/STM32F4xx_HAL_Driver/Src/stm32f4xx_hal_i2s.c ****     {
1467:Drivers/STM32F4xx_HAL_Driver/Src/stm32f4xx_hal_i2s.c ****       /* I2S in mode Transmitter -----------------------------------------------*/
1468:Drivers/STM32F4xx_HAL_Driver/Src/stm32f4xx_hal_i2s.c ****     if(((i2ssr & I2S_FLAG_TXE) == I2S_FLAG_TXE) && (__HAL_I2S_GET_IT_SOURCE(hi2s, I2S_IT_TXE) != RE
1469:Drivers/STM32F4xx_HAL_Driver/Src/stm32f4xx_hal_i2s.c ****       {
1470:Drivers/STM32F4xx_HAL_Driver/Src/stm32f4xx_hal_i2s.c ****         I2S_Transmit_IT(hi2s);
1471:Drivers/STM32F4xx_HAL_Driver/Src/stm32f4xx_hal_i2s.c ****       }
1472:Drivers/STM32F4xx_HAL_Driver/Src/stm32f4xx_hal_i2s.c **** 
1473:Drivers/STM32F4xx_HAL_Driver/Src/stm32f4xx_hal_i2s.c ****       /* I2S Underrun error interrupt occurred --------------------------------*/
1474:Drivers/STM32F4xx_HAL_Driver/Src/stm32f4xx_hal_i2s.c ****     if(((i2ssr & I2S_FLAG_UDR) == I2S_FLAG_UDR) && (__HAL_I2S_GET_IT_SOURCE(hi2s, I2S_IT_ERR) != RE
1475:Drivers/STM32F4xx_HAL_Driver/Src/stm32f4xx_hal_i2s.c ****       {
1476:Drivers/STM32F4xx_HAL_Driver/Src/stm32f4xx_hal_i2s.c ****       /* Disable TXE and ERR interrupt */
1477:Drivers/STM32F4xx_HAL_Driver/Src/stm32f4xx_hal_i2s.c ****       __HAL_I2S_DISABLE_IT(hi2s, (I2S_IT_TXE | I2S_IT_ERR));
1478:Drivers/STM32F4xx_HAL_Driver/Src/stm32f4xx_hal_i2s.c **** 
1479:Drivers/STM32F4xx_HAL_Driver/Src/stm32f4xx_hal_i2s.c ****       /* Clear Underrun flag */
1480:Drivers/STM32F4xx_HAL_Driver/Src/stm32f4xx_hal_i2s.c ****       __HAL_I2S_CLEAR_UDRFLAG(hi2s);
1481:Drivers/STM32F4xx_HAL_Driver/Src/stm32f4xx_hal_i2s.c **** 
1482:Drivers/STM32F4xx_HAL_Driver/Src/stm32f4xx_hal_i2s.c ****       /* Set the I2S State ready */
1483:Drivers/STM32F4xx_HAL_Driver/Src/stm32f4xx_hal_i2s.c ****       hi2s->State = HAL_I2S_STATE_READY;
1484:Drivers/STM32F4xx_HAL_Driver/Src/stm32f4xx_hal_i2s.c **** 
1485:Drivers/STM32F4xx_HAL_Driver/Src/stm32f4xx_hal_i2s.c ****       /* Set the error code and execute error callback*/
1486:Drivers/STM32F4xx_HAL_Driver/Src/stm32f4xx_hal_i2s.c ****       SET_BIT(hi2s->ErrorCode, HAL_I2S_ERROR_UDR);
1487:Drivers/STM32F4xx_HAL_Driver/Src/stm32f4xx_hal_i2s.c ****       HAL_I2S_ErrorCallback(hi2s);
1488:Drivers/STM32F4xx_HAL_Driver/Src/stm32f4xx_hal_i2s.c ****     }
1489:Drivers/STM32F4xx_HAL_Driver/Src/stm32f4xx_hal_i2s.c ****   }
1490:Drivers/STM32F4xx_HAL_Driver/Src/stm32f4xx_hal_i2s.c **** }
1491:Drivers/STM32F4xx_HAL_Driver/Src/stm32f4xx_hal_i2s.c **** 
1492:Drivers/STM32F4xx_HAL_Driver/Src/stm32f4xx_hal_i2s.c **** /**
1493:Drivers/STM32F4xx_HAL_Driver/Src/stm32f4xx_hal_i2s.c ****   * @brief This function handles I2S Communication Timeout.
1494:Drivers/STM32F4xx_HAL_Driver/Src/stm32f4xx_hal_i2s.c ****   * @param  hi2s pointer to a I2S_HandleTypeDef structure that contains
1495:Drivers/STM32F4xx_HAL_Driver/Src/stm32f4xx_hal_i2s.c ****   *         the configuration information for I2S module
1496:Drivers/STM32F4xx_HAL_Driver/Src/stm32f4xx_hal_i2s.c ****   * @param Flag Flag checked
1497:Drivers/STM32F4xx_HAL_Driver/Src/stm32f4xx_hal_i2s.c ****   * @param State Value of the flag expected
1498:Drivers/STM32F4xx_HAL_Driver/Src/stm32f4xx_hal_i2s.c ****   * @param Timeout Duration of the timeout
1499:Drivers/STM32F4xx_HAL_Driver/Src/stm32f4xx_hal_i2s.c ****   * @retval HAL status
1500:Drivers/STM32F4xx_HAL_Driver/Src/stm32f4xx_hal_i2s.c ****   */
1501:Drivers/STM32F4xx_HAL_Driver/Src/stm32f4xx_hal_i2s.c **** static HAL_StatusTypeDef I2S_WaitFlagStateUntilTimeout(I2S_HandleTypeDef *hi2s, uint32_t Flag, uint
1502:Drivers/STM32F4xx_HAL_Driver/Src/stm32f4xx_hal_i2s.c ****                                                        uint32_t Timeout)
1503:Drivers/STM32F4xx_HAL_Driver/Src/stm32f4xx_hal_i2s.c **** {
  28              		.loc 1 1503 0
  29              		.cfi_startproc
  30              		@ args = 0, pretend = 0, frame = 0
  31              		@ frame_needed = 0, uses_anonymous_args = 0
  32              	.LVL0:
  33 0000 2DE9F041 		push	{r4, r5, r6, r7, r8, lr}
  34              	.LCFI0:
  35              		.cfi_def_cfa_offset 24
  36              		.cfi_offset 4, -24
  37              		.cfi_offset 5, -20
ARM GAS  /tmp/cceNxm2U.s 			page 28


  38              		.cfi_offset 6, -16
  39              		.cfi_offset 7, -12
  40              		.cfi_offset 8, -8
  41              		.cfi_offset 14, -4
  42 0004 0646     		mov	r6, r0
  43 0006 0C46     		mov	r4, r1
  44 0008 1746     		mov	r7, r2
  45 000a 1D46     		mov	r5, r3
1504:Drivers/STM32F4xx_HAL_Driver/Src/stm32f4xx_hal_i2s.c ****   uint32_t tickstart = HAL_GetTick();
  46              		.loc 1 1504 0
  47 000c FFF7FEFF 		bl	HAL_GetTick
  48              	.LVL1:
  49 0010 8046     		mov	r8, r0
  50              	.LVL2:
1505:Drivers/STM32F4xx_HAL_Driver/Src/stm32f4xx_hal_i2s.c ****   
1506:Drivers/STM32F4xx_HAL_Driver/Src/stm32f4xx_hal_i2s.c ****    /* Wait until flag is set to status*/
1507:Drivers/STM32F4xx_HAL_Driver/Src/stm32f4xx_hal_i2s.c ****   while(((__HAL_I2S_GET_FLAG(hi2s, Flag)) ? SET : RESET) != State)
  51              		.loc 1 1507 0
  52 0012 12E0     		b	.L3
  53              	.LVL3:
  54              	.L7:
1508:Drivers/STM32F4xx_HAL_Driver/Src/stm32f4xx_hal_i2s.c ****   {
1509:Drivers/STM32F4xx_HAL_Driver/Src/stm32f4xx_hal_i2s.c ****     if(Timeout != HAL_MAX_DELAY)
  55              		.loc 1 1509 0
  56 0014 B5F1FF3F 		cmp	r5, #-1
  57 0018 0FD0     		beq	.L3
1510:Drivers/STM32F4xx_HAL_Driver/Src/stm32f4xx_hal_i2s.c ****     {
1511:Drivers/STM32F4xx_HAL_Driver/Src/stm32f4xx_hal_i2s.c ****       if((Timeout == 0U)||((HAL_GetTick() - tickstart ) > Timeout))
  58              		.loc 1 1511 0
  59 001a 2DB1     		cbz	r5, .L4
  60              		.loc 1 1511 0 is_stmt 0 discriminator 1
  61 001c FFF7FEFF 		bl	HAL_GetTick
  62              	.LVL4:
  63 0020 C8EB0000 		rsb	r0, r8, r0
  64 0024 A842     		cmp	r0, r5
  65 0026 08D9     		bls	.L3
  66              	.L4:
1512:Drivers/STM32F4xx_HAL_Driver/Src/stm32f4xx_hal_i2s.c ****       {
1513:Drivers/STM32F4xx_HAL_Driver/Src/stm32f4xx_hal_i2s.c ****         /* Set the I2S State ready */
1514:Drivers/STM32F4xx_HAL_Driver/Src/stm32f4xx_hal_i2s.c ****         hi2s->State = HAL_I2S_STATE_READY;
  67              		.loc 1 1514 0 is_stmt 1
  68 0028 0123     		movs	r3, #1
  69 002a 86F84130 		strb	r3, [r6, #65]
1515:Drivers/STM32F4xx_HAL_Driver/Src/stm32f4xx_hal_i2s.c **** 
1516:Drivers/STM32F4xx_HAL_Driver/Src/stm32f4xx_hal_i2s.c ****         /* Process Unlocked */
1517:Drivers/STM32F4xx_HAL_Driver/Src/stm32f4xx_hal_i2s.c ****         __HAL_UNLOCK(hi2s);
  70              		.loc 1 1517 0
  71 002e 0023     		movs	r3, #0
  72 0030 86F84030 		strb	r3, [r6, #64]
1518:Drivers/STM32F4xx_HAL_Driver/Src/stm32f4xx_hal_i2s.c **** 
1519:Drivers/STM32F4xx_HAL_Driver/Src/stm32f4xx_hal_i2s.c ****         return HAL_TIMEOUT;
  73              		.loc 1 1519 0
  74 0034 0320     		movs	r0, #3
  75 0036 BDE8F081 		pop	{r4, r5, r6, r7, r8, pc}
  76              	.LVL5:
  77              	.L3:
1507:Drivers/STM32F4xx_HAL_Driver/Src/stm32f4xx_hal_i2s.c ****   {
ARM GAS  /tmp/cceNxm2U.s 			page 29


  78              		.loc 1 1507 0
  79 003a 3368     		ldr	r3, [r6]
  80 003c 9B68     		ldr	r3, [r3, #8]
  81 003e 2340     		ands	r3, r3, r4
  82 0040 A342     		cmp	r3, r4
  83 0042 01D1     		bne	.L8
  84 0044 0123     		movs	r3, #1
  85 0046 00E0     		b	.L6
  86              	.L8:
  87 0048 0023     		movs	r3, #0
  88              	.L6:
1507:Drivers/STM32F4xx_HAL_Driver/Src/stm32f4xx_hal_i2s.c ****   {
  89              		.loc 1 1507 0 is_stmt 0 discriminator 4
  90 004a BB42     		cmp	r3, r7
  91 004c E2D1     		bne	.L7
1520:Drivers/STM32F4xx_HAL_Driver/Src/stm32f4xx_hal_i2s.c ****       }
1521:Drivers/STM32F4xx_HAL_Driver/Src/stm32f4xx_hal_i2s.c ****     }
1522:Drivers/STM32F4xx_HAL_Driver/Src/stm32f4xx_hal_i2s.c ****   }
1523:Drivers/STM32F4xx_HAL_Driver/Src/stm32f4xx_hal_i2s.c ****   return HAL_OK;
  92              		.loc 1 1523 0 is_stmt 1
  93 004e 0020     		movs	r0, #0
1524:Drivers/STM32F4xx_HAL_Driver/Src/stm32f4xx_hal_i2s.c **** }
  94              		.loc 1 1524 0
  95 0050 BDE8F081 		pop	{r4, r5, r6, r7, r8, pc}
  96              		.cfi_endproc
  97              	.LFE152:
  99              		.section	.text.HAL_I2S_MspInit,"ax",%progbits
 100              		.align	2
 101              		.weak	HAL_I2S_MspInit
 102              		.thumb
 103              		.thumb_func
 105              	HAL_I2S_MspInit:
 106              	.LFB125:
 441:Drivers/STM32F4xx_HAL_Driver/Src/stm32f4xx_hal_i2s.c ****   /* Prevent unused argument(s) compilation warning */
 107              		.loc 1 441 0
 108              		.cfi_startproc
 109              		@ args = 0, pretend = 0, frame = 0
 110              		@ frame_needed = 0, uses_anonymous_args = 0
 111              		@ link register save eliminated.
 112              	.LVL6:
 113 0000 7047     		bx	lr
 114              		.cfi_endproc
 115              	.LFE125:
 117 0002 00BF     		.section	.text.HAL_I2S_MspDeInit,"ax",%progbits
 118              		.align	2
 119              		.weak	HAL_I2S_MspDeInit
 120              		.thumb
 121              		.thumb_func
 123              	HAL_I2S_MspDeInit:
 124              	.LFB126:
 456:Drivers/STM32F4xx_HAL_Driver/Src/stm32f4xx_hal_i2s.c ****   /* Prevent unused argument(s) compilation warning */
 125              		.loc 1 456 0
 126              		.cfi_startproc
 127              		@ args = 0, pretend = 0, frame = 0
 128              		@ frame_needed = 0, uses_anonymous_args = 0
 129              		@ link register save eliminated.
 130              	.LVL7:
ARM GAS  /tmp/cceNxm2U.s 			page 30


 131 0000 7047     		bx	lr
 132              		.cfi_endproc
 133              	.LFE126:
 135 0002 00BF     		.section	.text.HAL_I2S_DeInit,"ax",%progbits
 136              		.align	2
 137              		.global	HAL_I2S_DeInit
 138              		.thumb
 139              		.thumb_func
 141              	HAL_I2S_DeInit:
 142              	.LFB124:
 413:Drivers/STM32F4xx_HAL_Driver/Src/stm32f4xx_hal_i2s.c ****   /* Check the I2S handle allocation */
 143              		.loc 1 413 0
 144              		.cfi_startproc
 145              		@ args = 0, pretend = 0, frame = 0
 146              		@ frame_needed = 0, uses_anonymous_args = 0
 147              	.LVL8:
 415:Drivers/STM32F4xx_HAL_Driver/Src/stm32f4xx_hal_i2s.c ****   {
 148              		.loc 1 415 0
 149 0000 68B1     		cbz	r0, .L14
 413:Drivers/STM32F4xx_HAL_Driver/Src/stm32f4xx_hal_i2s.c ****   /* Check the I2S handle allocation */
 150              		.loc 1 413 0
 151 0002 10B5     		push	{r4, lr}
 152              	.LCFI1:
 153              		.cfi_def_cfa_offset 8
 154              		.cfi_offset 4, -8
 155              		.cfi_offset 14, -4
 156 0004 0446     		mov	r4, r0
 420:Drivers/STM32F4xx_HAL_Driver/Src/stm32f4xx_hal_i2s.c **** 
 157              		.loc 1 420 0
 158 0006 0223     		movs	r3, #2
 159 0008 80F84130 		strb	r3, [r0, #65]
 423:Drivers/STM32F4xx_HAL_Driver/Src/stm32f4xx_hal_i2s.c **** 
 160              		.loc 1 423 0
 161 000c FFF7FEFF 		bl	HAL_I2S_MspDeInit
 162              	.LVL9:
 425:Drivers/STM32F4xx_HAL_Driver/Src/stm32f4xx_hal_i2s.c ****   hi2s->State     = HAL_I2S_STATE_RESET;
 163              		.loc 1 425 0
 164 0010 0020     		movs	r0, #0
 165 0012 6064     		str	r0, [r4, #68]
 426:Drivers/STM32F4xx_HAL_Driver/Src/stm32f4xx_hal_i2s.c **** 
 166              		.loc 1 426 0
 167 0014 84F84100 		strb	r0, [r4, #65]
 429:Drivers/STM32F4xx_HAL_Driver/Src/stm32f4xx_hal_i2s.c **** 
 168              		.loc 1 429 0
 169 0018 84F84000 		strb	r0, [r4, #64]
 431:Drivers/STM32F4xx_HAL_Driver/Src/stm32f4xx_hal_i2s.c **** }
 170              		.loc 1 431 0
 171 001c 10BD     		pop	{r4, pc}
 172              	.LVL10:
 173              	.L14:
 174              	.LCFI2:
 175              		.cfi_def_cfa_offset 0
 176              		.cfi_restore 4
 177              		.cfi_restore 14
 417:Drivers/STM32F4xx_HAL_Driver/Src/stm32f4xx_hal_i2s.c ****   }
 178              		.loc 1 417 0
 179 001e 0120     		movs	r0, #1
ARM GAS  /tmp/cceNxm2U.s 			page 31


 180              	.LVL11:
 181 0020 7047     		bx	lr
 182              		.cfi_endproc
 183              	.LFE124:
 185 0022 00BF     		.section	.text.HAL_I2S_Transmit_IT,"ax",%progbits
 186              		.align	2
 187              		.global	HAL_I2S_Transmit_IT
 188              		.thumb
 189              		.thumb_func
 191              	HAL_I2S_Transmit_IT:
 192              	.LFB129:
 729:Drivers/STM32F4xx_HAL_Driver/Src/stm32f4xx_hal_i2s.c ****   uint32_t tmp1 = 0U;
 193              		.loc 1 729 0
 194              		.cfi_startproc
 195              		@ args = 0, pretend = 0, frame = 0
 196              		@ frame_needed = 0, uses_anonymous_args = 0
 197              		@ link register save eliminated.
 198              	.LVL12:
 732:Drivers/STM32F4xx_HAL_Driver/Src/stm32f4xx_hal_i2s.c ****   {
 199              		.loc 1 732 0
 200 0000 90F84130 		ldrb	r3, [r0, #65]	@ zero_extendqisi2
 201 0004 DBB2     		uxtb	r3, r3
 202 0006 012B     		cmp	r3, #1
 203 0008 33D1     		bne	.L23
 734:Drivers/STM32F4xx_HAL_Driver/Src/stm32f4xx_hal_i2s.c ****     {
 204              		.loc 1 734 0
 205 000a 0029     		cmp	r1, #0
 206 000c 33D0     		beq	.L24
 734:Drivers/STM32F4xx_HAL_Driver/Src/stm32f4xx_hal_i2s.c ****     {
 207              		.loc 1 734 0 is_stmt 0 discriminator 1
 208 000e 002A     		cmp	r2, #0
 209 0010 33D0     		beq	.L25
 739:Drivers/STM32F4xx_HAL_Driver/Src/stm32f4xx_hal_i2s.c ****     tmp1 = hi2s->Instance->I2SCFGR & (SPI_I2SCFGR_DATLEN | SPI_I2SCFGR_CHLEN);
 210              		.loc 1 739 0 is_stmt 1
 211 0012 4162     		str	r1, [r0, #36]
 740:Drivers/STM32F4xx_HAL_Driver/Src/stm32f4xx_hal_i2s.c ****     if((tmp1 == I2S_DATAFORMAT_24B) || (tmp1 == I2S_DATAFORMAT_32B))
 212              		.loc 1 740 0
 213 0014 0368     		ldr	r3, [r0]
 214 0016 DB69     		ldr	r3, [r3, #28]
 215 0018 03F00703 		and	r3, r3, #7
 216              	.LVL13:
 741:Drivers/STM32F4xx_HAL_Driver/Src/stm32f4xx_hal_i2s.c ****     {
 217              		.loc 1 741 0
 218 001c 032B     		cmp	r3, #3
 219 001e 01D0     		beq	.L19
 741:Drivers/STM32F4xx_HAL_Driver/Src/stm32f4xx_hal_i2s.c ****     {
 220              		.loc 1 741 0 is_stmt 0 discriminator 1
 221 0020 052B     		cmp	r3, #5
 222 0022 04D1     		bne	.L20
 223              	.L19:
 743:Drivers/STM32F4xx_HAL_Driver/Src/stm32f4xx_hal_i2s.c ****       hi2s->TxXferCount = (Size << 1U);
 224              		.loc 1 743 0 is_stmt 1
 225 0024 5200     		lsls	r2, r2, #1
 226              	.LVL14:
 227 0026 92B2     		uxth	r2, r2
 228 0028 0285     		strh	r2, [r0, #40]	@ movhi
 744:Drivers/STM32F4xx_HAL_Driver/Src/stm32f4xx_hal_i2s.c ****     }
ARM GAS  /tmp/cceNxm2U.s 			page 32


 229              		.loc 1 744 0
 230 002a 4285     		strh	r2, [r0, #42]	@ movhi
 231 002c 01E0     		b	.L21
 232              	.LVL15:
 233              	.L20:
 748:Drivers/STM32F4xx_HAL_Driver/Src/stm32f4xx_hal_i2s.c ****       hi2s->TxXferCount = Size;
 234              		.loc 1 748 0
 235 002e 0285     		strh	r2, [r0, #40]	@ movhi
 749:Drivers/STM32F4xx_HAL_Driver/Src/stm32f4xx_hal_i2s.c ****     }
 236              		.loc 1 749 0
 237 0030 4285     		strh	r2, [r0, #42]	@ movhi
 238              	.LVL16:
 239              	.L21:
 753:Drivers/STM32F4xx_HAL_Driver/Src/stm32f4xx_hal_i2s.c **** 
 240              		.loc 1 753 0
 241 0032 90F84030 		ldrb	r3, [r0, #64]	@ zero_extendqisi2
 242              	.LVL17:
 243 0036 DBB2     		uxtb	r3, r3
 244 0038 012B     		cmp	r3, #1
 245 003a 20D0     		beq	.L26
 753:Drivers/STM32F4xx_HAL_Driver/Src/stm32f4xx_hal_i2s.c **** 
 246              		.loc 1 753 0 is_stmt 0 discriminator 2
 247 003c 0123     		movs	r3, #1
 248 003e 80F84030 		strb	r3, [r0, #64]
 755:Drivers/STM32F4xx_HAL_Driver/Src/stm32f4xx_hal_i2s.c ****     hi2s->ErrorCode = HAL_I2S_ERROR_NONE;
 249              		.loc 1 755 0 is_stmt 1 discriminator 2
 250 0042 0323     		movs	r3, #3
 251 0044 80F84130 		strb	r3, [r0, #65]
 756:Drivers/STM32F4xx_HAL_Driver/Src/stm32f4xx_hal_i2s.c **** 
 252              		.loc 1 756 0 discriminator 2
 253 0048 0023     		movs	r3, #0
 254 004a 4364     		str	r3, [r0, #68]
 759:Drivers/STM32F4xx_HAL_Driver/Src/stm32f4xx_hal_i2s.c **** 
 255              		.loc 1 759 0 discriminator 2
 256 004c 0268     		ldr	r2, [r0]
 257 004e 5368     		ldr	r3, [r2, #4]
 258 0050 43F0A003 		orr	r3, r3, #160
 259 0054 5360     		str	r3, [r2, #4]
 762:Drivers/STM32F4xx_HAL_Driver/Src/stm32f4xx_hal_i2s.c ****     {
 260              		.loc 1 762 0 discriminator 2
 261 0056 0368     		ldr	r3, [r0]
 262 0058 DA69     		ldr	r2, [r3, #28]
 263 005a 12F4806F 		tst	r2, #1024
 264 005e 03D1     		bne	.L22
 765:Drivers/STM32F4xx_HAL_Driver/Src/stm32f4xx_hal_i2s.c ****     }
 265              		.loc 1 765 0
 266 0060 DA69     		ldr	r2, [r3, #28]
 267 0062 42F48062 		orr	r2, r2, #1024
 268 0066 DA61     		str	r2, [r3, #28]
 269              	.L22:
 769:Drivers/STM32F4xx_HAL_Driver/Src/stm32f4xx_hal_i2s.c **** 
 270              		.loc 1 769 0
 271 0068 0023     		movs	r3, #0
 272 006a 80F84030 		strb	r3, [r0, #64]
 771:Drivers/STM32F4xx_HAL_Driver/Src/stm32f4xx_hal_i2s.c ****   }
 273              		.loc 1 771 0
 274 006e 1846     		mov	r0, r3
ARM GAS  /tmp/cceNxm2U.s 			page 33


 275              	.LVL18:
 276 0070 7047     		bx	lr
 277              	.LVL19:
 278              	.L23:
 775:Drivers/STM32F4xx_HAL_Driver/Src/stm32f4xx_hal_i2s.c ****   }
 279              		.loc 1 775 0
 280 0072 0220     		movs	r0, #2
 281              	.LVL20:
 282 0074 7047     		bx	lr
 283              	.LVL21:
 284              	.L24:
 736:Drivers/STM32F4xx_HAL_Driver/Src/stm32f4xx_hal_i2s.c ****     }
 285              		.loc 1 736 0
 286 0076 0120     		movs	r0, #1
 287              	.LVL22:
 288 0078 7047     		bx	lr
 289              	.LVL23:
 290              	.L25:
 291 007a 0120     		movs	r0, #1
 292              	.LVL24:
 293 007c 7047     		bx	lr
 294              	.LVL25:
 295              	.L26:
 753:Drivers/STM32F4xx_HAL_Driver/Src/stm32f4xx_hal_i2s.c **** 
 296              		.loc 1 753 0
 297 007e 0220     		movs	r0, #2
 298              	.LVL26:
 777:Drivers/STM32F4xx_HAL_Driver/Src/stm32f4xx_hal_i2s.c **** 
 299              		.loc 1 777 0
 300 0080 7047     		bx	lr
 301              		.cfi_endproc
 302              	.LFE129:
 304 0082 00BF     		.section	.text.HAL_I2S_Receive_IT,"ax",%progbits
 305              		.align	2
 306              		.global	HAL_I2S_Receive_IT
 307              		.thumb
 308              		.thumb_func
 310              	HAL_I2S_Receive_IT:
 311              	.LFB130:
 796:Drivers/STM32F4xx_HAL_Driver/Src/stm32f4xx_hal_i2s.c ****   uint32_t tmp1 = 0U;
 312              		.loc 1 796 0
 313              		.cfi_startproc
 314              		@ args = 0, pretend = 0, frame = 0
 315              		@ frame_needed = 0, uses_anonymous_args = 0
 316              		@ link register save eliminated.
 317              	.LVL27:
 799:Drivers/STM32F4xx_HAL_Driver/Src/stm32f4xx_hal_i2s.c ****   {
 318              		.loc 1 799 0
 319 0000 90F84130 		ldrb	r3, [r0, #65]	@ zero_extendqisi2
 320 0004 DBB2     		uxtb	r3, r3
 321 0006 012B     		cmp	r3, #1
 322 0008 33D1     		bne	.L33
 801:Drivers/STM32F4xx_HAL_Driver/Src/stm32f4xx_hal_i2s.c ****     {
 323              		.loc 1 801 0
 324 000a 0029     		cmp	r1, #0
 325 000c 33D0     		beq	.L34
 801:Drivers/STM32F4xx_HAL_Driver/Src/stm32f4xx_hal_i2s.c ****     {
ARM GAS  /tmp/cceNxm2U.s 			page 34


 326              		.loc 1 801 0 is_stmt 0 discriminator 1
 327 000e 002A     		cmp	r2, #0
 328 0010 33D0     		beq	.L35
 806:Drivers/STM32F4xx_HAL_Driver/Src/stm32f4xx_hal_i2s.c ****     tmp1 = hi2s->Instance->I2SCFGR & (SPI_I2SCFGR_DATLEN | SPI_I2SCFGR_CHLEN);
 329              		.loc 1 806 0 is_stmt 1
 330 0012 C162     		str	r1, [r0, #44]
 807:Drivers/STM32F4xx_HAL_Driver/Src/stm32f4xx_hal_i2s.c ****     if((tmp1 == I2S_DATAFORMAT_24B) || (tmp1 == I2S_DATAFORMAT_32B))
 331              		.loc 1 807 0
 332 0014 0368     		ldr	r3, [r0]
 333 0016 DB69     		ldr	r3, [r3, #28]
 334 0018 03F00703 		and	r3, r3, #7
 335              	.LVL28:
 808:Drivers/STM32F4xx_HAL_Driver/Src/stm32f4xx_hal_i2s.c ****     {
 336              		.loc 1 808 0
 337 001c 032B     		cmp	r3, #3
 338 001e 01D0     		beq	.L29
 808:Drivers/STM32F4xx_HAL_Driver/Src/stm32f4xx_hal_i2s.c ****     {
 339              		.loc 1 808 0 is_stmt 0 discriminator 1
 340 0020 052B     		cmp	r3, #5
 341 0022 04D1     		bne	.L30
 342              	.L29:
 810:Drivers/STM32F4xx_HAL_Driver/Src/stm32f4xx_hal_i2s.c ****       hi2s->RxXferCount = (Size << 1U);
 343              		.loc 1 810 0 is_stmt 1
 344 0024 5200     		lsls	r2, r2, #1
 345              	.LVL29:
 346 0026 92B2     		uxth	r2, r2
 347 0028 0286     		strh	r2, [r0, #48]	@ movhi
 811:Drivers/STM32F4xx_HAL_Driver/Src/stm32f4xx_hal_i2s.c ****     }
 348              		.loc 1 811 0
 349 002a 4286     		strh	r2, [r0, #50]	@ movhi
 350 002c 01E0     		b	.L31
 351              	.LVL30:
 352              	.L30:
 815:Drivers/STM32F4xx_HAL_Driver/Src/stm32f4xx_hal_i2s.c ****       hi2s->RxXferCount = Size;
 353              		.loc 1 815 0
 354 002e 0286     		strh	r2, [r0, #48]	@ movhi
 816:Drivers/STM32F4xx_HAL_Driver/Src/stm32f4xx_hal_i2s.c ****     }
 355              		.loc 1 816 0
 356 0030 4286     		strh	r2, [r0, #50]	@ movhi
 357              	.LVL31:
 358              	.L31:
 819:Drivers/STM32F4xx_HAL_Driver/Src/stm32f4xx_hal_i2s.c **** 
 359              		.loc 1 819 0
 360 0032 90F84030 		ldrb	r3, [r0, #64]	@ zero_extendqisi2
 361              	.LVL32:
 362 0036 DBB2     		uxtb	r3, r3
 363 0038 012B     		cmp	r3, #1
 364 003a 20D0     		beq	.L36
 819:Drivers/STM32F4xx_HAL_Driver/Src/stm32f4xx_hal_i2s.c **** 
 365              		.loc 1 819 0 is_stmt 0 discriminator 2
 366 003c 0123     		movs	r3, #1
 367 003e 80F84030 		strb	r3, [r0, #64]
 821:Drivers/STM32F4xx_HAL_Driver/Src/stm32f4xx_hal_i2s.c ****     hi2s->ErrorCode = HAL_I2S_ERROR_NONE;
 368              		.loc 1 821 0 is_stmt 1 discriminator 2
 369 0042 0423     		movs	r3, #4
 370 0044 80F84130 		strb	r3, [r0, #65]
 822:Drivers/STM32F4xx_HAL_Driver/Src/stm32f4xx_hal_i2s.c **** 
ARM GAS  /tmp/cceNxm2U.s 			page 35


 371              		.loc 1 822 0 discriminator 2
 372 0048 0023     		movs	r3, #0
 373 004a 4364     		str	r3, [r0, #68]
 825:Drivers/STM32F4xx_HAL_Driver/Src/stm32f4xx_hal_i2s.c **** 
 374              		.loc 1 825 0 discriminator 2
 375 004c 0268     		ldr	r2, [r0]
 376 004e 5368     		ldr	r3, [r2, #4]
 377 0050 43F06003 		orr	r3, r3, #96
 378 0054 5360     		str	r3, [r2, #4]
 828:Drivers/STM32F4xx_HAL_Driver/Src/stm32f4xx_hal_i2s.c ****     {
 379              		.loc 1 828 0 discriminator 2
 380 0056 0368     		ldr	r3, [r0]
 381 0058 DA69     		ldr	r2, [r3, #28]
 382 005a 12F4806F 		tst	r2, #1024
 383 005e 03D1     		bne	.L32
 831:Drivers/STM32F4xx_HAL_Driver/Src/stm32f4xx_hal_i2s.c ****     }
 384              		.loc 1 831 0
 385 0060 DA69     		ldr	r2, [r3, #28]
 386 0062 42F48062 		orr	r2, r2, #1024
 387 0066 DA61     		str	r2, [r3, #28]
 388              	.L32:
 835:Drivers/STM32F4xx_HAL_Driver/Src/stm32f4xx_hal_i2s.c **** 
 389              		.loc 1 835 0
 390 0068 0023     		movs	r3, #0
 391 006a 80F84030 		strb	r3, [r0, #64]
 837:Drivers/STM32F4xx_HAL_Driver/Src/stm32f4xx_hal_i2s.c ****   }
 392              		.loc 1 837 0
 393 006e 1846     		mov	r0, r3
 394              	.LVL33:
 395 0070 7047     		bx	lr
 396              	.LVL34:
 397              	.L33:
 842:Drivers/STM32F4xx_HAL_Driver/Src/stm32f4xx_hal_i2s.c ****   }
 398              		.loc 1 842 0
 399 0072 0220     		movs	r0, #2
 400              	.LVL35:
 401 0074 7047     		bx	lr
 402              	.LVL36:
 403              	.L34:
 803:Drivers/STM32F4xx_HAL_Driver/Src/stm32f4xx_hal_i2s.c ****     }
 404              		.loc 1 803 0
 405 0076 0120     		movs	r0, #1
 406              	.LVL37:
 407 0078 7047     		bx	lr
 408              	.LVL38:
 409              	.L35:
 410 007a 0120     		movs	r0, #1
 411              	.LVL39:
 412 007c 7047     		bx	lr
 413              	.LVL40:
 414              	.L36:
 819:Drivers/STM32F4xx_HAL_Driver/Src/stm32f4xx_hal_i2s.c **** 
 415              		.loc 1 819 0
 416 007e 0220     		movs	r0, #2
 417              	.LVL41:
 844:Drivers/STM32F4xx_HAL_Driver/Src/stm32f4xx_hal_i2s.c **** 
 418              		.loc 1 844 0
ARM GAS  /tmp/cceNxm2U.s 			page 36


 419 0080 7047     		bx	lr
 420              		.cfi_endproc
 421              	.LFE130:
 423 0082 00BF     		.section	.text.HAL_I2S_Transmit_DMA,"ax",%progbits
 424              		.align	2
 425              		.global	HAL_I2S_Transmit_DMA
 426              		.thumb
 427              		.thumb_func
 429              	HAL_I2S_Transmit_DMA:
 430              	.LFB131:
 861:Drivers/STM32F4xx_HAL_Driver/Src/stm32f4xx_hal_i2s.c ****   uint32_t *tmp = NULL;
 431              		.loc 1 861 0
 432              		.cfi_startproc
 433              		@ args = 0, pretend = 0, frame = 0
 434              		@ frame_needed = 0, uses_anonymous_args = 0
 435              	.LVL42:
 865:Drivers/STM32F4xx_HAL_Driver/Src/stm32f4xx_hal_i2s.c ****   {
 436              		.loc 1 865 0
 437 0000 0029     		cmp	r1, #0
 438 0002 4DD0     		beq	.L44
 861:Drivers/STM32F4xx_HAL_Driver/Src/stm32f4xx_hal_i2s.c ****   uint32_t *tmp = NULL;
 439              		.loc 1 861 0 discriminator 1
 440 0004 38B5     		push	{r3, r4, r5, lr}
 441              	.LCFI3:
 442              		.cfi_def_cfa_offset 16
 443              		.cfi_offset 3, -16
 444              		.cfi_offset 4, -12
 445              		.cfi_offset 5, -8
 446              		.cfi_offset 14, -4
 447 0006 0446     		mov	r4, r0
 448 0008 0D46     		mov	r5, r1
 865:Drivers/STM32F4xx_HAL_Driver/Src/stm32f4xx_hal_i2s.c ****   {
 449              		.loc 1 865 0 discriminator 1
 450 000a 002A     		cmp	r2, #0
 451 000c 4AD0     		beq	.L45
 870:Drivers/STM32F4xx_HAL_Driver/Src/stm32f4xx_hal_i2s.c ****   {
 452              		.loc 1 870 0
 453 000e 90F84130 		ldrb	r3, [r0, #65]	@ zero_extendqisi2
 454 0012 DBB2     		uxtb	r3, r3
 455 0014 012B     		cmp	r3, #1
 456 0016 47D1     		bne	.L46
 872:Drivers/STM32F4xx_HAL_Driver/Src/stm32f4xx_hal_i2s.c ****     tmp1 = hi2s->Instance->I2SCFGR & (SPI_I2SCFGR_DATLEN | SPI_I2SCFGR_CHLEN);
 457              		.loc 1 872 0
 458 0018 6162     		str	r1, [r4, #36]
 873:Drivers/STM32F4xx_HAL_Driver/Src/stm32f4xx_hal_i2s.c ****     if((tmp1 == I2S_DATAFORMAT_24B) || (tmp1 == I2S_DATAFORMAT_32B))
 459              		.loc 1 873 0
 460 001a 0368     		ldr	r3, [r0]
 461 001c DB69     		ldr	r3, [r3, #28]
 462 001e 03F00703 		and	r3, r3, #7
 463              	.LVL43:
 874:Drivers/STM32F4xx_HAL_Driver/Src/stm32f4xx_hal_i2s.c ****     {
 464              		.loc 1 874 0
 465 0022 032B     		cmp	r3, #3
 466 0024 01D0     		beq	.L39
 874:Drivers/STM32F4xx_HAL_Driver/Src/stm32f4xx_hal_i2s.c ****     {
 467              		.loc 1 874 0 is_stmt 0 discriminator 1
 468 0026 052B     		cmp	r3, #5
ARM GAS  /tmp/cceNxm2U.s 			page 37


 469 0028 04D1     		bne	.L40
 470              	.L39:
 876:Drivers/STM32F4xx_HAL_Driver/Src/stm32f4xx_hal_i2s.c ****       hi2s->TxXferCount = (Size << 1U);
 471              		.loc 1 876 0 is_stmt 1
 472 002a 5200     		lsls	r2, r2, #1
 473              	.LVL44:
 474 002c 92B2     		uxth	r2, r2
 475 002e 2285     		strh	r2, [r4, #40]	@ movhi
 877:Drivers/STM32F4xx_HAL_Driver/Src/stm32f4xx_hal_i2s.c ****     }
 476              		.loc 1 877 0
 477 0030 6285     		strh	r2, [r4, #42]	@ movhi
 478 0032 01E0     		b	.L41
 479              	.LVL45:
 480              	.L40:
 881:Drivers/STM32F4xx_HAL_Driver/Src/stm32f4xx_hal_i2s.c ****       hi2s->TxXferCount = Size;
 481              		.loc 1 881 0
 482 0034 0285     		strh	r2, [r0, #40]	@ movhi
 882:Drivers/STM32F4xx_HAL_Driver/Src/stm32f4xx_hal_i2s.c ****     }
 483              		.loc 1 882 0
 484 0036 4285     		strh	r2, [r0, #42]	@ movhi
 485              	.LVL46:
 486              	.L41:
 886:Drivers/STM32F4xx_HAL_Driver/Src/stm32f4xx_hal_i2s.c **** 
 487              		.loc 1 886 0
 488 0038 94F84030 		ldrb	r3, [r4, #64]	@ zero_extendqisi2
 489              	.LVL47:
 490 003c DBB2     		uxtb	r3, r3
 491 003e 012B     		cmp	r3, #1
 492 0040 34D0     		beq	.L47
 886:Drivers/STM32F4xx_HAL_Driver/Src/stm32f4xx_hal_i2s.c **** 
 493              		.loc 1 886 0 is_stmt 0 discriminator 2
 494 0042 0123     		movs	r3, #1
 495 0044 84F84030 		strb	r3, [r4, #64]
 888:Drivers/STM32F4xx_HAL_Driver/Src/stm32f4xx_hal_i2s.c ****     hi2s->State     = HAL_I2S_STATE_BUSY_TX;
 496              		.loc 1 888 0 is_stmt 1 discriminator 2
 497 0048 0023     		movs	r3, #0
 498 004a 6364     		str	r3, [r4, #68]
 889:Drivers/STM32F4xx_HAL_Driver/Src/stm32f4xx_hal_i2s.c **** 
 499              		.loc 1 889 0 discriminator 2
 500 004c 0323     		movs	r3, #3
 501 004e 84F84130 		strb	r3, [r4, #65]
 892:Drivers/STM32F4xx_HAL_Driver/Src/stm32f4xx_hal_i2s.c **** 
 502              		.loc 1 892 0 discriminator 2
 503 0052 A36B     		ldr	r3, [r4, #56]
 504 0054 164A     		ldr	r2, .L49
 505 0056 1A64     		str	r2, [r3, #64]
 895:Drivers/STM32F4xx_HAL_Driver/Src/stm32f4xx_hal_i2s.c **** 
 506              		.loc 1 895 0 discriminator 2
 507 0058 A36B     		ldr	r3, [r4, #56]
 508 005a 164A     		ldr	r2, .L49+4
 509 005c DA63     		str	r2, [r3, #60]
 898:Drivers/STM32F4xx_HAL_Driver/Src/stm32f4xx_hal_i2s.c **** 
 510              		.loc 1 898 0 discriminator 2
 511 005e A36B     		ldr	r3, [r4, #56]
 512 0060 154A     		ldr	r2, .L49+8
 513 0062 DA64     		str	r2, [r3, #76]
 514              	.LVL48:
ARM GAS  /tmp/cceNxm2U.s 			page 38


 902:Drivers/STM32F4xx_HAL_Driver/Src/stm32f4xx_hal_i2s.c **** 
 515              		.loc 1 902 0 discriminator 2
 516 0064 2268     		ldr	r2, [r4]
 517 0066 238D     		ldrh	r3, [r4, #40]
 518 0068 A06B     		ldr	r0, [r4, #56]
 519              	.LVL49:
 520 006a 2946     		mov	r1, r5
 521              	.LVL50:
 522 006c 0C32     		adds	r2, r2, #12
 523 006e 9BB2     		uxth	r3, r3
 524 0070 FFF7FEFF 		bl	HAL_DMA_Start_IT
 525              	.LVL51:
 905:Drivers/STM32F4xx_HAL_Driver/Src/stm32f4xx_hal_i2s.c ****     {
 526              		.loc 1 905 0 discriminator 2
 527 0074 2368     		ldr	r3, [r4]
 528 0076 DA69     		ldr	r2, [r3, #28]
 529 0078 12F4806F 		tst	r2, #1024
 530 007c 03D1     		bne	.L42
 908:Drivers/STM32F4xx_HAL_Driver/Src/stm32f4xx_hal_i2s.c ****     }
 531              		.loc 1 908 0
 532 007e DA69     		ldr	r2, [r3, #28]
 533 0080 42F48062 		orr	r2, r2, #1024
 534 0084 DA61     		str	r2, [r3, #28]
 535              	.L42:
 912:Drivers/STM32F4xx_HAL_Driver/Src/stm32f4xx_hal_i2s.c ****     {
 536              		.loc 1 912 0
 537 0086 2368     		ldr	r3, [r4]
 538 0088 5A68     		ldr	r2, [r3, #4]
 539 008a 12F0020F 		tst	r2, #2
 540 008e 03D1     		bne	.L43
 915:Drivers/STM32F4xx_HAL_Driver/Src/stm32f4xx_hal_i2s.c ****     }
 541              		.loc 1 915 0
 542 0090 5A68     		ldr	r2, [r3, #4]
 543 0092 42F00202 		orr	r2, r2, #2
 544 0096 5A60     		str	r2, [r3, #4]
 545              	.L43:
 919:Drivers/STM32F4xx_HAL_Driver/Src/stm32f4xx_hal_i2s.c **** 
 546              		.loc 1 919 0
 547 0098 0020     		movs	r0, #0
 548 009a 84F84000 		strb	r0, [r4, #64]
 921:Drivers/STM32F4xx_HAL_Driver/Src/stm32f4xx_hal_i2s.c ****   }
 549              		.loc 1 921 0
 550 009e 38BD     		pop	{r3, r4, r5, pc}
 551              	.LVL52:
 552              	.L44:
 553              	.LCFI4:
 554              		.cfi_def_cfa_offset 0
 555              		.cfi_restore 3
 556              		.cfi_restore 4
 557              		.cfi_restore 5
 558              		.cfi_restore 14
 867:Drivers/STM32F4xx_HAL_Driver/Src/stm32f4xx_hal_i2s.c ****   }
 559              		.loc 1 867 0
 560 00a0 0120     		movs	r0, #1
 561              	.LVL53:
 927:Drivers/STM32F4xx_HAL_Driver/Src/stm32f4xx_hal_i2s.c **** 
 562              		.loc 1 927 0
ARM GAS  /tmp/cceNxm2U.s 			page 39


 563 00a2 7047     		bx	lr
 564              	.LVL54:
 565              	.L45:
 566              	.LCFI5:
 567              		.cfi_def_cfa_offset 16
 568              		.cfi_offset 3, -16
 569              		.cfi_offset 4, -12
 570              		.cfi_offset 5, -8
 571              		.cfi_offset 14, -4
 867:Drivers/STM32F4xx_HAL_Driver/Src/stm32f4xx_hal_i2s.c ****   }
 572              		.loc 1 867 0
 573 00a4 0120     		movs	r0, #1
 574              	.LVL55:
 575 00a6 38BD     		pop	{r3, r4, r5, pc}
 576              	.LVL56:
 577              	.L46:
 925:Drivers/STM32F4xx_HAL_Driver/Src/stm32f4xx_hal_i2s.c ****   }
 578              		.loc 1 925 0
 579 00a8 0220     		movs	r0, #2
 580              	.LVL57:
 581 00aa 38BD     		pop	{r3, r4, r5, pc}
 582              	.LVL58:
 583              	.L47:
 886:Drivers/STM32F4xx_HAL_Driver/Src/stm32f4xx_hal_i2s.c **** 
 584              		.loc 1 886 0
 585 00ac 0220     		movs	r0, #2
 586              	.LVL59:
 927:Drivers/STM32F4xx_HAL_Driver/Src/stm32f4xx_hal_i2s.c **** 
 587              		.loc 1 927 0
 588 00ae 38BD     		pop	{r3, r4, r5, pc}
 589              	.LVL60:
 590              	.L50:
 591              		.align	2
 592              	.L49:
 593 00b0 00000000 		.word	I2S_DMATxHalfCplt
 594 00b4 00000000 		.word	I2S_DMATxCplt
 595 00b8 00000000 		.word	I2S_DMAError
 596              		.cfi_endproc
 597              	.LFE131:
 599              		.section	.text.HAL_I2S_Receive_DMA,"ax",%progbits
 600              		.align	2
 601              		.global	HAL_I2S_Receive_DMA
 602              		.thumb
 603              		.thumb_func
 605              	HAL_I2S_Receive_DMA:
 606              	.LFB132:
 944:Drivers/STM32F4xx_HAL_Driver/Src/stm32f4xx_hal_i2s.c ****   uint32_t *tmp = NULL;
 607              		.loc 1 944 0
 608              		.cfi_startproc
 609              		@ args = 0, pretend = 0, frame = 8
 610              		@ frame_needed = 0, uses_anonymous_args = 0
 611              	.LVL61:
 948:Drivers/STM32F4xx_HAL_Driver/Src/stm32f4xx_hal_i2s.c ****   {
 612              		.loc 1 948 0
 613 0000 0029     		cmp	r1, #0
 614 0002 5BD0     		beq	.L59
 944:Drivers/STM32F4xx_HAL_Driver/Src/stm32f4xx_hal_i2s.c ****   uint32_t *tmp = NULL;
ARM GAS  /tmp/cceNxm2U.s 			page 40


 615              		.loc 1 944 0 discriminator 1
 616 0004 30B5     		push	{r4, r5, lr}
 617              	.LCFI6:
 618              		.cfi_def_cfa_offset 12
 619              		.cfi_offset 4, -12
 620              		.cfi_offset 5, -8
 621              		.cfi_offset 14, -4
 622 0006 83B0     		sub	sp, sp, #12
 623              	.LCFI7:
 624              		.cfi_def_cfa_offset 24
 625 0008 0446     		mov	r4, r0
 626 000a 0D46     		mov	r5, r1
 948:Drivers/STM32F4xx_HAL_Driver/Src/stm32f4xx_hal_i2s.c ****   {
 627              		.loc 1 948 0 discriminator 1
 628 000c 002A     		cmp	r2, #0
 629 000e 57D0     		beq	.L60
 953:Drivers/STM32F4xx_HAL_Driver/Src/stm32f4xx_hal_i2s.c ****   {
 630              		.loc 1 953 0
 631 0010 90F84130 		ldrb	r3, [r0, #65]	@ zero_extendqisi2
 632 0014 DBB2     		uxtb	r3, r3
 633 0016 012B     		cmp	r3, #1
 634 0018 54D1     		bne	.L61
 955:Drivers/STM32F4xx_HAL_Driver/Src/stm32f4xx_hal_i2s.c ****     tmp1 = hi2s->Instance->I2SCFGR & (SPI_I2SCFGR_DATLEN | SPI_I2SCFGR_CHLEN);
 635              		.loc 1 955 0
 636 001a E162     		str	r1, [r4, #44]
 956:Drivers/STM32F4xx_HAL_Driver/Src/stm32f4xx_hal_i2s.c ****     if((tmp1 == I2S_DATAFORMAT_24B) || (tmp1 == I2S_DATAFORMAT_32B))
 637              		.loc 1 956 0
 638 001c 0368     		ldr	r3, [r0]
 639 001e DB69     		ldr	r3, [r3, #28]
 640 0020 03F00703 		and	r3, r3, #7
 641              	.LVL62:
 957:Drivers/STM32F4xx_HAL_Driver/Src/stm32f4xx_hal_i2s.c ****     {
 642              		.loc 1 957 0
 643 0024 032B     		cmp	r3, #3
 644 0026 01D0     		beq	.L53
 957:Drivers/STM32F4xx_HAL_Driver/Src/stm32f4xx_hal_i2s.c ****     {
 645              		.loc 1 957 0 is_stmt 0 discriminator 1
 646 0028 052B     		cmp	r3, #5
 647 002a 04D1     		bne	.L54
 648              	.L53:
 959:Drivers/STM32F4xx_HAL_Driver/Src/stm32f4xx_hal_i2s.c ****       hi2s->RxXferCount = (Size << 1U);
 649              		.loc 1 959 0 is_stmt 1
 650 002c 5300     		lsls	r3, r2, #1
 651              	.LVL63:
 652 002e 9BB2     		uxth	r3, r3
 653 0030 2386     		strh	r3, [r4, #48]	@ movhi
 960:Drivers/STM32F4xx_HAL_Driver/Src/stm32f4xx_hal_i2s.c ****     }
 654              		.loc 1 960 0
 655 0032 6386     		strh	r3, [r4, #50]	@ movhi
 656 0034 01E0     		b	.L55
 657              	.LVL64:
 658              	.L54:
 964:Drivers/STM32F4xx_HAL_Driver/Src/stm32f4xx_hal_i2s.c ****       hi2s->RxXferCount = Size;
 659              		.loc 1 964 0
 660 0036 0286     		strh	r2, [r0, #48]	@ movhi
 965:Drivers/STM32F4xx_HAL_Driver/Src/stm32f4xx_hal_i2s.c ****     }
 661              		.loc 1 965 0
ARM GAS  /tmp/cceNxm2U.s 			page 41


 662 0038 4286     		strh	r2, [r0, #50]	@ movhi
 663              	.LVL65:
 664              	.L55:
 968:Drivers/STM32F4xx_HAL_Driver/Src/stm32f4xx_hal_i2s.c **** 
 665              		.loc 1 968 0
 666 003a 94F84030 		ldrb	r3, [r4, #64]	@ zero_extendqisi2
 667 003e DBB2     		uxtb	r3, r3
 668 0040 012B     		cmp	r3, #1
 669 0042 41D0     		beq	.L62
 968:Drivers/STM32F4xx_HAL_Driver/Src/stm32f4xx_hal_i2s.c **** 
 670              		.loc 1 968 0 is_stmt 0 discriminator 2
 671 0044 0123     		movs	r3, #1
 672 0046 84F84030 		strb	r3, [r4, #64]
 970:Drivers/STM32F4xx_HAL_Driver/Src/stm32f4xx_hal_i2s.c ****     hi2s->ErrorCode = HAL_I2S_ERROR_NONE;
 673              		.loc 1 970 0 is_stmt 1 discriminator 2
 674 004a 0423     		movs	r3, #4
 675 004c 84F84130 		strb	r3, [r4, #65]
 971:Drivers/STM32F4xx_HAL_Driver/Src/stm32f4xx_hal_i2s.c **** 
 676              		.loc 1 971 0 discriminator 2
 677 0050 0023     		movs	r3, #0
 678 0052 6364     		str	r3, [r4, #68]
 974:Drivers/STM32F4xx_HAL_Driver/Src/stm32f4xx_hal_i2s.c **** 
 679              		.loc 1 974 0 discriminator 2
 680 0054 E36B     		ldr	r3, [r4, #60]
 681 0056 1E4A     		ldr	r2, .L64
 682              	.LVL66:
 683 0058 1A64     		str	r2, [r3, #64]
 977:Drivers/STM32F4xx_HAL_Driver/Src/stm32f4xx_hal_i2s.c **** 
 684              		.loc 1 977 0 discriminator 2
 685 005a E36B     		ldr	r3, [r4, #60]
 686 005c 1D4A     		ldr	r2, .L64+4
 687 005e DA63     		str	r2, [r3, #60]
 980:Drivers/STM32F4xx_HAL_Driver/Src/stm32f4xx_hal_i2s.c **** 
 688              		.loc 1 980 0 discriminator 2
 689 0060 E36B     		ldr	r3, [r4, #60]
 690 0062 1D4A     		ldr	r2, .L64+8
 691 0064 DA64     		str	r2, [r3, #76]
 983:Drivers/STM32F4xx_HAL_Driver/Src/stm32f4xx_hal_i2s.c ****     {
 692              		.loc 1 983 0 discriminator 2
 693 0066 2168     		ldr	r1, [r4]
 694              	.LVL67:
 695 0068 CB69     		ldr	r3, [r1, #28]
 696 006a 03F44073 		and	r3, r3, #768
 697 006e B3F5407F 		cmp	r3, #768
 698 0072 06D1     		bne	.L56
 699              	.LBB2:
 987:Drivers/STM32F4xx_HAL_Driver/Src/stm32f4xx_hal_i2s.c ****     }
 700              		.loc 1 987 0
 701 0074 0023     		movs	r3, #0
 702 0076 0193     		str	r3, [sp, #4]
 703 0078 CB68     		ldr	r3, [r1, #12]
 704 007a 0193     		str	r3, [sp, #4]
 705 007c 8B68     		ldr	r3, [r1, #8]
 706 007e 0193     		str	r3, [sp, #4]
 707 0080 019B     		ldr	r3, [sp, #4]
 708              	.L56:
 709              	.LVL68:
ARM GAS  /tmp/cceNxm2U.s 			page 42


 710              	.LBE2:
 992:Drivers/STM32F4xx_HAL_Driver/Src/stm32f4xx_hal_i2s.c **** 
 711              		.loc 1 992 0
 712 0082 238E     		ldrh	r3, [r4, #48]
 713 0084 E06B     		ldr	r0, [r4, #60]
 714              	.LVL69:
 715 0086 0C31     		adds	r1, r1, #12
 716 0088 2A46     		mov	r2, r5
 717 008a 9BB2     		uxth	r3, r3
 718 008c FFF7FEFF 		bl	HAL_DMA_Start_IT
 719              	.LVL70:
 995:Drivers/STM32F4xx_HAL_Driver/Src/stm32f4xx_hal_i2s.c ****     {
 720              		.loc 1 995 0
 721 0090 2368     		ldr	r3, [r4]
 722 0092 DA69     		ldr	r2, [r3, #28]
 723 0094 12F4806F 		tst	r2, #1024
 724 0098 03D1     		bne	.L57
 998:Drivers/STM32F4xx_HAL_Driver/Src/stm32f4xx_hal_i2s.c ****     }
 725              		.loc 1 998 0
 726 009a DA69     		ldr	r2, [r3, #28]
 727 009c 42F48062 		orr	r2, r2, #1024
 728 00a0 DA61     		str	r2, [r3, #28]
 729              	.L57:
1002:Drivers/STM32F4xx_HAL_Driver/Src/stm32f4xx_hal_i2s.c ****     {
 730              		.loc 1 1002 0
 731 00a2 2368     		ldr	r3, [r4]
 732 00a4 5A68     		ldr	r2, [r3, #4]
 733 00a6 12F0010F 		tst	r2, #1
 734 00aa 03D1     		bne	.L58
1005:Drivers/STM32F4xx_HAL_Driver/Src/stm32f4xx_hal_i2s.c ****     }
 735              		.loc 1 1005 0
 736 00ac 5A68     		ldr	r2, [r3, #4]
 737 00ae 42F00102 		orr	r2, r2, #1
 738 00b2 5A60     		str	r2, [r3, #4]
 739              	.L58:
1009:Drivers/STM32F4xx_HAL_Driver/Src/stm32f4xx_hal_i2s.c **** 
 740              		.loc 1 1009 0
 741 00b4 0020     		movs	r0, #0
 742 00b6 84F84000 		strb	r0, [r4, #64]
1011:Drivers/STM32F4xx_HAL_Driver/Src/stm32f4xx_hal_i2s.c ****   }
 743              		.loc 1 1011 0
 744 00ba 06E0     		b	.L52
 745              	.LVL71:
 746              	.L59:
 747              	.LCFI8:
 748              		.cfi_def_cfa_offset 0
 749              		.cfi_restore 4
 750              		.cfi_restore 5
 751              		.cfi_restore 14
 950:Drivers/STM32F4xx_HAL_Driver/Src/stm32f4xx_hal_i2s.c ****   }
 752              		.loc 1 950 0
 753 00bc 0120     		movs	r0, #1
 754              	.LVL72:
1017:Drivers/STM32F4xx_HAL_Driver/Src/stm32f4xx_hal_i2s.c **** 
 755              		.loc 1 1017 0
 756 00be 7047     		bx	lr
 757              	.LVL73:
ARM GAS  /tmp/cceNxm2U.s 			page 43


 758              	.L60:
 759              	.LCFI9:
 760              		.cfi_def_cfa_offset 24
 761              		.cfi_offset 4, -12
 762              		.cfi_offset 5, -8
 763              		.cfi_offset 14, -4
 950:Drivers/STM32F4xx_HAL_Driver/Src/stm32f4xx_hal_i2s.c ****   }
 764              		.loc 1 950 0
 765 00c0 0120     		movs	r0, #1
 766              	.LVL74:
 767 00c2 02E0     		b	.L52
 768              	.LVL75:
 769              	.L61:
1015:Drivers/STM32F4xx_HAL_Driver/Src/stm32f4xx_hal_i2s.c ****   }
 770              		.loc 1 1015 0
 771 00c4 0220     		movs	r0, #2
 772              	.LVL76:
 773 00c6 00E0     		b	.L52
 774              	.LVL77:
 775              	.L62:
 968:Drivers/STM32F4xx_HAL_Driver/Src/stm32f4xx_hal_i2s.c **** 
 776              		.loc 1 968 0
 777 00c8 0220     		movs	r0, #2
 778              	.LVL78:
 779              	.L52:
1017:Drivers/STM32F4xx_HAL_Driver/Src/stm32f4xx_hal_i2s.c **** 
 780              		.loc 1 1017 0
 781 00ca 03B0     		add	sp, sp, #12
 782              	.LCFI10:
 783              		.cfi_def_cfa_offset 12
 784              		@ sp needed
 785 00cc 30BD     		pop	{r4, r5, pc}
 786              	.LVL79:
 787              	.L65:
 788 00ce 00BF     		.align	2
 789              	.L64:
 790 00d0 00000000 		.word	I2S_DMARxHalfCplt
 791 00d4 00000000 		.word	I2S_DMARxCplt
 792 00d8 00000000 		.word	I2S_DMAError
 793              		.cfi_endproc
 794              	.LFE132:
 796              		.section	.text.HAL_I2S_DMAPause,"ax",%progbits
 797              		.align	2
 798              		.global	HAL_I2S_DMAPause
 799              		.thumb
 800              		.thumb_func
 802              	HAL_I2S_DMAPause:
 803              	.LFB133:
1026:Drivers/STM32F4xx_HAL_Driver/Src/stm32f4xx_hal_i2s.c ****   /* Process Locked */
 804              		.loc 1 1026 0
 805              		.cfi_startproc
 806              		@ args = 0, pretend = 0, frame = 0
 807              		@ frame_needed = 0, uses_anonymous_args = 0
 808              		@ link register save eliminated.
 809              	.LVL80:
1028:Drivers/STM32F4xx_HAL_Driver/Src/stm32f4xx_hal_i2s.c **** 
 810              		.loc 1 1028 0
ARM GAS  /tmp/cceNxm2U.s 			page 44


 811 0000 90F84030 		ldrb	r3, [r0, #64]	@ zero_extendqisi2
 812 0004 DBB2     		uxtb	r3, r3
 813 0006 012B     		cmp	r3, #1
 814 0008 3AD0     		beq	.L73
1028:Drivers/STM32F4xx_HAL_Driver/Src/stm32f4xx_hal_i2s.c **** 
 815              		.loc 1 1028 0 is_stmt 0 discriminator 2
 816 000a 0123     		movs	r3, #1
 817 000c 80F84030 		strb	r3, [r0, #64]
1030:Drivers/STM32F4xx_HAL_Driver/Src/stm32f4xx_hal_i2s.c ****   {
 818              		.loc 1 1030 0 is_stmt 1 discriminator 2
 819 0010 90F84130 		ldrb	r3, [r0, #65]	@ zero_extendqisi2
 820 0014 DBB2     		uxtb	r3, r3
 821 0016 032B     		cmp	r3, #3
 822 0018 05D1     		bne	.L68
1033:Drivers/STM32F4xx_HAL_Driver/Src/stm32f4xx_hal_i2s.c ****   }
 823              		.loc 1 1033 0
 824 001a 0268     		ldr	r2, [r0]
 825 001c 5368     		ldr	r3, [r2, #4]
 826 001e 23F00203 		bic	r3, r3, #2
 827 0022 5360     		str	r3, [r2, #4]
 828 0024 27E0     		b	.L69
 829              	.L68:
1035:Drivers/STM32F4xx_HAL_Driver/Src/stm32f4xx_hal_i2s.c ****   {
 830              		.loc 1 1035 0
 831 0026 90F84130 		ldrb	r3, [r0, #65]	@ zero_extendqisi2
 832 002a DBB2     		uxtb	r3, r3
 833 002c 042B     		cmp	r3, #4
 834 002e 05D1     		bne	.L70
1038:Drivers/STM32F4xx_HAL_Driver/Src/stm32f4xx_hal_i2s.c ****   }
 835              		.loc 1 1038 0
 836 0030 0268     		ldr	r2, [r0]
 837 0032 5368     		ldr	r3, [r2, #4]
 838 0034 23F00103 		bic	r3, r3, #1
 839 0038 5360     		str	r3, [r2, #4]
 840 003a 1CE0     		b	.L69
 841              	.L70:
1041:Drivers/STM32F4xx_HAL_Driver/Src/stm32f4xx_hal_i2s.c ****   {
 842              		.loc 1 1041 0
 843 003c 90F84130 		ldrb	r3, [r0, #65]	@ zero_extendqisi2
 844 0040 DBB2     		uxtb	r3, r3
 845 0042 052B     		cmp	r3, #5
 846 0044 17D1     		bne	.L69
1044:Drivers/STM32F4xx_HAL_Driver/Src/stm32f4xx_hal_i2s.c ****     CLEAR_BIT(I2SxEXT(hi2s->Instance)->CR2,(SPI_CR2_TXDMAEN|SPI_CR2_RXDMAEN));
 847              		.loc 1 1044 0
 848 0046 0268     		ldr	r2, [r0]
 849 0048 5368     		ldr	r3, [r2, #4]
 850 004a 23F00303 		bic	r3, r3, #3
 851 004e 5360     		str	r3, [r2, #4]
1045:Drivers/STM32F4xx_HAL_Driver/Src/stm32f4xx_hal_i2s.c ****   }
 852              		.loc 1 1045 0
 853 0050 0368     		ldr	r3, [r0]
 854 0052 0C4A     		ldr	r2, .L76
 855 0054 9342     		cmp	r3, r2
 856 0056 01D1     		bne	.L74
 857 0058 0B49     		ldr	r1, .L76+4
 858 005a 01E0     		b	.L71
 859              	.L74:
ARM GAS  /tmp/cceNxm2U.s 			page 45


 860 005c 4FF04021 		mov	r1, #1073758208
 861              	.L71:
1045:Drivers/STM32F4xx_HAL_Driver/Src/stm32f4xx_hal_i2s.c ****   }
 862              		.loc 1 1045 0 is_stmt 0 discriminator 4
 863 0060 084A     		ldr	r2, .L76
 864 0062 9342     		cmp	r3, r2
 865 0064 01D1     		bne	.L75
1045:Drivers/STM32F4xx_HAL_Driver/Src/stm32f4xx_hal_i2s.c ****   }
 866              		.loc 1 1045 0
 867 0066 084B     		ldr	r3, .L76+4
 868 0068 01E0     		b	.L72
 869              	.L75:
 870 006a 4FF04023 		mov	r3, #1073758208
 871              	.L72:
1045:Drivers/STM32F4xx_HAL_Driver/Src/stm32f4xx_hal_i2s.c ****   }
 872              		.loc 1 1045 0 discriminator 8
 873 006e 5B68     		ldr	r3, [r3, #4]
 874 0070 23F00303 		bic	r3, r3, #3
 875 0074 4B60     		str	r3, [r1, #4]
 876              	.L69:
1050:Drivers/STM32F4xx_HAL_Driver/Src/stm32f4xx_hal_i2s.c **** 
 877              		.loc 1 1050 0 is_stmt 1
 878 0076 0023     		movs	r3, #0
 879 0078 80F84030 		strb	r3, [r0, #64]
1052:Drivers/STM32F4xx_HAL_Driver/Src/stm32f4xx_hal_i2s.c **** }
 880              		.loc 1 1052 0
 881 007c 1846     		mov	r0, r3
 882              	.LVL81:
 883 007e 7047     		bx	lr
 884              	.LVL82:
 885              	.L73:
1028:Drivers/STM32F4xx_HAL_Driver/Src/stm32f4xx_hal_i2s.c **** 
 886              		.loc 1 1028 0
 887 0080 0220     		movs	r0, #2
 888              	.LVL83:
1053:Drivers/STM32F4xx_HAL_Driver/Src/stm32f4xx_hal_i2s.c **** 
 889              		.loc 1 1053 0
 890 0082 7047     		bx	lr
 891              	.L77:
 892              		.align	2
 893              	.L76:
 894 0084 00380040 		.word	1073756160
 895 0088 00340040 		.word	1073755136
 896              		.cfi_endproc
 897              	.LFE133:
 899              		.section	.text.HAL_I2S_DMAResume,"ax",%progbits
 900              		.align	2
 901              		.global	HAL_I2S_DMAResume
 902              		.thumb
 903              		.thumb_func
 905              	HAL_I2S_DMAResume:
 906              	.LFB134:
1062:Drivers/STM32F4xx_HAL_Driver/Src/stm32f4xx_hal_i2s.c ****   /* Process Locked */
 907              		.loc 1 1062 0
 908              		.cfi_startproc
 909              		@ args = 0, pretend = 0, frame = 0
 910              		@ frame_needed = 0, uses_anonymous_args = 0
ARM GAS  /tmp/cceNxm2U.s 			page 46


 911              		@ link register save eliminated.
 912              	.LVL84:
1064:Drivers/STM32F4xx_HAL_Driver/Src/stm32f4xx_hal_i2s.c **** 
 913              		.loc 1 1064 0
 914 0000 90F84030 		ldrb	r3, [r0, #64]	@ zero_extendqisi2
 915 0004 DBB2     		uxtb	r3, r3
 916 0006 012B     		cmp	r3, #1
 917 0008 63D0     		beq	.L89
1064:Drivers/STM32F4xx_HAL_Driver/Src/stm32f4xx_hal_i2s.c **** 
 918              		.loc 1 1064 0 is_stmt 0 discriminator 2
 919 000a 0123     		movs	r3, #1
 920 000c 80F84030 		strb	r3, [r0, #64]
1066:Drivers/STM32F4xx_HAL_Driver/Src/stm32f4xx_hal_i2s.c ****   {
 921              		.loc 1 1066 0 is_stmt 1 discriminator 2
 922 0010 90F84130 		ldrb	r3, [r0, #65]	@ zero_extendqisi2
 923 0014 DBB2     		uxtb	r3, r3
 924 0016 032B     		cmp	r3, #3
 925 0018 05D1     		bne	.L80
1069:Drivers/STM32F4xx_HAL_Driver/Src/stm32f4xx_hal_i2s.c ****   }
 926              		.loc 1 1069 0
 927 001a 0268     		ldr	r2, [r0]
 928 001c 5368     		ldr	r3, [r2, #4]
 929 001e 43F00203 		orr	r3, r3, #2
 930 0022 5360     		str	r3, [r2, #4]
 931 0024 47E0     		b	.L81
 932              	.L80:
1071:Drivers/STM32F4xx_HAL_Driver/Src/stm32f4xx_hal_i2s.c ****   {
 933              		.loc 1 1071 0
 934 0026 90F84130 		ldrb	r3, [r0, #65]	@ zero_extendqisi2
 935 002a DBB2     		uxtb	r3, r3
 936 002c 042B     		cmp	r3, #4
 937 002e 05D1     		bne	.L82
1074:Drivers/STM32F4xx_HAL_Driver/Src/stm32f4xx_hal_i2s.c ****   }
 938              		.loc 1 1074 0
 939 0030 0268     		ldr	r2, [r0]
 940 0032 5368     		ldr	r3, [r2, #4]
 941 0034 43F00103 		orr	r3, r3, #1
 942 0038 5360     		str	r3, [r2, #4]
 943 003a 3CE0     		b	.L81
 944              	.L82:
1077:Drivers/STM32F4xx_HAL_Driver/Src/stm32f4xx_hal_i2s.c ****   {
 945              		.loc 1 1077 0
 946 003c 90F84130 		ldrb	r3, [r0, #65]	@ zero_extendqisi2
 947 0040 DBB2     		uxtb	r3, r3
 948 0042 052B     		cmp	r3, #5
 949 0044 37D1     		bne	.L81
1080:Drivers/STM32F4xx_HAL_Driver/Src/stm32f4xx_hal_i2s.c ****     SET_BIT(I2SxEXT(hi2s->Instance)->CR2,(SPI_CR2_RXDMAEN | SPI_CR2_TXDMAEN));
 950              		.loc 1 1080 0
 951 0046 0268     		ldr	r2, [r0]
 952 0048 5368     		ldr	r3, [r2, #4]
 953 004a 43F00303 		orr	r3, r3, #3
 954 004e 5360     		str	r3, [r2, #4]
1081:Drivers/STM32F4xx_HAL_Driver/Src/stm32f4xx_hal_i2s.c **** 
 955              		.loc 1 1081 0
 956 0050 0368     		ldr	r3, [r0]
 957 0052 214A     		ldr	r2, .L95
 958 0054 9342     		cmp	r3, r2
ARM GAS  /tmp/cceNxm2U.s 			page 47


 959 0056 01D1     		bne	.L90
 960 0058 2049     		ldr	r1, .L95+4
 961 005a 01E0     		b	.L83
 962              	.L90:
 963 005c 4FF04021 		mov	r1, #1073758208
 964              	.L83:
1081:Drivers/STM32F4xx_HAL_Driver/Src/stm32f4xx_hal_i2s.c **** 
 965              		.loc 1 1081 0 is_stmt 0 discriminator 4
 966 0060 1D4A     		ldr	r2, .L95
 967 0062 9342     		cmp	r3, r2
 968 0064 01D1     		bne	.L91
1081:Drivers/STM32F4xx_HAL_Driver/Src/stm32f4xx_hal_i2s.c **** 
 969              		.loc 1 1081 0
 970 0066 1D4B     		ldr	r3, .L95+4
 971 0068 01E0     		b	.L84
 972              	.L91:
 973 006a 4FF04023 		mov	r3, #1073758208
 974              	.L84:
1081:Drivers/STM32F4xx_HAL_Driver/Src/stm32f4xx_hal_i2s.c **** 
 975              		.loc 1 1081 0 discriminator 8
 976 006e 5B68     		ldr	r3, [r3, #4]
 977 0070 43F00303 		orr	r3, r3, #3
 978 0074 4B60     		str	r3, [r1, #4]
1084:Drivers/STM32F4xx_HAL_Driver/Src/stm32f4xx_hal_i2s.c ****     {
 979              		.loc 1 1084 0 is_stmt 1 discriminator 8
 980 0076 0368     		ldr	r3, [r0]
 981 0078 174A     		ldr	r2, .L95
 982 007a 9342     		cmp	r3, r2
 983 007c 02D1     		bne	.L92
1084:Drivers/STM32F4xx_HAL_Driver/Src/stm32f4xx_hal_i2s.c ****     {
 984              		.loc 1 1084 0 is_stmt 0
 985 007e A2F58062 		sub	r2, r2, #1024
 986 0082 01E0     		b	.L85
 987              	.L92:
 988 0084 4FF04022 		mov	r2, #1073758208
 989              	.L85:
1084:Drivers/STM32F4xx_HAL_Driver/Src/stm32f4xx_hal_i2s.c ****     {
 990              		.loc 1 1084 0 discriminator 4
 991 0088 D269     		ldr	r2, [r2, #28]
 992 008a 12F4806F 		tst	r2, #1024
 993 008e 12D1     		bne	.L81
1087:Drivers/STM32F4xx_HAL_Driver/Src/stm32f4xx_hal_i2s.c ****     }
 994              		.loc 1 1087 0 is_stmt 1
 995 0090 114A     		ldr	r2, .L95
 996 0092 9342     		cmp	r3, r2
 997 0094 02D1     		bne	.L93
 998 0096 A2F58062 		sub	r2, r2, #1024
 999 009a 01E0     		b	.L86
 1000              	.L93:
 1001 009c 4FF04022 		mov	r2, #1073758208
 1002              	.L86:
1087:Drivers/STM32F4xx_HAL_Driver/Src/stm32f4xx_hal_i2s.c ****     }
 1003              		.loc 1 1087 0 is_stmt 0 discriminator 4
 1004 00a0 0D49     		ldr	r1, .L95
 1005 00a2 8B42     		cmp	r3, r1
 1006 00a4 01D1     		bne	.L94
1087:Drivers/STM32F4xx_HAL_Driver/Src/stm32f4xx_hal_i2s.c ****     }
ARM GAS  /tmp/cceNxm2U.s 			page 48


 1007              		.loc 1 1087 0
 1008 00a6 0D4B     		ldr	r3, .L95+4
 1009 00a8 01E0     		b	.L87
 1010              	.L94:
 1011 00aa 4FF04023 		mov	r3, #1073758208
 1012              	.L87:
1087:Drivers/STM32F4xx_HAL_Driver/Src/stm32f4xx_hal_i2s.c ****     }
 1013              		.loc 1 1087 0 discriminator 8
 1014 00ae DB69     		ldr	r3, [r3, #28]
 1015 00b0 43F48063 		orr	r3, r3, #1024
 1016 00b4 D361     		str	r3, [r2, #28]
 1017              	.L81:
1093:Drivers/STM32F4xx_HAL_Driver/Src/stm32f4xx_hal_i2s.c ****   {
 1018              		.loc 1 1093 0 is_stmt 1
 1019 00b6 0368     		ldr	r3, [r0]
 1020 00b8 DA69     		ldr	r2, [r3, #28]
 1021 00ba 12F4806F 		tst	r2, #1024
 1022 00be 03D1     		bne	.L88
1096:Drivers/STM32F4xx_HAL_Driver/Src/stm32f4xx_hal_i2s.c ****   }
 1023              		.loc 1 1096 0
 1024 00c0 DA69     		ldr	r2, [r3, #28]
 1025 00c2 42F48062 		orr	r2, r2, #1024
 1026 00c6 DA61     		str	r2, [r3, #28]
 1027              	.L88:
1100:Drivers/STM32F4xx_HAL_Driver/Src/stm32f4xx_hal_i2s.c **** 
 1028              		.loc 1 1100 0
 1029 00c8 0023     		movs	r3, #0
 1030 00ca 80F84030 		strb	r3, [r0, #64]
1102:Drivers/STM32F4xx_HAL_Driver/Src/stm32f4xx_hal_i2s.c **** }
 1031              		.loc 1 1102 0
 1032 00ce 1846     		mov	r0, r3
 1033              	.LVL85:
 1034 00d0 7047     		bx	lr
 1035              	.LVL86:
 1036              	.L89:
1064:Drivers/STM32F4xx_HAL_Driver/Src/stm32f4xx_hal_i2s.c **** 
 1037              		.loc 1 1064 0
 1038 00d2 0220     		movs	r0, #2
 1039              	.LVL87:
1103:Drivers/STM32F4xx_HAL_Driver/Src/stm32f4xx_hal_i2s.c **** 
 1040              		.loc 1 1103 0
 1041 00d4 7047     		bx	lr
 1042              	.L96:
 1043 00d6 00BF     		.align	2
 1044              	.L95:
 1045 00d8 00380040 		.word	1073756160
 1046 00dc 00340040 		.word	1073755136
 1047              		.cfi_endproc
 1048              	.LFE134:
 1050              		.section	.text.HAL_I2S_DMAStop,"ax",%progbits
 1051              		.align	2
 1052              		.global	HAL_I2S_DMAStop
 1053              		.thumb
 1054              		.thumb_func
 1056              	HAL_I2S_DMAStop:
 1057              	.LFB135:
1112:Drivers/STM32F4xx_HAL_Driver/Src/stm32f4xx_hal_i2s.c ****   /* Process Locked */
ARM GAS  /tmp/cceNxm2U.s 			page 49


 1058              		.loc 1 1112 0
 1059              		.cfi_startproc
 1060              		@ args = 0, pretend = 0, frame = 0
 1061              		@ frame_needed = 0, uses_anonymous_args = 0
 1062              	.LVL88:
1114:Drivers/STM32F4xx_HAL_Driver/Src/stm32f4xx_hal_i2s.c **** 
 1063              		.loc 1 1114 0
 1064 0000 90F84030 		ldrb	r3, [r0, #64]	@ zero_extendqisi2
 1065 0004 DBB2     		uxtb	r3, r3
 1066 0006 012B     		cmp	r3, #1
 1067 0008 66D0     		beq	.L106
1112:Drivers/STM32F4xx_HAL_Driver/Src/stm32f4xx_hal_i2s.c ****   /* Process Locked */
 1068              		.loc 1 1112 0 discriminator 2
 1069 000a 10B5     		push	{r4, lr}
 1070              	.LCFI11:
 1071              		.cfi_def_cfa_offset 8
 1072              		.cfi_offset 4, -8
 1073              		.cfi_offset 14, -4
 1074 000c 0446     		mov	r4, r0
1114:Drivers/STM32F4xx_HAL_Driver/Src/stm32f4xx_hal_i2s.c **** 
 1075              		.loc 1 1114 0 discriminator 2
 1076 000e 0123     		movs	r3, #1
 1077 0010 80F84030 		strb	r3, [r0, #64]
1116:Drivers/STM32F4xx_HAL_Driver/Src/stm32f4xx_hal_i2s.c ****   {
 1078              		.loc 1 1116 0 discriminator 2
 1079 0014 90F84130 		ldrb	r3, [r0, #65]	@ zero_extendqisi2
 1080 0018 DBB2     		uxtb	r3, r3
 1081 001a 032B     		cmp	r3, #3
 1082 001c 08D1     		bne	.L99
1119:Drivers/STM32F4xx_HAL_Driver/Src/stm32f4xx_hal_i2s.c **** 
 1083              		.loc 1 1119 0
 1084 001e 0268     		ldr	r2, [r0]
 1085 0020 5368     		ldr	r3, [r2, #4]
 1086 0022 23F00203 		bic	r3, r3, #2
 1087 0026 5360     		str	r3, [r2, #4]
1122:Drivers/STM32F4xx_HAL_Driver/Src/stm32f4xx_hal_i2s.c ****   }
 1088              		.loc 1 1122 0
 1089 0028 806B     		ldr	r0, [r0, #56]
 1090              	.LVL89:
 1091 002a FFF7FEFF 		bl	HAL_DMA_Abort
 1092              	.LVL90:
 1093 002e 45E0     		b	.L100
 1094              	.LVL91:
 1095              	.L99:
1124:Drivers/STM32F4xx_HAL_Driver/Src/stm32f4xx_hal_i2s.c ****   {
 1096              		.loc 1 1124 0
 1097 0030 90F84130 		ldrb	r3, [r0, #65]	@ zero_extendqisi2
 1098 0034 DBB2     		uxtb	r3, r3
 1099 0036 042B     		cmp	r3, #4
 1100 0038 08D1     		bne	.L101
1127:Drivers/STM32F4xx_HAL_Driver/Src/stm32f4xx_hal_i2s.c **** 
 1101              		.loc 1 1127 0
 1102 003a 0268     		ldr	r2, [r0]
 1103 003c 5368     		ldr	r3, [r2, #4]
 1104 003e 23F00103 		bic	r3, r3, #1
 1105 0042 5360     		str	r3, [r2, #4]
1130:Drivers/STM32F4xx_HAL_Driver/Src/stm32f4xx_hal_i2s.c ****   }
ARM GAS  /tmp/cceNxm2U.s 			page 50


 1106              		.loc 1 1130 0
 1107 0044 C06B     		ldr	r0, [r0, #60]
 1108              	.LVL92:
 1109 0046 FFF7FEFF 		bl	HAL_DMA_Abort
 1110              	.LVL93:
 1111 004a 37E0     		b	.L100
 1112              	.LVL94:
 1113              	.L101:
1133:Drivers/STM32F4xx_HAL_Driver/Src/stm32f4xx_hal_i2s.c ****   {
 1114              		.loc 1 1133 0
 1115 004c 90F84130 		ldrb	r3, [r0, #65]	@ zero_extendqisi2
 1116 0050 DBB2     		uxtb	r3, r3
 1117 0052 052B     		cmp	r3, #5
 1118 0054 32D1     		bne	.L100
1136:Drivers/STM32F4xx_HAL_Driver/Src/stm32f4xx_hal_i2s.c ****     CLEAR_BIT(I2SxEXT(hi2s->Instance)->CR2,(SPI_CR2_RXDMAEN | SPI_CR2_TXDMAEN));
 1119              		.loc 1 1136 0
 1120 0056 0268     		ldr	r2, [r0]
 1121 0058 5368     		ldr	r3, [r2, #4]
 1122 005a 23F00303 		bic	r3, r3, #3
 1123 005e 5360     		str	r3, [r2, #4]
1137:Drivers/STM32F4xx_HAL_Driver/Src/stm32f4xx_hal_i2s.c **** 
 1124              		.loc 1 1137 0
 1125 0060 0368     		ldr	r3, [r0]
 1126 0062 1E4A     		ldr	r2, .L113
 1127 0064 9342     		cmp	r3, r2
 1128 0066 02D1     		bne	.L107
 1129 0068 A2F58062 		sub	r2, r2, #1024
 1130 006c 01E0     		b	.L102
 1131              	.L107:
 1132 006e 4FF04022 		mov	r2, #1073758208
 1133              	.L102:
1137:Drivers/STM32F4xx_HAL_Driver/Src/stm32f4xx_hal_i2s.c **** 
 1134              		.loc 1 1137 0 is_stmt 0 discriminator 4
 1135 0072 1A49     		ldr	r1, .L113
 1136 0074 8B42     		cmp	r3, r1
 1137 0076 01D1     		bne	.L108
1137:Drivers/STM32F4xx_HAL_Driver/Src/stm32f4xx_hal_i2s.c **** 
 1138              		.loc 1 1137 0
 1139 0078 194B     		ldr	r3, .L113+4
 1140 007a 01E0     		b	.L103
 1141              	.L108:
 1142 007c 4FF04023 		mov	r3, #1073758208
 1143              	.L103:
1137:Drivers/STM32F4xx_HAL_Driver/Src/stm32f4xx_hal_i2s.c **** 
 1144              		.loc 1 1137 0 discriminator 8
 1145 0080 5B68     		ldr	r3, [r3, #4]
 1146 0082 23F00303 		bic	r3, r3, #3
 1147 0086 5360     		str	r3, [r2, #4]
1140:Drivers/STM32F4xx_HAL_Driver/Src/stm32f4xx_hal_i2s.c ****     HAL_DMA_Abort(hi2s->hdmarx);
 1148              		.loc 1 1140 0 is_stmt 1 discriminator 8
 1149 0088 A06B     		ldr	r0, [r4, #56]
 1150              	.LVL95:
 1151 008a FFF7FEFF 		bl	HAL_DMA_Abort
 1152              	.LVL96:
1141:Drivers/STM32F4xx_HAL_Driver/Src/stm32f4xx_hal_i2s.c **** 
 1153              		.loc 1 1141 0 discriminator 8
 1154 008e E06B     		ldr	r0, [r4, #60]
ARM GAS  /tmp/cceNxm2U.s 			page 51


 1155 0090 FFF7FEFF 		bl	HAL_DMA_Abort
 1156              	.LVL97:
1144:Drivers/STM32F4xx_HAL_Driver/Src/stm32f4xx_hal_i2s.c ****   }
 1157              		.loc 1 1144 0 discriminator 8
 1158 0094 2368     		ldr	r3, [r4]
 1159 0096 114A     		ldr	r2, .L113
 1160 0098 9342     		cmp	r3, r2
 1161 009a 02D1     		bne	.L109
1144:Drivers/STM32F4xx_HAL_Driver/Src/stm32f4xx_hal_i2s.c ****   }
 1162              		.loc 1 1144 0 is_stmt 0
 1163 009c A2F58062 		sub	r2, r2, #1024
 1164 00a0 01E0     		b	.L104
 1165              	.L109:
 1166 00a2 4FF04022 		mov	r2, #1073758208
 1167              	.L104:
1144:Drivers/STM32F4xx_HAL_Driver/Src/stm32f4xx_hal_i2s.c ****   }
 1168              		.loc 1 1144 0 discriminator 4
 1169 00a6 0D49     		ldr	r1, .L113
 1170 00a8 8B42     		cmp	r3, r1
 1171 00aa 01D1     		bne	.L110
1144:Drivers/STM32F4xx_HAL_Driver/Src/stm32f4xx_hal_i2s.c ****   }
 1172              		.loc 1 1144 0
 1173 00ac 0C4B     		ldr	r3, .L113+4
 1174 00ae 01E0     		b	.L105
 1175              	.L110:
 1176 00b0 4FF04023 		mov	r3, #1073758208
 1177              	.L105:
1144:Drivers/STM32F4xx_HAL_Driver/Src/stm32f4xx_hal_i2s.c ****   }
 1178              		.loc 1 1144 0 discriminator 8
 1179 00b4 DB69     		ldr	r3, [r3, #28]
 1180 00b6 23F48063 		bic	r3, r3, #1024
 1181 00ba D361     		str	r3, [r2, #28]
 1182              	.L100:
1149:Drivers/STM32F4xx_HAL_Driver/Src/stm32f4xx_hal_i2s.c **** 
 1183              		.loc 1 1149 0 is_stmt 1
 1184 00bc 2268     		ldr	r2, [r4]
 1185 00be D369     		ldr	r3, [r2, #28]
 1186 00c0 23F48063 		bic	r3, r3, #1024
 1187 00c4 1B04     		lsls	r3, r3, #16
 1188 00c6 1B0C     		lsrs	r3, r3, #16
 1189 00c8 D361     		str	r3, [r2, #28]
1151:Drivers/STM32F4xx_HAL_Driver/Src/stm32f4xx_hal_i2s.c **** 
 1190              		.loc 1 1151 0
 1191 00ca 0123     		movs	r3, #1
 1192 00cc 84F84130 		strb	r3, [r4, #65]
1154:Drivers/STM32F4xx_HAL_Driver/Src/stm32f4xx_hal_i2s.c **** 
 1193              		.loc 1 1154 0
 1194 00d0 0020     		movs	r0, #0
 1195 00d2 84F84000 		strb	r0, [r4, #64]
1156:Drivers/STM32F4xx_HAL_Driver/Src/stm32f4xx_hal_i2s.c **** }
 1196              		.loc 1 1156 0
 1197 00d6 10BD     		pop	{r4, pc}
 1198              	.LVL98:
 1199              	.L106:
 1200              	.LCFI12:
 1201              		.cfi_def_cfa_offset 0
 1202              		.cfi_restore 4
ARM GAS  /tmp/cceNxm2U.s 			page 52


 1203              		.cfi_restore 14
1114:Drivers/STM32F4xx_HAL_Driver/Src/stm32f4xx_hal_i2s.c **** 
 1204              		.loc 1 1114 0
 1205 00d8 0220     		movs	r0, #2
 1206              	.LVL99:
 1207 00da 7047     		bx	lr
 1208              	.L114:
 1209              		.align	2
 1210              	.L113:
 1211 00dc 00380040 		.word	1073756160
 1212 00e0 00340040 		.word	1073755136
 1213              		.cfi_endproc
 1214              	.LFE135:
 1216              		.section	.text.HAL_I2S_IRQHandler,"ax",%progbits
 1217              		.align	2
 1218              		.global	HAL_I2S_IRQHandler
 1219              		.thumb
 1220              		.thumb_func
 1222              	HAL_I2S_IRQHandler:
 1223              	.LFB136:
1166:Drivers/STM32F4xx_HAL_Driver/Src/stm32f4xx_hal_i2s.c ****   /* Call the IrqHandler ISR set during HAL_I2S_INIT */
 1224              		.loc 1 1166 0
 1225              		.cfi_startproc
 1226              		@ args = 0, pretend = 0, frame = 0
 1227              		@ frame_needed = 0, uses_anonymous_args = 0
 1228              	.LVL100:
 1229 0000 08B5     		push	{r3, lr}
 1230              	.LCFI13:
 1231              		.cfi_def_cfa_offset 8
 1232              		.cfi_offset 3, -8
 1233              		.cfi_offset 14, -4
1168:Drivers/STM32F4xx_HAL_Driver/Src/stm32f4xx_hal_i2s.c **** }
 1234              		.loc 1 1168 0
 1235 0002 436B     		ldr	r3, [r0, #52]
 1236 0004 9847     		blx	r3
 1237              	.LVL101:
 1238 0006 08BD     		pop	{r3, pc}
 1239              		.cfi_endproc
 1240              	.LFE136:
 1242              		.section	.text.HAL_I2S_TxHalfCpltCallback,"ax",%progbits
 1243              		.align	2
 1244              		.weak	HAL_I2S_TxHalfCpltCallback
 1245              		.thumb
 1246              		.thumb_func
 1248              	HAL_I2S_TxHalfCpltCallback:
 1249              	.LFB137:
1178:Drivers/STM32F4xx_HAL_Driver/Src/stm32f4xx_hal_i2s.c ****   /* Prevent unused argument(s) compilation warning */
 1250              		.loc 1 1178 0
 1251              		.cfi_startproc
 1252              		@ args = 0, pretend = 0, frame = 0
 1253              		@ frame_needed = 0, uses_anonymous_args = 0
 1254              		@ link register save eliminated.
 1255              	.LVL102:
 1256 0000 7047     		bx	lr
 1257              		.cfi_endproc
 1258              	.LFE137:
 1260 0002 00BF     		.section	.text.I2S_DMATxHalfCplt,"ax",%progbits
ARM GAS  /tmp/cceNxm2U.s 			page 53


 1261              		.align	2
 1262              		.thumb
 1263              		.thumb_func
 1265              	I2S_DMATxHalfCplt:
 1266              	.LFB145:
1324:Drivers/STM32F4xx_HAL_Driver/Src/stm32f4xx_hal_i2s.c ****   I2S_HandleTypeDef* hi2s = (I2S_HandleTypeDef*)((DMA_HandleTypeDef*)hdma)->Parent;
 1267              		.loc 1 1324 0
 1268              		.cfi_startproc
 1269              		@ args = 0, pretend = 0, frame = 0
 1270              		@ frame_needed = 0, uses_anonymous_args = 0
 1271              	.LVL103:
1324:Drivers/STM32F4xx_HAL_Driver/Src/stm32f4xx_hal_i2s.c ****   I2S_HandleTypeDef* hi2s = (I2S_HandleTypeDef*)((DMA_HandleTypeDef*)hdma)->Parent;
 1272              		.loc 1 1324 0
 1273 0000 08B5     		push	{r3, lr}
 1274              	.LCFI14:
 1275              		.cfi_def_cfa_offset 8
 1276              		.cfi_offset 3, -8
 1277              		.cfi_offset 14, -4
 1278              	.LVL104:
1327:Drivers/STM32F4xx_HAL_Driver/Src/stm32f4xx_hal_i2s.c **** }
 1279              		.loc 1 1327 0
 1280 0002 806B     		ldr	r0, [r0, #56]
 1281              	.LVL105:
 1282 0004 FFF7FEFF 		bl	HAL_I2S_TxHalfCpltCallback
 1283              	.LVL106:
 1284 0008 08BD     		pop	{r3, pc}
 1285              		.cfi_endproc
 1286              	.LFE145:
 1288 000a 00BF     		.section	.text.HAL_I2S_TxCpltCallback,"ax",%progbits
 1289              		.align	2
 1290              		.weak	HAL_I2S_TxCpltCallback
 1291              		.thumb
 1292              		.thumb_func
 1294              	HAL_I2S_TxCpltCallback:
 1295              	.LFB138:
1193:Drivers/STM32F4xx_HAL_Driver/Src/stm32f4xx_hal_i2s.c ****   /* Prevent unused argument(s) compilation warning */
 1296              		.loc 1 1193 0
 1297              		.cfi_startproc
 1298              		@ args = 0, pretend = 0, frame = 0
 1299              		@ frame_needed = 0, uses_anonymous_args = 0
 1300              		@ link register save eliminated.
 1301              	.LVL107:
 1302 0000 7047     		bx	lr
 1303              		.cfi_endproc
 1304              	.LFE138:
 1306 0002 00BF     		.section	.text.I2S_Transmit_IT,"ax",%progbits
 1307              		.align	2
 1308              		.thumb
 1309              		.thumb_func
 1311              	I2S_Transmit_IT:
 1312              	.LFB149:
1391:Drivers/STM32F4xx_HAL_Driver/Src/stm32f4xx_hal_i2s.c ****   /* Transmit data */
 1313              		.loc 1 1391 0
 1314              		.cfi_startproc
 1315              		@ args = 0, pretend = 0, frame = 0
 1316              		@ frame_needed = 0, uses_anonymous_args = 0
 1317              	.LVL108:
ARM GAS  /tmp/cceNxm2U.s 			page 54


1391:Drivers/STM32F4xx_HAL_Driver/Src/stm32f4xx_hal_i2s.c ****   /* Transmit data */
 1318              		.loc 1 1391 0
 1319 0000 08B5     		push	{r3, lr}
 1320              	.LCFI15:
 1321              		.cfi_def_cfa_offset 8
 1322              		.cfi_offset 3, -8
 1323              		.cfi_offset 14, -4
1393:Drivers/STM32F4xx_HAL_Driver/Src/stm32f4xx_hal_i2s.c ****   hi2s->TxXferCount--;
 1324              		.loc 1 1393 0
 1325 0002 0268     		ldr	r2, [r0]
 1326 0004 436A     		ldr	r3, [r0, #36]
 1327 0006 991C     		adds	r1, r3, #2
 1328 0008 4162     		str	r1, [r0, #36]
 1329 000a 1B88     		ldrh	r3, [r3]
 1330 000c D360     		str	r3, [r2, #12]
1394:Drivers/STM32F4xx_HAL_Driver/Src/stm32f4xx_hal_i2s.c **** 
 1331              		.loc 1 1394 0
 1332 000e 438D     		ldrh	r3, [r0, #42]
 1333 0010 013B     		subs	r3, r3, #1
 1334 0012 9BB2     		uxth	r3, r3
 1335 0014 4385     		strh	r3, [r0, #42]	@ movhi
1396:Drivers/STM32F4xx_HAL_Driver/Src/stm32f4xx_hal_i2s.c ****   {
 1336              		.loc 1 1396 0
 1337 0016 438D     		ldrh	r3, [r0, #42]
 1338 0018 9BB2     		uxth	r3, r3
 1339 001a 5BB9     		cbnz	r3, .L121
1399:Drivers/STM32F4xx_HAL_Driver/Src/stm32f4xx_hal_i2s.c **** 
 1340              		.loc 1 1399 0
 1341 001c 0268     		ldr	r2, [r0]
 1342 001e 5368     		ldr	r3, [r2, #4]
 1343 0020 23F0A003 		bic	r3, r3, #160
 1344 0024 1B04     		lsls	r3, r3, #16
 1345 0026 1B0C     		lsrs	r3, r3, #16
 1346 0028 5360     		str	r3, [r2, #4]
1401:Drivers/STM32F4xx_HAL_Driver/Src/stm32f4xx_hal_i2s.c ****     HAL_I2S_TxCpltCallback(hi2s);
 1347              		.loc 1 1401 0
 1348 002a 0123     		movs	r3, #1
 1349 002c 80F84130 		strb	r3, [r0, #65]
1402:Drivers/STM32F4xx_HAL_Driver/Src/stm32f4xx_hal_i2s.c ****   }
 1350              		.loc 1 1402 0
 1351 0030 FFF7FEFF 		bl	HAL_I2S_TxCpltCallback
 1352              	.LVL109:
 1353              	.L121:
 1354 0034 08BD     		pop	{r3, pc}
 1355              		.cfi_endproc
 1356              	.LFE149:
 1358 0036 00BF     		.section	.text.I2S_DMATxCplt,"ax",%progbits
 1359              		.align	2
 1360              		.thumb
 1361              		.thumb_func
 1363              	I2S_DMATxCplt:
 1364              	.LFB144:
1304:Drivers/STM32F4xx_HAL_Driver/Src/stm32f4xx_hal_i2s.c ****   I2S_HandleTypeDef* hi2s = ( I2S_HandleTypeDef* )((DMA_HandleTypeDef* )hdma)->Parent;
 1365              		.loc 1 1304 0
 1366              		.cfi_startproc
 1367              		@ args = 0, pretend = 0, frame = 0
 1368              		@ frame_needed = 0, uses_anonymous_args = 0
ARM GAS  /tmp/cceNxm2U.s 			page 55


 1369              	.LVL110:
 1370 0000 08B5     		push	{r3, lr}
 1371              	.LCFI16:
 1372              		.cfi_def_cfa_offset 8
 1373              		.cfi_offset 3, -8
 1374              		.cfi_offset 14, -4
1305:Drivers/STM32F4xx_HAL_Driver/Src/stm32f4xx_hal_i2s.c **** 
 1375              		.loc 1 1305 0
 1376 0002 836B     		ldr	r3, [r0, #56]
 1377              	.LVL111:
1307:Drivers/STM32F4xx_HAL_Driver/Src/stm32f4xx_hal_i2s.c ****   {
 1378              		.loc 1 1307 0
 1379 0004 0268     		ldr	r2, [r0]
 1380 0006 1268     		ldr	r2, [r2]
 1381 0008 12F4807F 		tst	r2, #256
 1382 000c 09D1     		bne	.L125
1310:Drivers/STM32F4xx_HAL_Driver/Src/stm32f4xx_hal_i2s.c **** 
 1383              		.loc 1 1310 0
 1384 000e 1968     		ldr	r1, [r3]
 1385 0010 4A68     		ldr	r2, [r1, #4]
 1386 0012 22F00202 		bic	r2, r2, #2
 1387 0016 4A60     		str	r2, [r1, #4]
1312:Drivers/STM32F4xx_HAL_Driver/Src/stm32f4xx_hal_i2s.c ****     hi2s->State       = HAL_I2S_STATE_READY;
 1388              		.loc 1 1312 0
 1389 0018 0022     		movs	r2, #0
 1390 001a 5A85     		strh	r2, [r3, #42]	@ movhi
1313:Drivers/STM32F4xx_HAL_Driver/Src/stm32f4xx_hal_i2s.c ****   }
 1391              		.loc 1 1313 0
 1392 001c 0122     		movs	r2, #1
 1393 001e 83F84120 		strb	r2, [r3, #65]
 1394              	.L125:
1315:Drivers/STM32F4xx_HAL_Driver/Src/stm32f4xx_hal_i2s.c **** }
 1395              		.loc 1 1315 0
 1396 0022 1846     		mov	r0, r3
 1397              	.LVL112:
 1398 0024 FFF7FEFF 		bl	HAL_I2S_TxCpltCallback
 1399              	.LVL113:
 1400 0028 08BD     		pop	{r3, pc}
 1401              		.cfi_endproc
 1402              	.LFE144:
 1404 002a 00BF     		.section	.text.HAL_I2S_RxHalfCpltCallback,"ax",%progbits
 1405              		.align	2
 1406              		.weak	HAL_I2S_RxHalfCpltCallback
 1407              		.thumb
 1408              		.thumb_func
 1410              	HAL_I2S_RxHalfCpltCallback:
 1411              	.LFB139:
1208:Drivers/STM32F4xx_HAL_Driver/Src/stm32f4xx_hal_i2s.c ****   /* Prevent unused argument(s) compilation warning */
 1412              		.loc 1 1208 0
 1413              		.cfi_startproc
 1414              		@ args = 0, pretend = 0, frame = 0
 1415              		@ frame_needed = 0, uses_anonymous_args = 0
 1416              		@ link register save eliminated.
 1417              	.LVL114:
 1418 0000 7047     		bx	lr
 1419              		.cfi_endproc
 1420              	.LFE139:
ARM GAS  /tmp/cceNxm2U.s 			page 56


 1422 0002 00BF     		.section	.text.I2S_DMARxHalfCplt,"ax",%progbits
 1423              		.align	2
 1424              		.thumb
 1425              		.thumb_func
 1427              	I2S_DMARxHalfCplt:
 1428              	.LFB147:
1357:Drivers/STM32F4xx_HAL_Driver/Src/stm32f4xx_hal_i2s.c ****   I2S_HandleTypeDef* hi2s = (I2S_HandleTypeDef*)((DMA_HandleTypeDef*)hdma)->Parent;
 1429              		.loc 1 1357 0
 1430              		.cfi_startproc
 1431              		@ args = 0, pretend = 0, frame = 0
 1432              		@ frame_needed = 0, uses_anonymous_args = 0
 1433              	.LVL115:
1357:Drivers/STM32F4xx_HAL_Driver/Src/stm32f4xx_hal_i2s.c ****   I2S_HandleTypeDef* hi2s = (I2S_HandleTypeDef*)((DMA_HandleTypeDef*)hdma)->Parent;
 1434              		.loc 1 1357 0
 1435 0000 08B5     		push	{r3, lr}
 1436              	.LCFI17:
 1437              		.cfi_def_cfa_offset 8
 1438              		.cfi_offset 3, -8
 1439              		.cfi_offset 14, -4
 1440              	.LVL116:
1360:Drivers/STM32F4xx_HAL_Driver/Src/stm32f4xx_hal_i2s.c **** }
 1441              		.loc 1 1360 0
 1442 0002 806B     		ldr	r0, [r0, #56]
 1443              	.LVL117:
 1444 0004 FFF7FEFF 		bl	HAL_I2S_RxHalfCpltCallback
 1445              	.LVL118:
 1446 0008 08BD     		pop	{r3, pc}
 1447              		.cfi_endproc
 1448              	.LFE147:
 1450 000a 00BF     		.section	.text.HAL_I2S_RxCpltCallback,"ax",%progbits
 1451              		.align	2
 1452              		.weak	HAL_I2S_RxCpltCallback
 1453              		.thumb
 1454              		.thumb_func
 1456              	HAL_I2S_RxCpltCallback:
 1457              	.LFB140:
1223:Drivers/STM32F4xx_HAL_Driver/Src/stm32f4xx_hal_i2s.c ****   /* Prevent unused argument(s) compilation warning */
 1458              		.loc 1 1223 0
 1459              		.cfi_startproc
 1460              		@ args = 0, pretend = 0, frame = 0
 1461              		@ frame_needed = 0, uses_anonymous_args = 0
 1462              		@ link register save eliminated.
 1463              	.LVL119:
 1464 0000 7047     		bx	lr
 1465              		.cfi_endproc
 1466              	.LFE140:
 1468 0002 00BF     		.section	.text.I2S_Receive_IT,"ax",%progbits
 1469              		.align	2
 1470              		.thumb
 1471              		.thumb_func
 1473              	I2S_Receive_IT:
 1474              	.LFB150:
1413:Drivers/STM32F4xx_HAL_Driver/Src/stm32f4xx_hal_i2s.c ****   /* Receive data */
 1475              		.loc 1 1413 0
 1476              		.cfi_startproc
 1477              		@ args = 0, pretend = 0, frame = 0
 1478              		@ frame_needed = 0, uses_anonymous_args = 0
ARM GAS  /tmp/cceNxm2U.s 			page 57


 1479              	.LVL120:
1413:Drivers/STM32F4xx_HAL_Driver/Src/stm32f4xx_hal_i2s.c ****   /* Receive data */
 1480              		.loc 1 1413 0
 1481 0000 08B5     		push	{r3, lr}
 1482              	.LCFI18:
 1483              		.cfi_def_cfa_offset 8
 1484              		.cfi_offset 3, -8
 1485              		.cfi_offset 14, -4
1415:Drivers/STM32F4xx_HAL_Driver/Src/stm32f4xx_hal_i2s.c ****   hi2s->RxXferCount--;
 1486              		.loc 1 1415 0
 1487 0002 C36A     		ldr	r3, [r0, #44]
 1488 0004 9A1C     		adds	r2, r3, #2
 1489 0006 C262     		str	r2, [r0, #44]
 1490 0008 0268     		ldr	r2, [r0]
 1491 000a D268     		ldr	r2, [r2, #12]
 1492 000c 1A80     		strh	r2, [r3]	@ movhi
1416:Drivers/STM32F4xx_HAL_Driver/Src/stm32f4xx_hal_i2s.c **** 
 1493              		.loc 1 1416 0
 1494 000e 438E     		ldrh	r3, [r0, #50]
 1495 0010 013B     		subs	r3, r3, #1
 1496 0012 9BB2     		uxth	r3, r3
 1497 0014 4386     		strh	r3, [r0, #50]	@ movhi
1418:Drivers/STM32F4xx_HAL_Driver/Src/stm32f4xx_hal_i2s.c ****   {
 1498              		.loc 1 1418 0
 1499 0016 438E     		ldrh	r3, [r0, #50]
 1500 0018 9BB2     		uxth	r3, r3
 1501 001a 5BB9     		cbnz	r3, .L131
1421:Drivers/STM32F4xx_HAL_Driver/Src/stm32f4xx_hal_i2s.c **** 
 1502              		.loc 1 1421 0
 1503 001c 0268     		ldr	r2, [r0]
 1504 001e 5368     		ldr	r3, [r2, #4]
 1505 0020 23F06003 		bic	r3, r3, #96
 1506 0024 1B04     		lsls	r3, r3, #16
 1507 0026 1B0C     		lsrs	r3, r3, #16
 1508 0028 5360     		str	r3, [r2, #4]
1423:Drivers/STM32F4xx_HAL_Driver/Src/stm32f4xx_hal_i2s.c ****     HAL_I2S_RxCpltCallback(hi2s);
 1509              		.loc 1 1423 0
 1510 002a 0123     		movs	r3, #1
 1511 002c 80F84130 		strb	r3, [r0, #65]
1424:Drivers/STM32F4xx_HAL_Driver/Src/stm32f4xx_hal_i2s.c ****   }
 1512              		.loc 1 1424 0
 1513 0030 FFF7FEFF 		bl	HAL_I2S_RxCpltCallback
 1514              	.LVL121:
 1515              	.L131:
 1516 0034 08BD     		pop	{r3, pc}
 1517              		.cfi_endproc
 1518              	.LFE150:
 1520 0036 00BF     		.section	.text.I2S_DMARxCplt,"ax",%progbits
 1521              		.align	2
 1522              		.thumb
 1523              		.thumb_func
 1525              	I2S_DMARxCplt:
 1526              	.LFB146:
1337:Drivers/STM32F4xx_HAL_Driver/Src/stm32f4xx_hal_i2s.c ****   I2S_HandleTypeDef* hi2s = ( I2S_HandleTypeDef* )((DMA_HandleTypeDef* )hdma)->Parent;
 1527              		.loc 1 1337 0
 1528              		.cfi_startproc
 1529              		@ args = 0, pretend = 0, frame = 0
ARM GAS  /tmp/cceNxm2U.s 			page 58


 1530              		@ frame_needed = 0, uses_anonymous_args = 0
 1531              	.LVL122:
 1532 0000 08B5     		push	{r3, lr}
 1533              	.LCFI19:
 1534              		.cfi_def_cfa_offset 8
 1535              		.cfi_offset 3, -8
 1536              		.cfi_offset 14, -4
1338:Drivers/STM32F4xx_HAL_Driver/Src/stm32f4xx_hal_i2s.c **** 
 1537              		.loc 1 1338 0
 1538 0002 836B     		ldr	r3, [r0, #56]
 1539              	.LVL123:
1340:Drivers/STM32F4xx_HAL_Driver/Src/stm32f4xx_hal_i2s.c ****   {
 1540              		.loc 1 1340 0
 1541 0004 0268     		ldr	r2, [r0]
 1542 0006 1268     		ldr	r2, [r2]
 1543 0008 12F4807F 		tst	r2, #256
 1544 000c 09D1     		bne	.L135
1343:Drivers/STM32F4xx_HAL_Driver/Src/stm32f4xx_hal_i2s.c ****     hi2s->RxXferCount = 0U;
 1545              		.loc 1 1343 0
 1546 000e 1968     		ldr	r1, [r3]
 1547 0010 4A68     		ldr	r2, [r1, #4]
 1548 0012 22F00102 		bic	r2, r2, #1
 1549 0016 4A60     		str	r2, [r1, #4]
1344:Drivers/STM32F4xx_HAL_Driver/Src/stm32f4xx_hal_i2s.c ****     hi2s->State       = HAL_I2S_STATE_READY;
 1550              		.loc 1 1344 0
 1551 0018 0022     		movs	r2, #0
 1552 001a 5A86     		strh	r2, [r3, #50]	@ movhi
1345:Drivers/STM32F4xx_HAL_Driver/Src/stm32f4xx_hal_i2s.c ****   }
 1553              		.loc 1 1345 0
 1554 001c 0122     		movs	r2, #1
 1555 001e 83F84120 		strb	r2, [r3, #65]
 1556              	.L135:
1347:Drivers/STM32F4xx_HAL_Driver/Src/stm32f4xx_hal_i2s.c **** }
 1557              		.loc 1 1347 0
 1558 0022 1846     		mov	r0, r3
 1559              	.LVL124:
 1560 0024 FFF7FEFF 		bl	HAL_I2S_RxCpltCallback
 1561              	.LVL125:
 1562 0028 08BD     		pop	{r3, pc}
 1563              		.cfi_endproc
 1564              	.LFE146:
 1566 002a 00BF     		.section	.text.HAL_I2S_ErrorCallback,"ax",%progbits
 1567              		.align	2
 1568              		.weak	HAL_I2S_ErrorCallback
 1569              		.thumb
 1570              		.thumb_func
 1572              	HAL_I2S_ErrorCallback:
 1573              	.LFB141:
1238:Drivers/STM32F4xx_HAL_Driver/Src/stm32f4xx_hal_i2s.c ****   /* Prevent unused argument(s) compilation warning */
 1574              		.loc 1 1238 0
 1575              		.cfi_startproc
 1576              		@ args = 0, pretend = 0, frame = 0
 1577              		@ frame_needed = 0, uses_anonymous_args = 0
 1578              		@ link register save eliminated.
 1579              	.LVL126:
 1580 0000 7047     		bx	lr
 1581              		.cfi_endproc
ARM GAS  /tmp/cceNxm2U.s 			page 59


 1582              	.LFE141:
 1584 0002 00BF     		.section	.text.HAL_I2S_Init,"ax",%progbits
 1585              		.align	2
 1586              		.global	HAL_I2S_Init
 1587              		.thumb
 1588              		.thumb_func
 1590              	HAL_I2S_Init:
 1591              	.LFB123:
 216:Drivers/STM32F4xx_HAL_Driver/Src/stm32f4xx_hal_i2s.c ****   uint32_t tmpreg = 0U, i2sdiv = 2U, i2sodd = 0U, packetlength = 16U;
 1592              		.loc 1 216 0
 1593              		.cfi_startproc
 1594              		@ args = 0, pretend = 0, frame = 0
 1595              		@ frame_needed = 0, uses_anonymous_args = 0
 1596              	.LVL127:
 221:Drivers/STM32F4xx_HAL_Driver/Src/stm32f4xx_hal_i2s.c ****   {
 1597              		.loc 1 221 0
 1598 0000 0028     		cmp	r0, #0
 1599 0002 00F0C380 		beq	.L154
 216:Drivers/STM32F4xx_HAL_Driver/Src/stm32f4xx_hal_i2s.c ****   uint32_t tmpreg = 0U, i2sdiv = 2U, i2sodd = 0U, packetlength = 16U;
 1600              		.loc 1 216 0
 1601 0006 70B5     		push	{r4, r5, r6, lr}
 1602              	.LCFI20:
 1603              		.cfi_def_cfa_offset 16
 1604              		.cfi_offset 4, -16
 1605              		.cfi_offset 5, -12
 1606              		.cfi_offset 6, -8
 1607              		.cfi_offset 14, -4
 1608 0008 0446     		mov	r4, r0
 236:Drivers/STM32F4xx_HAL_Driver/Src/stm32f4xx_hal_i2s.c **** 
 1609              		.loc 1 236 0
 1610 000a 0225     		movs	r5, #2
 1611 000c 80F84150 		strb	r5, [r0, #65]
 239:Drivers/STM32F4xx_HAL_Driver/Src/stm32f4xx_hal_i2s.c **** 
 1612              		.loc 1 239 0
 1613 0010 5F4B     		ldr	r3, .L166
 1614 0012 4363     		str	r3, [r0, #52]
 242:Drivers/STM32F4xx_HAL_Driver/Src/stm32f4xx_hal_i2s.c **** 
 1615              		.loc 1 242 0
 1616 0014 FFF7FEFF 		bl	HAL_I2S_MspInit
 1617              	.LVL128:
 246:Drivers/STM32F4xx_HAL_Driver/Src/stm32f4xx_hal_i2s.c ****                                      SPI_I2SCFGR_I2SSTD | SPI_I2SCFGR_PCMSYNC | SPI_I2SCFGR_I2SCFG 
 1618              		.loc 1 246 0
 1619 0018 2268     		ldr	r2, [r4]
 1620 001a D369     		ldr	r3, [r2, #28]
 1621 001c 23F47B63 		bic	r3, r3, #4016
 1622 0020 23F00F03 		bic	r3, r3, #15
 1623 0024 D361     		str	r3, [r2, #28]
 249:Drivers/STM32F4xx_HAL_Driver/Src/stm32f4xx_hal_i2s.c **** 
 1624              		.loc 1 249 0
 1625 0026 2368     		ldr	r3, [r4]
 1626 0028 1D62     		str	r5, [r3, #32]
 252:Drivers/STM32F4xx_HAL_Driver/Src/stm32f4xx_hal_i2s.c **** 
 1627              		.loc 1 252 0
 1628 002a 2368     		ldr	r3, [r4]
 1629 002c DD69     		ldr	r5, [r3, #28]
 1630              	.LVL129:
 256:Drivers/STM32F4xx_HAL_Driver/Src/stm32f4xx_hal_i2s.c ****   {
ARM GAS  /tmp/cceNxm2U.s 			page 60


 1631              		.loc 1 256 0
 1632 002e 6369     		ldr	r3, [r4, #20]
 1633 0030 022B     		cmp	r3, #2
 1634 0032 3AD0     		beq	.L155
 260:Drivers/STM32F4xx_HAL_Driver/Src/stm32f4xx_hal_i2s.c ****     {
 1635              		.loc 1 260 0
 1636 0034 E368     		ldr	r3, [r4, #12]
 1637 0036 0BB1     		cbz	r3, .L156
 263:Drivers/STM32F4xx_HAL_Driver/Src/stm32f4xx_hal_i2s.c ****     }
 1638              		.loc 1 263 0
 1639 0038 2026     		movs	r6, #32
 1640 003a 00E0     		b	.L141
 1641              	.L156:
 268:Drivers/STM32F4xx_HAL_Driver/Src/stm32f4xx_hal_i2s.c ****     }
 1642              		.loc 1 268 0
 1643 003c 1026     		movs	r6, #16
 1644              	.L141:
 1645              	.LVL130:
 272:Drivers/STM32F4xx_HAL_Driver/Src/stm32f4xx_hal_i2s.c ****     {
 1646              		.loc 1 272 0
 1647 003e A368     		ldr	r3, [r4, #8]
 1648 0040 202B     		cmp	r3, #32
 1649 0042 00D8     		bhi	.L142
 275:Drivers/STM32F4xx_HAL_Driver/Src/stm32f4xx_hal_i2s.c ****     }
 1650              		.loc 1 275 0
 1651 0044 7600     		lsls	r6, r6, #1
 1652              	.LVL131:
 1653              	.L142:
 289:Drivers/STM32F4xx_HAL_Driver/Src/stm32f4xx_hal_i2s.c **** #endif
 1654              		.loc 1 289 0
 1655 0046 0120     		movs	r0, #1
 1656 0048 FFF7FEFF 		bl	HAL_RCCEx_GetPeriphCLKFreq
 1657              	.LVL132:
 293:Drivers/STM32F4xx_HAL_Driver/Src/stm32f4xx_hal_i2s.c ****     {
 1658              		.loc 1 293 0
 1659 004c 2369     		ldr	r3, [r4, #16]
 1660 004e B3F5007F 		cmp	r3, #512
 1661 0052 17D1     		bne	.L143
 296:Drivers/STM32F4xx_HAL_Driver/Src/stm32f4xx_hal_i2s.c ****       {
 1662              		.loc 1 296 0
 1663 0054 E368     		ldr	r3, [r4, #12]
 1664 0056 53B1     		cbz	r3, .L144
 298:Drivers/STM32F4xx_HAL_Driver/Src/stm32f4xx_hal_i2s.c ****       }
 1665              		.loc 1 298 0
 1666 0058 B600     		lsls	r6, r6, #2
 1667              	.LVL133:
 1668 005a B0FBF6F0 		udiv	r0, r0, r6
 1669              	.LVL134:
 1670 005e 00EB8000 		add	r0, r0, r0, lsl #2
 1671 0062 4000     		lsls	r0, r0, #1
 1672 0064 6369     		ldr	r3, [r4, #20]
 1673 0066 B0FBF3F0 		udiv	r0, r0, r3
 1674 006a 0530     		adds	r0, r0, #5
 1675              	.LVL135:
 1676 006c 13E0     		b	.L145
 1677              	.LVL136:
 1678              	.L144:
ARM GAS  /tmp/cceNxm2U.s 			page 61


 302:Drivers/STM32F4xx_HAL_Driver/Src/stm32f4xx_hal_i2s.c ****       }
 1679              		.loc 1 302 0
 1680 006e F600     		lsls	r6, r6, #3
 1681              	.LVL137:
 1682 0070 B0FBF6F0 		udiv	r0, r0, r6
 1683              	.LVL138:
 1684 0074 00EB8000 		add	r0, r0, r0, lsl #2
 1685 0078 4000     		lsls	r0, r0, #1
 1686 007a 6369     		ldr	r3, [r4, #20]
 1687 007c B0FBF3F0 		udiv	r0, r0, r3
 1688 0080 0530     		adds	r0, r0, #5
 1689              	.LVL139:
 1690 0082 08E0     		b	.L145
 1691              	.LVL140:
 1692              	.L143:
 308:Drivers/STM32F4xx_HAL_Driver/Src/stm32f4xx_hal_i2s.c ****     }
 1693              		.loc 1 308 0
 1694 0084 B0FBF6F0 		udiv	r0, r0, r6
 1695              	.LVL141:
 1696 0088 00EB8000 		add	r0, r0, r0, lsl #2
 1697 008c 4000     		lsls	r0, r0, #1
 1698 008e 6369     		ldr	r3, [r4, #20]
 1699 0090 B0FBF3F0 		udiv	r0, r0, r3
 1700 0094 0530     		adds	r0, r0, #5
 1701              	.LVL142:
 1702              	.L145:
 312:Drivers/STM32F4xx_HAL_Driver/Src/stm32f4xx_hal_i2s.c **** 
 1703              		.loc 1 312 0
 1704 0096 3F4B     		ldr	r3, .L166+4
 1705 0098 A3FB0023 		umull	r2, r3, r3, r0
 1706 009c DB08     		lsrs	r3, r3, #3
 1707              	.LVL143:
 318:Drivers/STM32F4xx_HAL_Driver/Src/stm32f4xx_hal_i2s.c **** 
 1708              		.loc 1 318 0
 1709 009e 03F00102 		and	r2, r3, #1
 1710              	.LVL144:
 1711 00a2 C3F34F03 		ubfx	r3, r3, #1, #16
 1712              	.LVL145:
 321:Drivers/STM32F4xx_HAL_Driver/Src/stm32f4xx_hal_i2s.c ****   }
 1713              		.loc 1 321 0
 1714 00a6 1202     		lsls	r2, r2, #8
 1715              	.LVL146:
 1716 00a8 01E0     		b	.L140
 1717              	.LVL147:
 1718              	.L155:
 217:Drivers/STM32F4xx_HAL_Driver/Src/stm32f4xx_hal_i2s.c ****   uint32_t tmp = 0U, i2sclk = 0U;
 1719              		.loc 1 217 0
 1720 00aa 0022     		movs	r2, #0
 1721 00ac 0223     		movs	r3, #2
 1722              	.LVL148:
 1723              	.L140:
 325:Drivers/STM32F4xx_HAL_Driver/Src/stm32f4xx_hal_i2s.c ****   {
 1724              		.loc 1 325 0
 1725 00ae 991E     		subs	r1, r3, #2
 1726 00b0 FD29     		cmp	r1, #253
 1727 00b2 08D9     		bls	.L146
 1728              	.LVL149:
ARM GAS  /tmp/cceNxm2U.s 			page 62


 332:Drivers/STM32F4xx_HAL_Driver/Src/stm32f4xx_hal_i2s.c ****     HAL_I2S_ErrorCallback(hi2s);
 1729              		.loc 1 332 0
 1730 00b4 636C     		ldr	r3, [r4, #68]
 1731 00b6 43F01003 		orr	r3, r3, #16
 1732 00ba 6364     		str	r3, [r4, #68]
 333:Drivers/STM32F4xx_HAL_Driver/Src/stm32f4xx_hal_i2s.c ****     return  HAL_ERROR;
 1733              		.loc 1 333 0
 1734 00bc 2046     		mov	r0, r4
 1735 00be FFF7FEFF 		bl	HAL_I2S_ErrorCallback
 1736              	.LVL150:
 334:Drivers/STM32F4xx_HAL_Driver/Src/stm32f4xx_hal_i2s.c ****   }
 1737              		.loc 1 334 0
 1738 00c2 0120     		movs	r0, #1
 1739 00c4 70BD     		pop	{r4, r5, r6, pc}
 1740              	.LVL151:
 1741              	.L146:
 338:Drivers/STM32F4xx_HAL_Driver/Src/stm32f4xx_hal_i2s.c **** 
 1742              		.loc 1 338 0
 1743 00c6 2168     		ldr	r1, [r4]
 1744 00c8 2069     		ldr	r0, [r4, #16]
 1745 00ca 0243     		orrs	r2, r2, r0
 1746              	.LVL152:
 1747 00cc 1343     		orrs	r3, r3, r2
 1748              	.LVL153:
 1749 00ce 0B62     		str	r3, [r1, #32]
 343:Drivers/STM32F4xx_HAL_Driver/Src/stm32f4xx_hal_i2s.c **** 
 1750              		.loc 1 343 0
 1751 00d0 228B     		ldrh	r2, [r4, #24]
 342:Drivers/STM32F4xx_HAL_Driver/Src/stm32f4xx_hal_i2s.c ****                        (uint16_t)hi2s->Init.CPOL))));
 1752              		.loc 1 342 0
 1753 00d2 A389     		ldrh	r3, [r4, #12]
 1754 00d4 1343     		orrs	r3, r3, r2
 1755 00d6 2289     		ldrh	r2, [r4, #8]
 1756 00d8 1343     		orrs	r3, r3, r2
 341:Drivers/STM32F4xx_HAL_Driver/Src/stm32f4xx_hal_i2s.c ****                        (uint16_t)(hi2s->Init.Standard | (uint16_t)(hi2s->Init.DataFormat | \
 1757              		.loc 1 341 0
 1758 00da A288     		ldrh	r2, [r4, #4]
 1759 00dc 1343     		orrs	r3, r3, r2
 1760 00de 43F40063 		orr	r3, r3, #2048
 1761 00e2 1D43     		orrs	r5, r5, r3
 1762              	.LVL154:
 358:Drivers/STM32F4xx_HAL_Driver/Src/stm32f4xx_hal_i2s.c **** #endif
 1763              		.loc 1 358 0
 1764 00e4 2368     		ldr	r3, [r4]
 1765 00e6 DD61     		str	r5, [r3, #28]
 366:Drivers/STM32F4xx_HAL_Driver/Src/stm32f4xx_hal_i2s.c ****   {
 1766              		.loc 1 366 0
 1767 00e8 236A     		ldr	r3, [r4, #32]
 1768 00ea 012B     		cmp	r3, #1
 1769 00ec 48D1     		bne	.L147
 369:Drivers/STM32F4xx_HAL_Driver/Src/stm32f4xx_hal_i2s.c **** 
 1770              		.loc 1 369 0
 1771 00ee 2A4B     		ldr	r3, .L166+8
 1772 00f0 6363     		str	r3, [r4, #52]
 372:Drivers/STM32F4xx_HAL_Driver/Src/stm32f4xx_hal_i2s.c ****                                                 SPI_I2SCFGR_I2SSTD | SPI_I2SCFGR_PCMSYNC | SPI_I2SC
 1773              		.loc 1 372 0
 1774 00f2 2368     		ldr	r3, [r4]
ARM GAS  /tmp/cceNxm2U.s 			page 63


 1775 00f4 294A     		ldr	r2, .L166+12
 1776 00f6 9342     		cmp	r3, r2
 1777 00f8 01D1     		bne	.L157
 1778 00fa 2949     		ldr	r1, .L166+16
 1779 00fc 01E0     		b	.L148
 1780              	.L157:
 1781 00fe 4FF04021 		mov	r1, #1073758208
 1782              	.L148:
 372:Drivers/STM32F4xx_HAL_Driver/Src/stm32f4xx_hal_i2s.c ****                                                 SPI_I2SCFGR_I2SSTD | SPI_I2SCFGR_PCMSYNC | SPI_I2SC
 1783              		.loc 1 372 0 is_stmt 0 discriminator 4
 1784 0102 264A     		ldr	r2, .L166+12
 1785 0104 9342     		cmp	r3, r2
 1786 0106 01D1     		bne	.L158
 372:Drivers/STM32F4xx_HAL_Driver/Src/stm32f4xx_hal_i2s.c ****                                                 SPI_I2SCFGR_I2SSTD | SPI_I2SCFGR_PCMSYNC | SPI_I2SC
 1787              		.loc 1 372 0
 1788 0108 254B     		ldr	r3, .L166+16
 1789 010a 01E0     		b	.L149
 1790              	.L158:
 1791 010c 4FF04023 		mov	r3, #1073758208
 1792              	.L149:
 372:Drivers/STM32F4xx_HAL_Driver/Src/stm32f4xx_hal_i2s.c ****                                                 SPI_I2SCFGR_I2SSTD | SPI_I2SCFGR_PCMSYNC | SPI_I2SC
 1793              		.loc 1 372 0 discriminator 8
 1794 0110 DB69     		ldr	r3, [r3, #28]
 1795 0112 23F47B63 		bic	r3, r3, #4016
 1796 0116 23F00F03 		bic	r3, r3, #15
 1797 011a CB61     		str	r3, [r1, #28]
 375:Drivers/STM32F4xx_HAL_Driver/Src/stm32f4xx_hal_i2s.c **** 
 1798              		.loc 1 375 0 is_stmt 1 discriminator 8
 1799 011c 2268     		ldr	r2, [r4]
 1800 011e 1F4B     		ldr	r3, .L166+12
 1801 0120 9A42     		cmp	r2, r3
 1802 0122 01D1     		bne	.L159
 375:Drivers/STM32F4xx_HAL_Driver/Src/stm32f4xx_hal_i2s.c **** 
 1803              		.loc 1 375 0 is_stmt 0
 1804 0124 1E4A     		ldr	r2, .L166+16
 1805 0126 01E0     		b	.L150
 1806              	.L159:
 1807 0128 4FF04022 		mov	r2, #1073758208
 1808              	.L150:
 375:Drivers/STM32F4xx_HAL_Driver/Src/stm32f4xx_hal_i2s.c **** 
 1809              		.loc 1 375 0 discriminator 4
 1810 012c 0223     		movs	r3, #2
 1811 012e 1362     		str	r3, [r2, #32]
 378:Drivers/STM32F4xx_HAL_Driver/Src/stm32f4xx_hal_i2s.c **** 
 1812              		.loc 1 378 0 is_stmt 1 discriminator 4
 1813 0130 2568     		ldr	r5, [r4]
 1814              	.LVL155:
 1815 0132 1A4B     		ldr	r3, .L166+12
 1816 0134 9D42     		cmp	r5, r3
 1817 0136 02D1     		bne	.L160
 378:Drivers/STM32F4xx_HAL_Driver/Src/stm32f4xx_hal_i2s.c **** 
 1818              		.loc 1 378 0 is_stmt 0
 1819 0138 A3F58063 		sub	r3, r3, #1024
 1820 013c 01E0     		b	.L151
 1821              	.L160:
 1822 013e 4FF04023 		mov	r3, #1073758208
 1823              	.L151:
ARM GAS  /tmp/cceNxm2U.s 			page 64


 378:Drivers/STM32F4xx_HAL_Driver/Src/stm32f4xx_hal_i2s.c **** 
 1824              		.loc 1 378 0 discriminator 4
 1825 0142 D969     		ldr	r1, [r3, #28]
 1826              	.LVL156:
 381:Drivers/STM32F4xx_HAL_Driver/Src/stm32f4xx_hal_i2s.c ****     {
 1827              		.loc 1 381 0 is_stmt 1 discriminator 4
 1828 0144 6368     		ldr	r3, [r4, #4]
 1829 0146 B3F5007F 		cmp	r3, #512
 1830 014a 03D0     		beq	.L161
 381:Drivers/STM32F4xx_HAL_Driver/Src/stm32f4xx_hal_i2s.c ****     {
 1831              		.loc 1 381 0 is_stmt 0 discriminator 1
 1832 014c 2BB9     		cbnz	r3, .L162
 383:Drivers/STM32F4xx_HAL_Driver/Src/stm32f4xx_hal_i2s.c ****     }
 1833              		.loc 1 383 0 is_stmt 1
 1834 014e 4FF48072 		mov	r2, #256
 1835 0152 03E0     		b	.L152
 1836              	.L161:
 1837 0154 4FF48072 		mov	r2, #256
 1838 0158 00E0     		b	.L152
 1839              	.L162:
 387:Drivers/STM32F4xx_HAL_Driver/Src/stm32f4xx_hal_i2s.c ****     }
 1840              		.loc 1 387 0
 1841 015a 0022     		movs	r2, #0
 1842              	.L152:
 1843              	.LVL157:
 393:Drivers/STM32F4xx_HAL_Driver/Src/stm32f4xx_hal_i2s.c **** 
 1844              		.loc 1 393 0
 1845 015c 208B     		ldrh	r0, [r4, #24]
 392:Drivers/STM32F4xx_HAL_Driver/Src/stm32f4xx_hal_i2s.c ****                          (uint16_t)hi2s->Init.CPOL))));
 1846              		.loc 1 392 0
 1847 015e A389     		ldrh	r3, [r4, #12]
 1848 0160 1843     		orrs	r0, r0, r3
 1849 0162 2389     		ldrh	r3, [r4, #8]
 1850 0164 0343     		orrs	r3, r3, r0
 391:Drivers/STM32F4xx_HAL_Driver/Src/stm32f4xx_hal_i2s.c ****                          (uint16_t)(hi2s->Init.Standard | (uint16_t)(hi2s->Init.DataFormat | \
 1851              		.loc 1 391 0
 1852 0166 1343     		orrs	r3, r3, r2
 1853 0168 43F40063 		orr	r3, r3, #2048
 1854 016c 0B43     		orrs	r3, r3, r1
 1855              	.LVL158:
 396:Drivers/STM32F4xx_HAL_Driver/Src/stm32f4xx_hal_i2s.c ****   }
 1856              		.loc 1 396 0
 1857 016e 0B4A     		ldr	r2, .L166+12
 1858              	.LVL159:
 1859 0170 9542     		cmp	r5, r2
 1860 0172 02D1     		bne	.L163
 1861 0174 A2F58062 		sub	r2, r2, #1024
 1862 0178 01E0     		b	.L153
 1863              	.L163:
 1864 017a 4FF04022 		mov	r2, #1073758208
 1865              	.L153:
 396:Drivers/STM32F4xx_HAL_Driver/Src/stm32f4xx_hal_i2s.c ****   }
 1866              		.loc 1 396 0 is_stmt 0 discriminator 4
 1867 017e D361     		str	r3, [r2, #28]
 1868              	.LVL160:
 1869              	.L147:
 400:Drivers/STM32F4xx_HAL_Driver/Src/stm32f4xx_hal_i2s.c ****   hi2s->State     = HAL_I2S_STATE_READY;
ARM GAS  /tmp/cceNxm2U.s 			page 65


 1870              		.loc 1 400 0 is_stmt 1
 1871 0180 0020     		movs	r0, #0
 1872 0182 6064     		str	r0, [r4, #68]
 401:Drivers/STM32F4xx_HAL_Driver/Src/stm32f4xx_hal_i2s.c **** 
 1873              		.loc 1 401 0
 1874 0184 0123     		movs	r3, #1
 1875 0186 84F84130 		strb	r3, [r4, #65]
 403:Drivers/STM32F4xx_HAL_Driver/Src/stm32f4xx_hal_i2s.c **** }
 1876              		.loc 1 403 0
 1877 018a 70BD     		pop	{r4, r5, r6, pc}
 1878              	.LVL161:
 1879              	.L154:
 1880              	.LCFI21:
 1881              		.cfi_def_cfa_offset 0
 1882              		.cfi_restore 4
 1883              		.cfi_restore 5
 1884              		.cfi_restore 6
 1885              		.cfi_restore 14
 223:Drivers/STM32F4xx_HAL_Driver/Src/stm32f4xx_hal_i2s.c ****   }
 1886              		.loc 1 223 0
 1887 018c 0120     		movs	r0, #1
 1888              	.LVL162:
 1889 018e 7047     		bx	lr
 1890              	.L167:
 1891              		.align	2
 1892              	.L166:
 1893 0190 00000000 		.word	I2S_IRQHandler
 1894 0194 CDCCCCCC 		.word	-858993459
 1895 0198 00000000 		.word	HAL_I2SEx_FullDuplex_IRQHandler
 1896 019c 00380040 		.word	1073756160
 1897 01a0 00340040 		.word	1073755136
 1898              		.cfi_endproc
 1899              	.LFE123:
 1901              		.section	.text.I2S_IRQHandler,"ax",%progbits
 1902              		.align	2
 1903              		.thumb
 1904              		.thumb_func
 1906              	I2S_IRQHandler:
 1907              	.LFB151:
1435:Drivers/STM32F4xx_HAL_Driver/Src/stm32f4xx_hal_i2s.c ****   __IO uint32_t i2ssr = hi2s->Instance->SR;
 1908              		.loc 1 1435 0
 1909              		.cfi_startproc
 1910              		@ args = 0, pretend = 0, frame = 16
 1911              		@ frame_needed = 0, uses_anonymous_args = 0
 1912              	.LVL163:
 1913 0000 10B5     		push	{r4, lr}
 1914              	.LCFI22:
 1915              		.cfi_def_cfa_offset 8
 1916              		.cfi_offset 4, -8
 1917              		.cfi_offset 14, -4
 1918 0002 84B0     		sub	sp, sp, #16
 1919              	.LCFI23:
 1920              		.cfi_def_cfa_offset 24
 1921 0004 0446     		mov	r4, r0
1436:Drivers/STM32F4xx_HAL_Driver/Src/stm32f4xx_hal_i2s.c **** 
 1922              		.loc 1 1436 0
 1923 0006 0268     		ldr	r2, [r0]
ARM GAS  /tmp/cceNxm2U.s 			page 66


 1924 0008 9368     		ldr	r3, [r2, #8]
 1925 000a 0393     		str	r3, [sp, #12]
1438:Drivers/STM32F4xx_HAL_Driver/Src/stm32f4xx_hal_i2s.c ****   {
 1926              		.loc 1 1438 0
 1927 000c 90F84130 		ldrb	r3, [r0, #65]	@ zero_extendqisi2
 1928 0010 DBB2     		uxtb	r3, r3
 1929 0012 042B     		cmp	r3, #4
 1930 0014 2AD1     		bne	.L169
1441:Drivers/STM32F4xx_HAL_Driver/Src/stm32f4xx_hal_i2s.c ****     {
 1931              		.loc 1 1441 0
 1932 0016 039B     		ldr	r3, [sp, #12]
 1933 0018 13F0010F 		tst	r3, #1
 1934 001c 05D0     		beq	.L170
1441:Drivers/STM32F4xx_HAL_Driver/Src/stm32f4xx_hal_i2s.c ****     {
 1935              		.loc 1 1441 0 is_stmt 0 discriminator 1
 1936 001e 5368     		ldr	r3, [r2, #4]
 1937 0020 13F0400F 		tst	r3, #64
 1938 0024 01D0     		beq	.L170
1443:Drivers/STM32F4xx_HAL_Driver/Src/stm32f4xx_hal_i2s.c ****     }
 1939              		.loc 1 1443 0 is_stmt 1
 1940 0026 FFF7FEFF 		bl	I2S_Receive_IT
 1941              	.LVL164:
 1942              	.L170:
1447:Drivers/STM32F4xx_HAL_Driver/Src/stm32f4xx_hal_i2s.c ****     {
 1943              		.loc 1 1447 0
 1944 002a 039B     		ldr	r3, [sp, #12]
 1945 002c 13F0400F 		tst	r3, #64
 1946 0030 1CD0     		beq	.L169
1447:Drivers/STM32F4xx_HAL_Driver/Src/stm32f4xx_hal_i2s.c ****     {
 1947              		.loc 1 1447 0 is_stmt 0 discriminator 1
 1948 0032 2368     		ldr	r3, [r4]
 1949 0034 5A68     		ldr	r2, [r3, #4]
 1950 0036 12F0200F 		tst	r2, #32
 1951 003a 17D0     		beq	.L169
1450:Drivers/STM32F4xx_HAL_Driver/Src/stm32f4xx_hal_i2s.c **** 
 1952              		.loc 1 1450 0 is_stmt 1
 1953 003c 5A68     		ldr	r2, [r3, #4]
 1954 003e 22F06002 		bic	r2, r2, #96
 1955 0042 1204     		lsls	r2, r2, #16
 1956 0044 120C     		lsrs	r2, r2, #16
 1957 0046 5A60     		str	r2, [r3, #4]
 1958              	.LBB3:
1453:Drivers/STM32F4xx_HAL_Driver/Src/stm32f4xx_hal_i2s.c **** 
 1959              		.loc 1 1453 0
 1960 0048 0023     		movs	r3, #0
 1961 004a 0193     		str	r3, [sp, #4]
 1962 004c 2368     		ldr	r3, [r4]
 1963 004e DA68     		ldr	r2, [r3, #12]
 1964 0050 0192     		str	r2, [sp, #4]
 1965 0052 9B68     		ldr	r3, [r3, #8]
 1966 0054 0193     		str	r3, [sp, #4]
 1967 0056 019B     		ldr	r3, [sp, #4]
 1968              	.LBE3:
1456:Drivers/STM32F4xx_HAL_Driver/Src/stm32f4xx_hal_i2s.c **** 
 1969              		.loc 1 1456 0
 1970 0058 0123     		movs	r3, #1
 1971 005a 84F84130 		strb	r3, [r4, #65]
ARM GAS  /tmp/cceNxm2U.s 			page 67


1460:Drivers/STM32F4xx_HAL_Driver/Src/stm32f4xx_hal_i2s.c ****       HAL_I2S_ErrorCallback(hi2s);
 1972              		.loc 1 1460 0
 1973 005e 636C     		ldr	r3, [r4, #68]
 1974 0060 43F00203 		orr	r3, r3, #2
 1975 0064 6364     		str	r3, [r4, #68]
1461:Drivers/STM32F4xx_HAL_Driver/Src/stm32f4xx_hal_i2s.c ****       }
 1976              		.loc 1 1461 0
 1977 0066 2046     		mov	r0, r4
 1978 0068 FFF7FEFF 		bl	HAL_I2S_ErrorCallback
 1979              	.LVL165:
 1980              	.L169:
1465:Drivers/STM32F4xx_HAL_Driver/Src/stm32f4xx_hal_i2s.c ****     {
 1981              		.loc 1 1465 0
 1982 006c 94F84130 		ldrb	r3, [r4, #65]	@ zero_extendqisi2
 1983 0070 DBB2     		uxtb	r3, r3
 1984 0072 032B     		cmp	r3, #3
 1985 0074 2AD1     		bne	.L168
1468:Drivers/STM32F4xx_HAL_Driver/Src/stm32f4xx_hal_i2s.c ****       {
 1986              		.loc 1 1468 0
 1987 0076 039B     		ldr	r3, [sp, #12]
 1988 0078 13F0020F 		tst	r3, #2
 1989 007c 07D0     		beq	.L172
1468:Drivers/STM32F4xx_HAL_Driver/Src/stm32f4xx_hal_i2s.c ****       {
 1990              		.loc 1 1468 0 is_stmt 0 discriminator 1
 1991 007e 2368     		ldr	r3, [r4]
 1992 0080 5B68     		ldr	r3, [r3, #4]
 1993 0082 13F0800F 		tst	r3, #128
 1994 0086 02D0     		beq	.L172
1470:Drivers/STM32F4xx_HAL_Driver/Src/stm32f4xx_hal_i2s.c ****       }
 1995              		.loc 1 1470 0 is_stmt 1
 1996 0088 2046     		mov	r0, r4
 1997 008a FFF7FEFF 		bl	I2S_Transmit_IT
 1998              	.LVL166:
 1999              	.L172:
1474:Drivers/STM32F4xx_HAL_Driver/Src/stm32f4xx_hal_i2s.c ****       {
 2000              		.loc 1 1474 0
 2001 008e 039B     		ldr	r3, [sp, #12]
 2002 0090 13F0080F 		tst	r3, #8
 2003 0094 1AD0     		beq	.L168
1474:Drivers/STM32F4xx_HAL_Driver/Src/stm32f4xx_hal_i2s.c ****       {
 2004              		.loc 1 1474 0 is_stmt 0 discriminator 1
 2005 0096 2368     		ldr	r3, [r4]
 2006 0098 5A68     		ldr	r2, [r3, #4]
 2007 009a 12F0200F 		tst	r2, #32
 2008 009e 15D0     		beq	.L168
1477:Drivers/STM32F4xx_HAL_Driver/Src/stm32f4xx_hal_i2s.c **** 
 2009              		.loc 1 1477 0 is_stmt 1
 2010 00a0 5A68     		ldr	r2, [r3, #4]
 2011 00a2 22F0A002 		bic	r2, r2, #160
 2012 00a6 1204     		lsls	r2, r2, #16
 2013 00a8 120C     		lsrs	r2, r2, #16
 2014 00aa 5A60     		str	r2, [r3, #4]
 2015              	.LBB4:
1480:Drivers/STM32F4xx_HAL_Driver/Src/stm32f4xx_hal_i2s.c **** 
 2016              		.loc 1 1480 0
 2017 00ac 0023     		movs	r3, #0
 2018 00ae 0293     		str	r3, [sp, #8]
ARM GAS  /tmp/cceNxm2U.s 			page 68


 2019 00b0 2368     		ldr	r3, [r4]
 2020 00b2 9B68     		ldr	r3, [r3, #8]
 2021 00b4 0293     		str	r3, [sp, #8]
 2022 00b6 029B     		ldr	r3, [sp, #8]
 2023              	.LBE4:
1483:Drivers/STM32F4xx_HAL_Driver/Src/stm32f4xx_hal_i2s.c **** 
 2024              		.loc 1 1483 0
 2025 00b8 0123     		movs	r3, #1
 2026 00ba 84F84130 		strb	r3, [r4, #65]
1486:Drivers/STM32F4xx_HAL_Driver/Src/stm32f4xx_hal_i2s.c ****       HAL_I2S_ErrorCallback(hi2s);
 2027              		.loc 1 1486 0
 2028 00be 636C     		ldr	r3, [r4, #68]
 2029 00c0 43F00403 		orr	r3, r3, #4
 2030 00c4 6364     		str	r3, [r4, #68]
1487:Drivers/STM32F4xx_HAL_Driver/Src/stm32f4xx_hal_i2s.c ****     }
 2031              		.loc 1 1487 0
 2032 00c6 2046     		mov	r0, r4
 2033 00c8 FFF7FEFF 		bl	HAL_I2S_ErrorCallback
 2034              	.LVL167:
 2035              	.L168:
1490:Drivers/STM32F4xx_HAL_Driver/Src/stm32f4xx_hal_i2s.c **** 
 2036              		.loc 1 1490 0
 2037 00cc 04B0     		add	sp, sp, #16
 2038              	.LCFI24:
 2039              		.cfi_def_cfa_offset 8
 2040              		@ sp needed
 2041 00ce 10BD     		pop	{r4, pc}
 2042              		.cfi_endproc
 2043              	.LFE151:
 2045              		.section	.text.HAL_I2S_Transmit,"ax",%progbits
 2046              		.align	2
 2047              		.global	HAL_I2S_Transmit
 2048              		.thumb
 2049              		.thumb_func
 2051              	HAL_I2S_Transmit:
 2052              	.LFB127:
 525:Drivers/STM32F4xx_HAL_Driver/Src/stm32f4xx_hal_i2s.c ****   uint32_t tmp1 = 0U;
 2053              		.loc 1 525 0
 2054              		.cfi_startproc
 2055              		@ args = 0, pretend = 0, frame = 8
 2056              		@ frame_needed = 0, uses_anonymous_args = 0
 2057              	.LVL168:
 528:Drivers/STM32F4xx_HAL_Driver/Src/stm32f4xx_hal_i2s.c ****   {
 2058              		.loc 1 528 0
 2059 0000 0029     		cmp	r1, #0
 2060 0002 6DD0     		beq	.L183
 525:Drivers/STM32F4xx_HAL_Driver/Src/stm32f4xx_hal_i2s.c ****   uint32_t tmp1 = 0U;
 2061              		.loc 1 525 0 discriminator 1
 2062 0004 70B5     		push	{r4, r5, r6, lr}
 2063              	.LCFI25:
 2064              		.cfi_def_cfa_offset 16
 2065              		.cfi_offset 4, -16
 2066              		.cfi_offset 5, -12
 2067              		.cfi_offset 6, -8
 2068              		.cfi_offset 14, -4
 2069 0006 82B0     		sub	sp, sp, #8
 2070              	.LCFI26:
ARM GAS  /tmp/cceNxm2U.s 			page 69


 2071              		.cfi_def_cfa_offset 24
 2072 0008 0446     		mov	r4, r0
 2073 000a 1D46     		mov	r5, r3
 2074 000c 0B46     		mov	r3, r1
 2075              	.LVL169:
 528:Drivers/STM32F4xx_HAL_Driver/Src/stm32f4xx_hal_i2s.c ****   {
 2076              		.loc 1 528 0 discriminator 1
 2077 000e 002A     		cmp	r2, #0
 2078 0010 68D0     		beq	.L184
 533:Drivers/STM32F4xx_HAL_Driver/Src/stm32f4xx_hal_i2s.c ****   {
 2079              		.loc 1 533 0
 2080 0012 90F84110 		ldrb	r1, [r0, #65]	@ zero_extendqisi2
 2081              	.LVL170:
 2082 0016 C9B2     		uxtb	r1, r1
 2083 0018 0129     		cmp	r1, #1
 2084 001a 65D1     		bne	.L185
 535:Drivers/STM32F4xx_HAL_Driver/Src/stm32f4xx_hal_i2s.c **** 
 2085              		.loc 1 535 0
 2086 001c 0168     		ldr	r1, [r0]
 2087 001e C969     		ldr	r1, [r1, #28]
 2088 0020 01F00701 		and	r1, r1, #7
 2089              	.LVL171:
 537:Drivers/STM32F4xx_HAL_Driver/Src/stm32f4xx_hal_i2s.c ****     {
 2090              		.loc 1 537 0
 2091 0024 0329     		cmp	r1, #3
 2092 0026 01D0     		beq	.L176
 537:Drivers/STM32F4xx_HAL_Driver/Src/stm32f4xx_hal_i2s.c ****     {
 2093              		.loc 1 537 0 is_stmt 0 discriminator 1
 2094 0028 0529     		cmp	r1, #5
 2095 002a 04D1     		bne	.L177
 2096              	.L176:
 539:Drivers/STM32F4xx_HAL_Driver/Src/stm32f4xx_hal_i2s.c ****       hi2s->TxXferCount = (Size << 1U);
 2097              		.loc 1 539 0 is_stmt 1
 2098 002c 5200     		lsls	r2, r2, #1
 2099              	.LVL172:
 2100 002e 92B2     		uxth	r2, r2
 2101 0030 2285     		strh	r2, [r4, #40]	@ movhi
 540:Drivers/STM32F4xx_HAL_Driver/Src/stm32f4xx_hal_i2s.c ****     }
 2102              		.loc 1 540 0
 2103 0032 6285     		strh	r2, [r4, #42]	@ movhi
 2104 0034 01E0     		b	.L178
 2105              	.LVL173:
 2106              	.L177:
 544:Drivers/STM32F4xx_HAL_Driver/Src/stm32f4xx_hal_i2s.c ****       hi2s->TxXferCount = Size;
 2107              		.loc 1 544 0
 2108 0036 0285     		strh	r2, [r0, #40]	@ movhi
 545:Drivers/STM32F4xx_HAL_Driver/Src/stm32f4xx_hal_i2s.c ****     }
 2109              		.loc 1 545 0
 2110 0038 4285     		strh	r2, [r0, #42]	@ movhi
 2111              	.LVL174:
 2112              	.L178:
 549:Drivers/STM32F4xx_HAL_Driver/Src/stm32f4xx_hal_i2s.c **** 
 2113              		.loc 1 549 0
 2114 003a 94F84020 		ldrb	r2, [r4, #64]	@ zero_extendqisi2
 2115 003e D2B2     		uxtb	r2, r2
 2116 0040 012A     		cmp	r2, #1
 2117 0042 53D0     		beq	.L186
ARM GAS  /tmp/cceNxm2U.s 			page 70


 549:Drivers/STM32F4xx_HAL_Driver/Src/stm32f4xx_hal_i2s.c **** 
 2118              		.loc 1 549 0 is_stmt 0 discriminator 2
 2119 0044 0122     		movs	r2, #1
 2120 0046 84F84020 		strb	r2, [r4, #64]
 551:Drivers/STM32F4xx_HAL_Driver/Src/stm32f4xx_hal_i2s.c ****     hi2s->State     = HAL_I2S_STATE_BUSY_TX;
 2121              		.loc 1 551 0 is_stmt 1 discriminator 2
 2122 004a 0022     		movs	r2, #0
 2123 004c 6264     		str	r2, [r4, #68]
 552:Drivers/STM32F4xx_HAL_Driver/Src/stm32f4xx_hal_i2s.c **** 
 2124              		.loc 1 552 0 discriminator 2
 2125 004e 0322     		movs	r2, #3
 2126 0050 84F84120 		strb	r2, [r4, #65]
 555:Drivers/STM32F4xx_HAL_Driver/Src/stm32f4xx_hal_i2s.c ****     {
 2127              		.loc 1 555 0 discriminator 2
 2128 0054 2268     		ldr	r2, [r4]
 2129 0056 D169     		ldr	r1, [r2, #28]
 2130              	.LVL175:
 2131 0058 11F4806F 		tst	r1, #1024
 2132 005c 35D1     		bne	.L181
 558:Drivers/STM32F4xx_HAL_Driver/Src/stm32f4xx_hal_i2s.c ****     }
 2133              		.loc 1 558 0
 2134 005e D169     		ldr	r1, [r2, #28]
 2135 0060 41F48061 		orr	r1, r1, #1024
 2136 0064 D161     		str	r1, [r2, #28]
 2137 0066 30E0     		b	.L181
 2138              	.LVL176:
 2139              	.L182:
 563:Drivers/STM32F4xx_HAL_Driver/Src/stm32f4xx_hal_i2s.c ****       hi2s->TxXferCount--;
 2140              		.loc 1 563 0
 2141 0068 2268     		ldr	r2, [r4]
 2142 006a 9E1C     		adds	r6, r3, #2
 2143              	.LVL177:
 2144 006c 1B88     		ldrh	r3, [r3]
 2145 006e D360     		str	r3, [r2, #12]
 564:Drivers/STM32F4xx_HAL_Driver/Src/stm32f4xx_hal_i2s.c **** 
 2146              		.loc 1 564 0
 2147 0070 638D     		ldrh	r3, [r4, #42]
 2148 0072 013B     		subs	r3, r3, #1
 2149 0074 9BB2     		uxth	r3, r3
 2150 0076 6385     		strh	r3, [r4, #42]	@ movhi
 567:Drivers/STM32F4xx_HAL_Driver/Src/stm32f4xx_hal_i2s.c ****       {
 2151              		.loc 1 567 0
 2152 0078 2046     		mov	r0, r4
 2153 007a 0221     		movs	r1, #2
 2154 007c 0122     		movs	r2, #1
 2155 007e 2B46     		mov	r3, r5
 2156 0080 FFF7FEFF 		bl	I2S_WaitFlagStateUntilTimeout
 2157              	.LVL178:
 2158 0084 40B1     		cbz	r0, .L180
 570:Drivers/STM32F4xx_HAL_Driver/Src/stm32f4xx_hal_i2s.c ****         HAL_I2S_ErrorCallback(hi2s);
 2159              		.loc 1 570 0
 2160 0086 636C     		ldr	r3, [r4, #68]
 2161 0088 43F00103 		orr	r3, r3, #1
 2162 008c 6364     		str	r3, [r4, #68]
 571:Drivers/STM32F4xx_HAL_Driver/Src/stm32f4xx_hal_i2s.c ****         return HAL_TIMEOUT;
 2163              		.loc 1 571 0
 2164 008e 2046     		mov	r0, r4
ARM GAS  /tmp/cceNxm2U.s 			page 71


 2165 0090 FFF7FEFF 		bl	HAL_I2S_ErrorCallback
 2166              	.LVL179:
 572:Drivers/STM32F4xx_HAL_Driver/Src/stm32f4xx_hal_i2s.c ****       }
 2167              		.loc 1 572 0
 2168 0094 0320     		movs	r0, #3
 2169 0096 2AE0     		b	.L175
 2170              	.L180:
 576:Drivers/STM32F4xx_HAL_Driver/Src/stm32f4xx_hal_i2s.c ****       {
 2171              		.loc 1 576 0
 2172 0098 2368     		ldr	r3, [r4]
 2173 009a 9A68     		ldr	r2, [r3, #8]
 2174 009c 12F0080F 		tst	r2, #8
 2175 00a0 12D0     		beq	.L187
 2176              	.LBB5:
 579:Drivers/STM32F4xx_HAL_Driver/Src/stm32f4xx_hal_i2s.c ****         /* Set the I2S State ready */
 2177              		.loc 1 579 0
 2178 00a2 0022     		movs	r2, #0
 2179 00a4 0192     		str	r2, [sp, #4]
 2180 00a6 9B68     		ldr	r3, [r3, #8]
 2181 00a8 0193     		str	r3, [sp, #4]
 2182 00aa 019B     		ldr	r3, [sp, #4]
 2183              	.LBE5:
 581:Drivers/STM32F4xx_HAL_Driver/Src/stm32f4xx_hal_i2s.c **** 
 2184              		.loc 1 581 0
 2185 00ac 0125     		movs	r5, #1
 2186              	.LVL180:
 2187 00ae 84F84150 		strb	r5, [r4, #65]
 584:Drivers/STM32F4xx_HAL_Driver/Src/stm32f4xx_hal_i2s.c **** 
 2188              		.loc 1 584 0
 2189 00b2 84F84020 		strb	r2, [r4, #64]
 587:Drivers/STM32F4xx_HAL_Driver/Src/stm32f4xx_hal_i2s.c ****         HAL_I2S_ErrorCallback(hi2s);
 2190              		.loc 1 587 0
 2191 00b6 636C     		ldr	r3, [r4, #68]
 2192 00b8 43F00403 		orr	r3, r3, #4
 2193 00bc 6364     		str	r3, [r4, #68]
 588:Drivers/STM32F4xx_HAL_Driver/Src/stm32f4xx_hal_i2s.c **** 
 2194              		.loc 1 588 0
 2195 00be 2046     		mov	r0, r4
 2196 00c0 FFF7FEFF 		bl	HAL_I2S_ErrorCallback
 2197              	.LVL181:
 590:Drivers/STM32F4xx_HAL_Driver/Src/stm32f4xx_hal_i2s.c ****       }
 2198              		.loc 1 590 0
 2199 00c4 2846     		mov	r0, r5
 2200 00c6 12E0     		b	.L175
 2201              	.LVL182:
 2202              	.L187:
 563:Drivers/STM32F4xx_HAL_Driver/Src/stm32f4xx_hal_i2s.c ****       hi2s->TxXferCount--;
 2203              		.loc 1 563 0
 2204 00c8 3346     		mov	r3, r6
 2205              	.LVL183:
 2206              	.L181:
 561:Drivers/STM32F4xx_HAL_Driver/Src/stm32f4xx_hal_i2s.c ****     {
 2207              		.loc 1 561 0
 2208 00ca 628D     		ldrh	r2, [r4, #42]
 2209 00cc 92B2     		uxth	r2, r2
 2210 00ce 002A     		cmp	r2, #0
 2211 00d0 CAD1     		bne	.L182
ARM GAS  /tmp/cceNxm2U.s 			page 72


 593:Drivers/STM32F4xx_HAL_Driver/Src/stm32f4xx_hal_i2s.c **** 
 2212              		.loc 1 593 0
 2213 00d2 0123     		movs	r3, #1
 2214              	.LVL184:
 2215 00d4 84F84130 		strb	r3, [r4, #65]
 596:Drivers/STM32F4xx_HAL_Driver/Src/stm32f4xx_hal_i2s.c **** 
 2216              		.loc 1 596 0
 2217 00d8 0020     		movs	r0, #0
 2218 00da 84F84000 		strb	r0, [r4, #64]
 598:Drivers/STM32F4xx_HAL_Driver/Src/stm32f4xx_hal_i2s.c ****   }
 2219              		.loc 1 598 0
 2220 00de 06E0     		b	.L175
 2221              	.LVL185:
 2222              	.L183:
 2223              	.LCFI27:
 2224              		.cfi_def_cfa_offset 0
 2225              		.cfi_restore 4
 2226              		.cfi_restore 5
 2227              		.cfi_restore 6
 2228              		.cfi_restore 14
 530:Drivers/STM32F4xx_HAL_Driver/Src/stm32f4xx_hal_i2s.c ****   }
 2229              		.loc 1 530 0
 2230 00e0 0120     		movs	r0, #1
 2231              	.LVL186:
 604:Drivers/STM32F4xx_HAL_Driver/Src/stm32f4xx_hal_i2s.c **** 
 2232              		.loc 1 604 0
 2233 00e2 7047     		bx	lr
 2234              	.LVL187:
 2235              	.L184:
 2236              	.LCFI28:
 2237              		.cfi_def_cfa_offset 24
 2238              		.cfi_offset 4, -16
 2239              		.cfi_offset 5, -12
 2240              		.cfi_offset 6, -8
 2241              		.cfi_offset 14, -4
 530:Drivers/STM32F4xx_HAL_Driver/Src/stm32f4xx_hal_i2s.c ****   }
 2242              		.loc 1 530 0
 2243 00e4 0120     		movs	r0, #1
 2244              	.LVL188:
 2245 00e6 02E0     		b	.L175
 2246              	.LVL189:
 2247              	.L185:
 602:Drivers/STM32F4xx_HAL_Driver/Src/stm32f4xx_hal_i2s.c ****   }
 2248              		.loc 1 602 0
 2249 00e8 0220     		movs	r0, #2
 2250              	.LVL190:
 2251 00ea 00E0     		b	.L175
 2252              	.LVL191:
 2253              	.L186:
 549:Drivers/STM32F4xx_HAL_Driver/Src/stm32f4xx_hal_i2s.c **** 
 2254              		.loc 1 549 0
 2255 00ec 0220     		movs	r0, #2
 2256              	.LVL192:
 2257              	.L175:
 604:Drivers/STM32F4xx_HAL_Driver/Src/stm32f4xx_hal_i2s.c **** 
 2258              		.loc 1 604 0
 2259 00ee 02B0     		add	sp, sp, #8
ARM GAS  /tmp/cceNxm2U.s 			page 73


 2260              	.LCFI29:
 2261              		.cfi_def_cfa_offset 16
 2262              		@ sp needed
 2263 00f0 70BD     		pop	{r4, r5, r6, pc}
 2264              		.cfi_endproc
 2265              	.LFE127:
 2267 00f2 00BF     		.section	.text.HAL_I2S_Receive,"ax",%progbits
 2268              		.align	2
 2269              		.global	HAL_I2S_Receive
 2270              		.thumb
 2271              		.thumb_func
 2273              	HAL_I2S_Receive:
 2274              	.LFB128:
 624:Drivers/STM32F4xx_HAL_Driver/Src/stm32f4xx_hal_i2s.c ****   uint32_t tmp1 = 0U;
 2275              		.loc 1 624 0
 2276              		.cfi_startproc
 2277              		@ args = 0, pretend = 0, frame = 8
 2278              		@ frame_needed = 0, uses_anonymous_args = 0
 2279              	.LVL193:
 627:Drivers/STM32F4xx_HAL_Driver/Src/stm32f4xx_hal_i2s.c ****   {
 2280              		.loc 1 627 0
 2281 0000 0029     		cmp	r1, #0
 2282 0002 7BD0     		beq	.L200
 624:Drivers/STM32F4xx_HAL_Driver/Src/stm32f4xx_hal_i2s.c ****   uint32_t tmp1 = 0U;
 2283              		.loc 1 624 0 discriminator 1
 2284 0004 70B5     		push	{r4, r5, r6, lr}
 2285              	.LCFI30:
 2286              		.cfi_def_cfa_offset 16
 2287              		.cfi_offset 4, -16
 2288              		.cfi_offset 5, -12
 2289              		.cfi_offset 6, -8
 2290              		.cfi_offset 14, -4
 2291 0006 82B0     		sub	sp, sp, #8
 2292              	.LCFI31:
 2293              		.cfi_def_cfa_offset 24
 2294 0008 0446     		mov	r4, r0
 2295 000a 1E46     		mov	r6, r3
 2296 000c 0D46     		mov	r5, r1
 627:Drivers/STM32F4xx_HAL_Driver/Src/stm32f4xx_hal_i2s.c ****   {
 2297              		.loc 1 627 0 discriminator 1
 2298 000e 002A     		cmp	r2, #0
 2299 0010 76D0     		beq	.L201
 632:Drivers/STM32F4xx_HAL_Driver/Src/stm32f4xx_hal_i2s.c ****   {
 2300              		.loc 1 632 0
 2301 0012 90F84130 		ldrb	r3, [r0, #65]	@ zero_extendqisi2
 2302              	.LVL194:
 2303 0016 DBB2     		uxtb	r3, r3
 2304 0018 012B     		cmp	r3, #1
 2305 001a 73D1     		bne	.L202
 634:Drivers/STM32F4xx_HAL_Driver/Src/stm32f4xx_hal_i2s.c ****     if((tmp1 == I2S_DATAFORMAT_24B) || (tmp1 == I2S_DATAFORMAT_32B))
 2306              		.loc 1 634 0
 2307 001c 0368     		ldr	r3, [r0]
 2308 001e DB69     		ldr	r3, [r3, #28]
 2309 0020 03F00703 		and	r3, r3, #7
 2310              	.LVL195:
 635:Drivers/STM32F4xx_HAL_Driver/Src/stm32f4xx_hal_i2s.c ****     {
 2311              		.loc 1 635 0
ARM GAS  /tmp/cceNxm2U.s 			page 74


 2312 0024 032B     		cmp	r3, #3
 2313 0026 01D0     		beq	.L191
 635:Drivers/STM32F4xx_HAL_Driver/Src/stm32f4xx_hal_i2s.c ****     {
 2314              		.loc 1 635 0 is_stmt 0 discriminator 1
 2315 0028 052B     		cmp	r3, #5
 2316 002a 04D1     		bne	.L192
 2317              	.L191:
 637:Drivers/STM32F4xx_HAL_Driver/Src/stm32f4xx_hal_i2s.c ****       hi2s->RxXferCount = (Size << 1U);
 2318              		.loc 1 637 0 is_stmt 1
 2319 002c 5200     		lsls	r2, r2, #1
 2320              	.LVL196:
 2321 002e 92B2     		uxth	r2, r2
 2322 0030 2286     		strh	r2, [r4, #48]	@ movhi
 638:Drivers/STM32F4xx_HAL_Driver/Src/stm32f4xx_hal_i2s.c ****     }
 2323              		.loc 1 638 0
 2324 0032 6286     		strh	r2, [r4, #50]	@ movhi
 2325 0034 01E0     		b	.L193
 2326              	.LVL197:
 2327              	.L192:
 642:Drivers/STM32F4xx_HAL_Driver/Src/stm32f4xx_hal_i2s.c ****       hi2s->RxXferCount = Size;
 2328              		.loc 1 642 0
 2329 0036 0286     		strh	r2, [r0, #48]	@ movhi
 643:Drivers/STM32F4xx_HAL_Driver/Src/stm32f4xx_hal_i2s.c ****     }
 2330              		.loc 1 643 0
 2331 0038 4286     		strh	r2, [r0, #50]	@ movhi
 2332              	.LVL198:
 2333              	.L193:
 646:Drivers/STM32F4xx_HAL_Driver/Src/stm32f4xx_hal_i2s.c **** 
 2334              		.loc 1 646 0
 2335 003a 94F84030 		ldrb	r3, [r4, #64]	@ zero_extendqisi2
 2336              	.LVL199:
 2337 003e DBB2     		uxtb	r3, r3
 2338 0040 012B     		cmp	r3, #1
 2339 0042 61D0     		beq	.L203
 646:Drivers/STM32F4xx_HAL_Driver/Src/stm32f4xx_hal_i2s.c **** 
 2340              		.loc 1 646 0 is_stmt 0 discriminator 2
 2341 0044 0123     		movs	r3, #1
 2342 0046 84F84030 		strb	r3, [r4, #64]
 648:Drivers/STM32F4xx_HAL_Driver/Src/stm32f4xx_hal_i2s.c ****     hi2s->State     = HAL_I2S_STATE_BUSY_RX;
 2343              		.loc 1 648 0 is_stmt 1 discriminator 2
 2344 004a 0023     		movs	r3, #0
 2345 004c 6364     		str	r3, [r4, #68]
 649:Drivers/STM32F4xx_HAL_Driver/Src/stm32f4xx_hal_i2s.c **** 
 2346              		.loc 1 649 0 discriminator 2
 2347 004e 0423     		movs	r3, #4
 2348 0050 84F84130 		strb	r3, [r4, #65]
 652:Drivers/STM32F4xx_HAL_Driver/Src/stm32f4xx_hal_i2s.c ****     {
 2349              		.loc 1 652 0 discriminator 2
 2350 0054 2368     		ldr	r3, [r4]
 2351 0056 DA69     		ldr	r2, [r3, #28]
 2352 0058 12F4806F 		tst	r2, #1024
 2353 005c 03D1     		bne	.L194
 655:Drivers/STM32F4xx_HAL_Driver/Src/stm32f4xx_hal_i2s.c ****     }
 2354              		.loc 1 655 0
 2355 005e DA69     		ldr	r2, [r3, #28]
 2356 0060 42F48062 		orr	r2, r2, #1024
 2357 0064 DA61     		str	r2, [r3, #28]
ARM GAS  /tmp/cceNxm2U.s 			page 75


 2358              	.L194:
 659:Drivers/STM32F4xx_HAL_Driver/Src/stm32f4xx_hal_i2s.c ****     {
 2359              		.loc 1 659 0
 2360 0066 2268     		ldr	r2, [r4]
 2361 0068 D369     		ldr	r3, [r2, #28]
 2362 006a 03F44073 		and	r3, r3, #768
 2363 006e B3F5407F 		cmp	r3, #768
 2364 0072 38D1     		bne	.L196
 2365              	.LBB6:
 663:Drivers/STM32F4xx_HAL_Driver/Src/stm32f4xx_hal_i2s.c ****     }
 2366              		.loc 1 663 0
 2367 0074 0023     		movs	r3, #0
 2368 0076 0093     		str	r3, [sp]
 2369 0078 D368     		ldr	r3, [r2, #12]
 2370 007a 0093     		str	r3, [sp]
 2371 007c 9368     		ldr	r3, [r2, #8]
 2372 007e 0093     		str	r3, [sp]
 2373 0080 009B     		ldr	r3, [sp]
 2374 0082 30E0     		b	.L196
 2375              	.LVL200:
 2376              	.L199:
 2377              	.LBE6:
 670:Drivers/STM32F4xx_HAL_Driver/Src/stm32f4xx_hal_i2s.c ****       {
 2378              		.loc 1 670 0
 2379 0084 2046     		mov	r0, r4
 2380 0086 0121     		movs	r1, #1
 2381 0088 0A46     		mov	r2, r1
 2382 008a 3346     		mov	r3, r6
 2383 008c FFF7FEFF 		bl	I2S_WaitFlagStateUntilTimeout
 2384              	.LVL201:
 2385 0090 40B1     		cbz	r0, .L197
 673:Drivers/STM32F4xx_HAL_Driver/Src/stm32f4xx_hal_i2s.c ****         HAL_I2S_ErrorCallback(hi2s);
 2386              		.loc 1 673 0
 2387 0092 636C     		ldr	r3, [r4, #68]
 2388 0094 43F00103 		orr	r3, r3, #1
 2389 0098 6364     		str	r3, [r4, #68]
 674:Drivers/STM32F4xx_HAL_Driver/Src/stm32f4xx_hal_i2s.c ****         return HAL_TIMEOUT;
 2390              		.loc 1 674 0
 2391 009a 2046     		mov	r0, r4
 2392 009c FFF7FEFF 		bl	HAL_I2S_ErrorCallback
 2393              	.LVL202:
 675:Drivers/STM32F4xx_HAL_Driver/Src/stm32f4xx_hal_i2s.c ****       }
 2394              		.loc 1 675 0
 2395 00a0 0320     		movs	r0, #3
 2396 00a2 32E0     		b	.L190
 2397              	.L197:
 679:Drivers/STM32F4xx_HAL_Driver/Src/stm32f4xx_hal_i2s.c ****       {
 2398              		.loc 1 679 0
 2399 00a4 2368     		ldr	r3, [r4]
 2400 00a6 9A68     		ldr	r2, [r3, #8]
 2401 00a8 12F0400F 		tst	r2, #64
 2402 00ac 14D0     		beq	.L198
 2403              	.LBB7:
 682:Drivers/STM32F4xx_HAL_Driver/Src/stm32f4xx_hal_i2s.c **** 
 2404              		.loc 1 682 0
 2405 00ae 0022     		movs	r2, #0
 2406 00b0 0192     		str	r2, [sp, #4]
ARM GAS  /tmp/cceNxm2U.s 			page 76


 2407 00b2 D968     		ldr	r1, [r3, #12]
 2408 00b4 0191     		str	r1, [sp, #4]
 2409 00b6 9B68     		ldr	r3, [r3, #8]
 2410 00b8 0193     		str	r3, [sp, #4]
 2411 00ba 019B     		ldr	r3, [sp, #4]
 2412              	.LBE7:
 685:Drivers/STM32F4xx_HAL_Driver/Src/stm32f4xx_hal_i2s.c **** 
 2413              		.loc 1 685 0
 2414 00bc 0125     		movs	r5, #1
 2415              	.LVL203:
 2416 00be 84F84150 		strb	r5, [r4, #65]
 688:Drivers/STM32F4xx_HAL_Driver/Src/stm32f4xx_hal_i2s.c **** 
 2417              		.loc 1 688 0
 2418 00c2 84F84020 		strb	r2, [r4, #64]
 691:Drivers/STM32F4xx_HAL_Driver/Src/stm32f4xx_hal_i2s.c ****         HAL_I2S_ErrorCallback(hi2s);
 2419              		.loc 1 691 0
 2420 00c6 636C     		ldr	r3, [r4, #68]
 2421 00c8 43F00203 		orr	r3, r3, #2
 2422 00cc 6364     		str	r3, [r4, #68]
 692:Drivers/STM32F4xx_HAL_Driver/Src/stm32f4xx_hal_i2s.c **** 
 2423              		.loc 1 692 0
 2424 00ce 2046     		mov	r0, r4
 2425 00d0 FFF7FEFF 		bl	HAL_I2S_ErrorCallback
 2426              	.LVL204:
 694:Drivers/STM32F4xx_HAL_Driver/Src/stm32f4xx_hal_i2s.c ****       }
 2427              		.loc 1 694 0
 2428 00d4 2846     		mov	r0, r5
 2429 00d6 18E0     		b	.L190
 2430              	.LVL205:
 2431              	.L198:
 697:Drivers/STM32F4xx_HAL_Driver/Src/stm32f4xx_hal_i2s.c ****       hi2s->RxXferCount--;
 2432              		.loc 1 697 0
 2433 00d8 DB68     		ldr	r3, [r3, #12]
 2434 00da 2B80     		strh	r3, [r5]	@ movhi
 698:Drivers/STM32F4xx_HAL_Driver/Src/stm32f4xx_hal_i2s.c ****     }
 2435              		.loc 1 698 0
 2436 00dc 638E     		ldrh	r3, [r4, #50]
 2437 00de 013B     		subs	r3, r3, #1
 2438 00e0 9BB2     		uxth	r3, r3
 2439 00e2 6386     		strh	r3, [r4, #50]	@ movhi
 697:Drivers/STM32F4xx_HAL_Driver/Src/stm32f4xx_hal_i2s.c ****       hi2s->RxXferCount--;
 2440              		.loc 1 697 0
 2441 00e4 0235     		adds	r5, r5, #2
 2442              	.LVL206:
 2443              	.L196:
 667:Drivers/STM32F4xx_HAL_Driver/Src/stm32f4xx_hal_i2s.c ****     {
 2444              		.loc 1 667 0
 2445 00e6 638E     		ldrh	r3, [r4, #50]
 2446 00e8 9BB2     		uxth	r3, r3
 2447 00ea 002B     		cmp	r3, #0
 2448 00ec CAD1     		bne	.L199
 701:Drivers/STM32F4xx_HAL_Driver/Src/stm32f4xx_hal_i2s.c **** 
 2449              		.loc 1 701 0
 2450 00ee 0123     		movs	r3, #1
 2451 00f0 84F84130 		strb	r3, [r4, #65]
 704:Drivers/STM32F4xx_HAL_Driver/Src/stm32f4xx_hal_i2s.c **** 
 2452              		.loc 1 704 0
ARM GAS  /tmp/cceNxm2U.s 			page 77


 2453 00f4 0020     		movs	r0, #0
 2454 00f6 84F84000 		strb	r0, [r4, #64]
 706:Drivers/STM32F4xx_HAL_Driver/Src/stm32f4xx_hal_i2s.c ****   }
 2455              		.loc 1 706 0
 2456 00fa 06E0     		b	.L190
 2457              	.LVL207:
 2458              	.L200:
 2459              	.LCFI32:
 2460              		.cfi_def_cfa_offset 0
 2461              		.cfi_restore 4
 2462              		.cfi_restore 5
 2463              		.cfi_restore 6
 2464              		.cfi_restore 14
 629:Drivers/STM32F4xx_HAL_Driver/Src/stm32f4xx_hal_i2s.c ****   }
 2465              		.loc 1 629 0
 2466 00fc 0120     		movs	r0, #1
 2467              	.LVL208:
 712:Drivers/STM32F4xx_HAL_Driver/Src/stm32f4xx_hal_i2s.c **** 
 2468              		.loc 1 712 0
 2469 00fe 7047     		bx	lr
 2470              	.LVL209:
 2471              	.L201:
 2472              	.LCFI33:
 2473              		.cfi_def_cfa_offset 24
 2474              		.cfi_offset 4, -16
 2475              		.cfi_offset 5, -12
 2476              		.cfi_offset 6, -8
 2477              		.cfi_offset 14, -4
 629:Drivers/STM32F4xx_HAL_Driver/Src/stm32f4xx_hal_i2s.c ****   }
 2478              		.loc 1 629 0
 2479 0100 0120     		movs	r0, #1
 2480              	.LVL210:
 2481 0102 02E0     		b	.L190
 2482              	.LVL211:
 2483              	.L202:
 710:Drivers/STM32F4xx_HAL_Driver/Src/stm32f4xx_hal_i2s.c ****   }
 2484              		.loc 1 710 0
 2485 0104 0220     		movs	r0, #2
 2486              	.LVL212:
 2487 0106 00E0     		b	.L190
 2488              	.LVL213:
 2489              	.L203:
 646:Drivers/STM32F4xx_HAL_Driver/Src/stm32f4xx_hal_i2s.c **** 
 2490              		.loc 1 646 0
 2491 0108 0220     		movs	r0, #2
 2492              	.LVL214:
 2493              	.L190:
 712:Drivers/STM32F4xx_HAL_Driver/Src/stm32f4xx_hal_i2s.c **** 
 2494              		.loc 1 712 0
 2495 010a 02B0     		add	sp, sp, #8
 2496              	.LCFI34:
 2497              		.cfi_def_cfa_offset 16
 2498              		@ sp needed
 2499 010c 70BD     		pop	{r4, r5, r6, pc}
 2500              		.cfi_endproc
 2501              	.LFE128:
 2503 010e 00BF     		.section	.text.I2S_DMAError,"ax",%progbits
ARM GAS  /tmp/cceNxm2U.s 			page 78


 2504              		.align	2
 2505              		.thumb
 2506              		.thumb_func
 2508              	I2S_DMAError:
 2509              	.LFB148:
1370:Drivers/STM32F4xx_HAL_Driver/Src/stm32f4xx_hal_i2s.c ****   I2S_HandleTypeDef* hi2s = (I2S_HandleTypeDef*)((DMA_HandleTypeDef*)hdma)->Parent;
 2510              		.loc 1 1370 0
 2511              		.cfi_startproc
 2512              		@ args = 0, pretend = 0, frame = 0
 2513              		@ frame_needed = 0, uses_anonymous_args = 0
 2514              	.LVL215:
 2515 0000 08B5     		push	{r3, lr}
 2516              	.LCFI35:
 2517              		.cfi_def_cfa_offset 8
 2518              		.cfi_offset 3, -8
 2519              		.cfi_offset 14, -4
1371:Drivers/STM32F4xx_HAL_Driver/Src/stm32f4xx_hal_i2s.c **** 
 2520              		.loc 1 1371 0
 2521 0002 806B     		ldr	r0, [r0, #56]
 2522              	.LVL216:
1374:Drivers/STM32F4xx_HAL_Driver/Src/stm32f4xx_hal_i2s.c ****   hi2s->TxXferCount = 0U;
 2523              		.loc 1 1374 0
 2524 0004 0268     		ldr	r2, [r0]
 2525 0006 5368     		ldr	r3, [r2, #4]
 2526 0008 23F00303 		bic	r3, r3, #3
 2527 000c 5360     		str	r3, [r2, #4]
1375:Drivers/STM32F4xx_HAL_Driver/Src/stm32f4xx_hal_i2s.c ****   hi2s->RxXferCount = 0U;
 2528              		.loc 1 1375 0
 2529 000e 0023     		movs	r3, #0
 2530 0010 4385     		strh	r3, [r0, #42]	@ movhi
1376:Drivers/STM32F4xx_HAL_Driver/Src/stm32f4xx_hal_i2s.c **** 
 2531              		.loc 1 1376 0
 2532 0012 4386     		strh	r3, [r0, #50]	@ movhi
1378:Drivers/STM32F4xx_HAL_Driver/Src/stm32f4xx_hal_i2s.c **** 
 2533              		.loc 1 1378 0
 2534 0014 0123     		movs	r3, #1
 2535 0016 80F84130 		strb	r3, [r0, #65]
1380:Drivers/STM32F4xx_HAL_Driver/Src/stm32f4xx_hal_i2s.c ****   HAL_I2S_ErrorCallback(hi2s);
 2536              		.loc 1 1380 0
 2537 001a 436C     		ldr	r3, [r0, #68]
 2538 001c 43F00803 		orr	r3, r3, #8
 2539 0020 4364     		str	r3, [r0, #68]
1381:Drivers/STM32F4xx_HAL_Driver/Src/stm32f4xx_hal_i2s.c **** }
 2540              		.loc 1 1381 0
 2541 0022 FFF7FEFF 		bl	HAL_I2S_ErrorCallback
 2542              	.LVL217:
 2543 0026 08BD     		pop	{r3, pc}
 2544              		.cfi_endproc
 2545              	.LFE148:
 2547              		.section	.text.HAL_I2S_GetState,"ax",%progbits
 2548              		.align	2
 2549              		.global	HAL_I2S_GetState
 2550              		.thumb
 2551              		.thumb_func
 2553              	HAL_I2S_GetState:
 2554              	.LFB142:
1272:Drivers/STM32F4xx_HAL_Driver/Src/stm32f4xx_hal_i2s.c ****   return hi2s->State;
ARM GAS  /tmp/cceNxm2U.s 			page 79


 2555              		.loc 1 1272 0
 2556              		.cfi_startproc
 2557              		@ args = 0, pretend = 0, frame = 0
 2558              		@ frame_needed = 0, uses_anonymous_args = 0
 2559              		@ link register save eliminated.
 2560              	.LVL218:
1273:Drivers/STM32F4xx_HAL_Driver/Src/stm32f4xx_hal_i2s.c **** }
 2561              		.loc 1 1273 0
 2562 0000 90F84100 		ldrb	r0, [r0, #65]	@ zero_extendqisi2
 2563              	.LVL219:
1274:Drivers/STM32F4xx_HAL_Driver/Src/stm32f4xx_hal_i2s.c **** 
 2564              		.loc 1 1274 0
 2565 0004 7047     		bx	lr
 2566              		.cfi_endproc
 2567              	.LFE142:
 2569 0006 00BF     		.section	.text.HAL_I2S_GetError,"ax",%progbits
 2570              		.align	2
 2571              		.global	HAL_I2S_GetError
 2572              		.thumb
 2573              		.thumb_func
 2575              	HAL_I2S_GetError:
 2576              	.LFB143:
1283:Drivers/STM32F4xx_HAL_Driver/Src/stm32f4xx_hal_i2s.c ****   return hi2s->ErrorCode;
 2577              		.loc 1 1283 0
 2578              		.cfi_startproc
 2579              		@ args = 0, pretend = 0, frame = 0
 2580              		@ frame_needed = 0, uses_anonymous_args = 0
 2581              		@ link register save eliminated.
 2582              	.LVL220:
1284:Drivers/STM32F4xx_HAL_Driver/Src/stm32f4xx_hal_i2s.c **** }
 2583              		.loc 1 1284 0
 2584 0000 406C     		ldr	r0, [r0, #68]
 2585              	.LVL221:
1285:Drivers/STM32F4xx_HAL_Driver/Src/stm32f4xx_hal_i2s.c **** /**
 2586              		.loc 1 1285 0
 2587 0002 7047     		bx	lr
 2588              		.cfi_endproc
 2589              	.LFE143:
 2591              		.text
 2592              	.Letext0:
 2593              		.file 2 "/usr/include/newlib/machine/_default_types.h"
 2594              		.file 3 "/usr/include/newlib/sys/_stdint.h"
 2595              		.file 4 "Drivers/CMSIS/Device/ST/STM32F4xx/Include/stm32f401xc.h"
 2596              		.file 5 "Drivers/CMSIS/Device/ST/STM32F4xx/Include/stm32f4xx.h"
 2597              		.file 6 "Drivers/STM32F4xx_HAL_Driver/Inc/stm32f4xx_hal_def.h"
 2598              		.file 7 "Drivers/STM32F4xx_HAL_Driver/Inc/stm32f4xx_hal_dma.h"
 2599              		.file 8 "Drivers/STM32F4xx_HAL_Driver/Inc/stm32f4xx_hal_i2s.h"
 2600              		.file 9 "Drivers/CMSIS/Include/core_cm4.h"
 2601              		.file 10 "Drivers/STM32F4xx_HAL_Driver/Inc/stm32f4xx_hal.h"
 2602              		.file 11 "Drivers/STM32F4xx_HAL_Driver/Inc/stm32f4xx_hal_rcc_ex.h"
ARM GAS  /tmp/cceNxm2U.s 			page 80


DEFINED SYMBOLS
                            *ABS*:0000000000000000 stm32f4xx_hal_i2s.c
     /tmp/cceNxm2U.s:21     .text.I2S_WaitFlagStateUntilTimeout:0000000000000000 $t
     /tmp/cceNxm2U.s:25     .text.I2S_WaitFlagStateUntilTimeout:0000000000000000 I2S_WaitFlagStateUntilTimeout
     /tmp/cceNxm2U.s:100    .text.HAL_I2S_MspInit:0000000000000000 $t
     /tmp/cceNxm2U.s:105    .text.HAL_I2S_MspInit:0000000000000000 HAL_I2S_MspInit
     /tmp/cceNxm2U.s:118    .text.HAL_I2S_MspDeInit:0000000000000000 $t
     /tmp/cceNxm2U.s:123    .text.HAL_I2S_MspDeInit:0000000000000000 HAL_I2S_MspDeInit
     /tmp/cceNxm2U.s:136    .text.HAL_I2S_DeInit:0000000000000000 $t
     /tmp/cceNxm2U.s:141    .text.HAL_I2S_DeInit:0000000000000000 HAL_I2S_DeInit
     /tmp/cceNxm2U.s:186    .text.HAL_I2S_Transmit_IT:0000000000000000 $t
     /tmp/cceNxm2U.s:191    .text.HAL_I2S_Transmit_IT:0000000000000000 HAL_I2S_Transmit_IT
     /tmp/cceNxm2U.s:305    .text.HAL_I2S_Receive_IT:0000000000000000 $t
     /tmp/cceNxm2U.s:310    .text.HAL_I2S_Receive_IT:0000000000000000 HAL_I2S_Receive_IT
     /tmp/cceNxm2U.s:424    .text.HAL_I2S_Transmit_DMA:0000000000000000 $t
     /tmp/cceNxm2U.s:429    .text.HAL_I2S_Transmit_DMA:0000000000000000 HAL_I2S_Transmit_DMA
     /tmp/cceNxm2U.s:593    .text.HAL_I2S_Transmit_DMA:00000000000000b0 $d
     /tmp/cceNxm2U.s:1265   .text.I2S_DMATxHalfCplt:0000000000000000 I2S_DMATxHalfCplt
     /tmp/cceNxm2U.s:1363   .text.I2S_DMATxCplt:0000000000000000 I2S_DMATxCplt
     /tmp/cceNxm2U.s:2508   .text.I2S_DMAError:0000000000000000 I2S_DMAError
     /tmp/cceNxm2U.s:600    .text.HAL_I2S_Receive_DMA:0000000000000000 $t
     /tmp/cceNxm2U.s:605    .text.HAL_I2S_Receive_DMA:0000000000000000 HAL_I2S_Receive_DMA
     /tmp/cceNxm2U.s:790    .text.HAL_I2S_Receive_DMA:00000000000000d0 $d
     /tmp/cceNxm2U.s:1427   .text.I2S_DMARxHalfCplt:0000000000000000 I2S_DMARxHalfCplt
     /tmp/cceNxm2U.s:1525   .text.I2S_DMARxCplt:0000000000000000 I2S_DMARxCplt
     /tmp/cceNxm2U.s:797    .text.HAL_I2S_DMAPause:0000000000000000 $t
     /tmp/cceNxm2U.s:802    .text.HAL_I2S_DMAPause:0000000000000000 HAL_I2S_DMAPause
     /tmp/cceNxm2U.s:894    .text.HAL_I2S_DMAPause:0000000000000084 $d
     /tmp/cceNxm2U.s:900    .text.HAL_I2S_DMAResume:0000000000000000 $t
     /tmp/cceNxm2U.s:905    .text.HAL_I2S_DMAResume:0000000000000000 HAL_I2S_DMAResume
     /tmp/cceNxm2U.s:1045   .text.HAL_I2S_DMAResume:00000000000000d8 $d
     /tmp/cceNxm2U.s:1051   .text.HAL_I2S_DMAStop:0000000000000000 $t
     /tmp/cceNxm2U.s:1056   .text.HAL_I2S_DMAStop:0000000000000000 HAL_I2S_DMAStop
     /tmp/cceNxm2U.s:1211   .text.HAL_I2S_DMAStop:00000000000000dc $d
     /tmp/cceNxm2U.s:1217   .text.HAL_I2S_IRQHandler:0000000000000000 $t
     /tmp/cceNxm2U.s:1222   .text.HAL_I2S_IRQHandler:0000000000000000 HAL_I2S_IRQHandler
     /tmp/cceNxm2U.s:1243   .text.HAL_I2S_TxHalfCpltCallback:0000000000000000 $t
     /tmp/cceNxm2U.s:1248   .text.HAL_I2S_TxHalfCpltCallback:0000000000000000 HAL_I2S_TxHalfCpltCallback
     /tmp/cceNxm2U.s:1261   .text.I2S_DMATxHalfCplt:0000000000000000 $t
     /tmp/cceNxm2U.s:1289   .text.HAL_I2S_TxCpltCallback:0000000000000000 $t
     /tmp/cceNxm2U.s:1294   .text.HAL_I2S_TxCpltCallback:0000000000000000 HAL_I2S_TxCpltCallback
     /tmp/cceNxm2U.s:1307   .text.I2S_Transmit_IT:0000000000000000 $t
     /tmp/cceNxm2U.s:1311   .text.I2S_Transmit_IT:0000000000000000 I2S_Transmit_IT
     /tmp/cceNxm2U.s:1359   .text.I2S_DMATxCplt:0000000000000000 $t
     /tmp/cceNxm2U.s:1405   .text.HAL_I2S_RxHalfCpltCallback:0000000000000000 $t
     /tmp/cceNxm2U.s:1410   .text.HAL_I2S_RxHalfCpltCallback:0000000000000000 HAL_I2S_RxHalfCpltCallback
     /tmp/cceNxm2U.s:1423   .text.I2S_DMARxHalfCplt:0000000000000000 $t
     /tmp/cceNxm2U.s:1451   .text.HAL_I2S_RxCpltCallback:0000000000000000 $t
     /tmp/cceNxm2U.s:1456   .text.HAL_I2S_RxCpltCallback:0000000000000000 HAL_I2S_RxCpltCallback
     /tmp/cceNxm2U.s:1469   .text.I2S_Receive_IT:0000000000000000 $t
     /tmp/cceNxm2U.s:1473   .text.I2S_Receive_IT:0000000000000000 I2S_Receive_IT
     /tmp/cceNxm2U.s:1521   .text.I2S_DMARxCplt:0000000000000000 $t
     /tmp/cceNxm2U.s:1567   .text.HAL_I2S_ErrorCallback:0000000000000000 $t
     /tmp/cceNxm2U.s:1572   .text.HAL_I2S_ErrorCallback:0000000000000000 HAL_I2S_ErrorCallback
     /tmp/cceNxm2U.s:1585   .text.HAL_I2S_Init:0000000000000000 $t
     /tmp/cceNxm2U.s:1590   .text.HAL_I2S_Init:0000000000000000 HAL_I2S_Init
     /tmp/cceNxm2U.s:1893   .text.HAL_I2S_Init:0000000000000190 $d
ARM GAS  /tmp/cceNxm2U.s 			page 81


     /tmp/cceNxm2U.s:1906   .text.I2S_IRQHandler:0000000000000000 I2S_IRQHandler
     /tmp/cceNxm2U.s:1902   .text.I2S_IRQHandler:0000000000000000 $t
     /tmp/cceNxm2U.s:2046   .text.HAL_I2S_Transmit:0000000000000000 $t
     /tmp/cceNxm2U.s:2051   .text.HAL_I2S_Transmit:0000000000000000 HAL_I2S_Transmit
     /tmp/cceNxm2U.s:2268   .text.HAL_I2S_Receive:0000000000000000 $t
     /tmp/cceNxm2U.s:2273   .text.HAL_I2S_Receive:0000000000000000 HAL_I2S_Receive
     /tmp/cceNxm2U.s:2504   .text.I2S_DMAError:0000000000000000 $t
     /tmp/cceNxm2U.s:2548   .text.HAL_I2S_GetState:0000000000000000 $t
     /tmp/cceNxm2U.s:2553   .text.HAL_I2S_GetState:0000000000000000 HAL_I2S_GetState
     /tmp/cceNxm2U.s:2570   .text.HAL_I2S_GetError:0000000000000000 $t
     /tmp/cceNxm2U.s:2575   .text.HAL_I2S_GetError:0000000000000000 HAL_I2S_GetError
                     .debug_frame:0000000000000010 $d

UNDEFINED SYMBOLS
HAL_GetTick
HAL_DMA_Start_IT
HAL_DMA_Abort
HAL_RCCEx_GetPeriphCLKFreq
HAL_I2SEx_FullDuplex_IRQHandler
