ARM GAS  /tmp/ccPpxa3p.s 			page 1


   1              		.syntax unified
   2              		.cpu cortex-m4
   3              		.eabi_attribute 27, 1
   4              		.eabi_attribute 28, 1
   5              		.fpu fpv4-sp-d16
   6              		.eabi_attribute 20, 1
   7              		.eabi_attribute 21, 1
   8              		.eabi_attribute 23, 3
   9              		.eabi_attribute 24, 1
  10              		.eabi_attribute 25, 1
  11              		.eabi_attribute 26, 1
  12              		.eabi_attribute 30, 1
  13              		.eabi_attribute 34, 1
  14              		.eabi_attribute 18, 4
  15              		.thumb
  16              		.file	"stm32f4xx_hal_i2s_ex.c"
  17              		.text
  18              	.Ltext0:
  19              		.cfi_sections	.debug_frame
  20              		.section	.text.I2SEx_TxRxDMAError,"ax",%progbits
  21              		.align	2
  22              		.thumb
  23              		.thumb_func
  25              	I2SEx_TxRxDMAError:
  26              	.LFB131:
  27              		.file 1 "Drivers/STM32F4xx_HAL_Driver/Src/stm32f4xx_hal_i2s_ex.c"
   1:Drivers/STM32F4xx_HAL_Driver/Src/stm32f4xx_hal_i2s_ex.c **** /**
   2:Drivers/STM32F4xx_HAL_Driver/Src/stm32f4xx_hal_i2s_ex.c ****   ******************************************************************************
   3:Drivers/STM32F4xx_HAL_Driver/Src/stm32f4xx_hal_i2s_ex.c ****   * @file    stm32f4xx_hal_i2s_ex.c
   4:Drivers/STM32F4xx_HAL_Driver/Src/stm32f4xx_hal_i2s_ex.c ****   * @author  MCD Application Team
   5:Drivers/STM32F4xx_HAL_Driver/Src/stm32f4xx_hal_i2s_ex.c ****   * @brief   I2S HAL module driver.
   6:Drivers/STM32F4xx_HAL_Driver/Src/stm32f4xx_hal_i2s_ex.c ****   *          This file provides firmware functions to manage the following
   7:Drivers/STM32F4xx_HAL_Driver/Src/stm32f4xx_hal_i2s_ex.c ****   *          functionalities of I2S extension peripheral:
   8:Drivers/STM32F4xx_HAL_Driver/Src/stm32f4xx_hal_i2s_ex.c ****   *           + Extension features Functions
   9:Drivers/STM32F4xx_HAL_Driver/Src/stm32f4xx_hal_i2s_ex.c ****   *
  10:Drivers/STM32F4xx_HAL_Driver/Src/stm32f4xx_hal_i2s_ex.c ****   @verbatim
  11:Drivers/STM32F4xx_HAL_Driver/Src/stm32f4xx_hal_i2s_ex.c ****   ==============================================================================
  12:Drivers/STM32F4xx_HAL_Driver/Src/stm32f4xx_hal_i2s_ex.c ****                     ##### I2S Extension features #####
  13:Drivers/STM32F4xx_HAL_Driver/Src/stm32f4xx_hal_i2s_ex.c ****   ==============================================================================
  14:Drivers/STM32F4xx_HAL_Driver/Src/stm32f4xx_hal_i2s_ex.c ****   [..]
  15:Drivers/STM32F4xx_HAL_Driver/Src/stm32f4xx_hal_i2s_ex.c ****      (#) In I2S full duplex mode, each SPI peripheral is able to manage sending and receiving
  16:Drivers/STM32F4xx_HAL_Driver/Src/stm32f4xx_hal_i2s_ex.c ****          data simultaneously using two data lines. Each SPI peripheral has an extended block
  17:Drivers/STM32F4xx_HAL_Driver/Src/stm32f4xx_hal_i2s_ex.c ****          called I2Sxext (i.e I2S2ext for SPI2 and I2S3ext for SPI3).
  18:Drivers/STM32F4xx_HAL_Driver/Src/stm32f4xx_hal_i2s_ex.c ****      (#) The extension block is not a full SPI IP, it is used only as I2S slave to
  19:Drivers/STM32F4xx_HAL_Driver/Src/stm32f4xx_hal_i2s_ex.c ****          implement full duplex mode. The extension block uses the same clock sources
  20:Drivers/STM32F4xx_HAL_Driver/Src/stm32f4xx_hal_i2s_ex.c ****          as its master.
  21:Drivers/STM32F4xx_HAL_Driver/Src/stm32f4xx_hal_i2s_ex.c **** 
  22:Drivers/STM32F4xx_HAL_Driver/Src/stm32f4xx_hal_i2s_ex.c ****      (#) Both I2Sx and I2Sx_ext can be configured as transmitters or receivers.
  23:Drivers/STM32F4xx_HAL_Driver/Src/stm32f4xx_hal_i2s_ex.c **** 
  24:Drivers/STM32F4xx_HAL_Driver/Src/stm32f4xx_hal_i2s_ex.c ****      [..]
  25:Drivers/STM32F4xx_HAL_Driver/Src/stm32f4xx_hal_i2s_ex.c ****        (@) Only I2Sx can deliver SCK and WS to I2Sx_ext in full duplex mode, where
  26:Drivers/STM32F4xx_HAL_Driver/Src/stm32f4xx_hal_i2s_ex.c ****          I2Sx can be I2S2 or I2S3.
  27:Drivers/STM32F4xx_HAL_Driver/Src/stm32f4xx_hal_i2s_ex.c **** 
  28:Drivers/STM32F4xx_HAL_Driver/Src/stm32f4xx_hal_i2s_ex.c ****                   ##### How to use this driver #####
  29:Drivers/STM32F4xx_HAL_Driver/Src/stm32f4xx_hal_i2s_ex.c ****  ===============================================================================
  30:Drivers/STM32F4xx_HAL_Driver/Src/stm32f4xx_hal_i2s_ex.c ****  [..]
  31:Drivers/STM32F4xx_HAL_Driver/Src/stm32f4xx_hal_i2s_ex.c ****    Three operation modes are available within this driver :
ARM GAS  /tmp/ccPpxa3p.s 			page 2


  32:Drivers/STM32F4xx_HAL_Driver/Src/stm32f4xx_hal_i2s_ex.c **** 
  33:Drivers/STM32F4xx_HAL_Driver/Src/stm32f4xx_hal_i2s_ex.c ****    *** Polling mode IO operation ***
  34:Drivers/STM32F4xx_HAL_Driver/Src/stm32f4xx_hal_i2s_ex.c ****    =================================
  35:Drivers/STM32F4xx_HAL_Driver/Src/stm32f4xx_hal_i2s_ex.c ****    [..]
  36:Drivers/STM32F4xx_HAL_Driver/Src/stm32f4xx_hal_i2s_ex.c ****      (+) Send and receive in the same time an amount of data in blocking mode using HAL_I2SEx_Trans
  37:Drivers/STM32F4xx_HAL_Driver/Src/stm32f4xx_hal_i2s_ex.c **** 
  38:Drivers/STM32F4xx_HAL_Driver/Src/stm32f4xx_hal_i2s_ex.c ****    *** Interrupt mode IO operation ***
  39:Drivers/STM32F4xx_HAL_Driver/Src/stm32f4xx_hal_i2s_ex.c ****    ===================================
  40:Drivers/STM32F4xx_HAL_Driver/Src/stm32f4xx_hal_i2s_ex.c ****    [..]
  41:Drivers/STM32F4xx_HAL_Driver/Src/stm32f4xx_hal_i2s_ex.c ****      (+) Send and receive in the same time an amount of data in non blocking mode using HAL_I2SEx_T
  42:Drivers/STM32F4xx_HAL_Driver/Src/stm32f4xx_hal_i2s_ex.c ****      (+) At transmission/reception end of transfer HAL_I2SEx_TxRxCpltCallback is executed and user 
  43:Drivers/STM32F4xx_HAL_Driver/Src/stm32f4xx_hal_i2s_ex.c ****          add his own code by customization of function pointer HAL_I2SEx_TxRxCpltCallback
  44:Drivers/STM32F4xx_HAL_Driver/Src/stm32f4xx_hal_i2s_ex.c ****      (+) In case of transfer Error, HAL_I2S_ErrorCallback() function is executed and user can
  45:Drivers/STM32F4xx_HAL_Driver/Src/stm32f4xx_hal_i2s_ex.c ****          add his own code by customization of function pointer HAL_I2S_ErrorCallback
  46:Drivers/STM32F4xx_HAL_Driver/Src/stm32f4xx_hal_i2s_ex.c **** 
  47:Drivers/STM32F4xx_HAL_Driver/Src/stm32f4xx_hal_i2s_ex.c ****    *** DMA mode IO operation ***
  48:Drivers/STM32F4xx_HAL_Driver/Src/stm32f4xx_hal_i2s_ex.c ****    ==============================
  49:Drivers/STM32F4xx_HAL_Driver/Src/stm32f4xx_hal_i2s_ex.c ****    [..]
  50:Drivers/STM32F4xx_HAL_Driver/Src/stm32f4xx_hal_i2s_ex.c ****      (+) Send and receive an amount of data in non blocking mode (DMA) using HAL_I2SEx_TransmitRece
  51:Drivers/STM32F4xx_HAL_Driver/Src/stm32f4xx_hal_i2s_ex.c ****      (+) At transmission/reception end of transfer HAL_I2SEx_TxRxCpltCallback is executed and user 
  52:Drivers/STM32F4xx_HAL_Driver/Src/stm32f4xx_hal_i2s_ex.c ****          add his own code by customization of function pointer HAL_I2S_TxRxCpltCallback
  53:Drivers/STM32F4xx_HAL_Driver/Src/stm32f4xx_hal_i2s_ex.c ****      (+) In case of transfer Error, HAL_I2S_ErrorCallback() function is executed and user can
  54:Drivers/STM32F4xx_HAL_Driver/Src/stm32f4xx_hal_i2s_ex.c ****          add his own code by customization of function pointer HAL_I2S_ErrorCallback
  55:Drivers/STM32F4xx_HAL_Driver/Src/stm32f4xx_hal_i2s_ex.c ****   @endverbatim
  56:Drivers/STM32F4xx_HAL_Driver/Src/stm32f4xx_hal_i2s_ex.c **** 
  57:Drivers/STM32F4xx_HAL_Driver/Src/stm32f4xx_hal_i2s_ex.c ****  Additional Figure: The Extended block uses the same clock sources as its master.
  58:Drivers/STM32F4xx_HAL_Driver/Src/stm32f4xx_hal_i2s_ex.c **** 
  59:Drivers/STM32F4xx_HAL_Driver/Src/stm32f4xx_hal_i2s_ex.c ****                 +-----------------------+
  60:Drivers/STM32F4xx_HAL_Driver/Src/stm32f4xx_hal_i2s_ex.c ****     I2Sx_SCK    |                       |
  61:Drivers/STM32F4xx_HAL_Driver/Src/stm32f4xx_hal_i2s_ex.c ****  ----------+-->|          I2Sx         |------------------->I2Sx_SD(in/out)
  62:Drivers/STM32F4xx_HAL_Driver/Src/stm32f4xx_hal_i2s_ex.c ****          +--|-->|                       |
  63:Drivers/STM32F4xx_HAL_Driver/Src/stm32f4xx_hal_i2s_ex.c ****         |   |   +-----------------------+
  64:Drivers/STM32F4xx_HAL_Driver/Src/stm32f4xx_hal_i2s_ex.c ****         |   |
  65:Drivers/STM32F4xx_HAL_Driver/Src/stm32f4xx_hal_i2s_ex.c ****  I2S_WS |   |
  66:Drivers/STM32F4xx_HAL_Driver/Src/stm32f4xx_hal_i2s_ex.c ****  ------>|   |
  67:Drivers/STM32F4xx_HAL_Driver/Src/stm32f4xx_hal_i2s_ex.c ****         |   |   +-----------------------+
  68:Drivers/STM32F4xx_HAL_Driver/Src/stm32f4xx_hal_i2s_ex.c ****         |   +-->|                       |
  69:Drivers/STM32F4xx_HAL_Driver/Src/stm32f4xx_hal_i2s_ex.c ****         |       |       I2Sx_ext        |------------------->I2Sx_extSD(in/out)
  70:Drivers/STM32F4xx_HAL_Driver/Src/stm32f4xx_hal_i2s_ex.c ****          +----->|                       |
  71:Drivers/STM32F4xx_HAL_Driver/Src/stm32f4xx_hal_i2s_ex.c ****                 +-----------------------+
  72:Drivers/STM32F4xx_HAL_Driver/Src/stm32f4xx_hal_i2s_ex.c ****   ******************************************************************************
  73:Drivers/STM32F4xx_HAL_Driver/Src/stm32f4xx_hal_i2s_ex.c ****   * @attention
  74:Drivers/STM32F4xx_HAL_Driver/Src/stm32f4xx_hal_i2s_ex.c ****   *
  75:Drivers/STM32F4xx_HAL_Driver/Src/stm32f4xx_hal_i2s_ex.c ****   * <h2><center>&copy; COPYRIGHT(c) 2017 STMicroelectronics</center></h2>
  76:Drivers/STM32F4xx_HAL_Driver/Src/stm32f4xx_hal_i2s_ex.c ****   *
  77:Drivers/STM32F4xx_HAL_Driver/Src/stm32f4xx_hal_i2s_ex.c ****   * Redistribution and use in source and binary forms, with or without modification,
  78:Drivers/STM32F4xx_HAL_Driver/Src/stm32f4xx_hal_i2s_ex.c ****   * are permitted provided that the following conditions are met:
  79:Drivers/STM32F4xx_HAL_Driver/Src/stm32f4xx_hal_i2s_ex.c ****   *   1. Redistributions of source code must retain the above copyright notice,
  80:Drivers/STM32F4xx_HAL_Driver/Src/stm32f4xx_hal_i2s_ex.c ****   *      this list of conditions and the following disclaimer.
  81:Drivers/STM32F4xx_HAL_Driver/Src/stm32f4xx_hal_i2s_ex.c ****   *   2. Redistributions in binary form must reproduce the above copyright notice,
  82:Drivers/STM32F4xx_HAL_Driver/Src/stm32f4xx_hal_i2s_ex.c ****   *      this list of conditions and the following disclaimer in the documentation
  83:Drivers/STM32F4xx_HAL_Driver/Src/stm32f4xx_hal_i2s_ex.c ****   *      and/or other materials provided with the distribution.
  84:Drivers/STM32F4xx_HAL_Driver/Src/stm32f4xx_hal_i2s_ex.c ****   *   3. Neither the name of STMicroelectronics nor the names of its contributors
  85:Drivers/STM32F4xx_HAL_Driver/Src/stm32f4xx_hal_i2s_ex.c ****   *      may be used to endorse or promote products derived from this software
  86:Drivers/STM32F4xx_HAL_Driver/Src/stm32f4xx_hal_i2s_ex.c ****   *      without specific prior written permission.
  87:Drivers/STM32F4xx_HAL_Driver/Src/stm32f4xx_hal_i2s_ex.c ****   *
  88:Drivers/STM32F4xx_HAL_Driver/Src/stm32f4xx_hal_i2s_ex.c ****   * THIS SOFTWARE IS PROVIDED BY THE COPYRIGHT HOLDERS AND CONTRIBUTORS "AS IS"
ARM GAS  /tmp/ccPpxa3p.s 			page 3


  89:Drivers/STM32F4xx_HAL_Driver/Src/stm32f4xx_hal_i2s_ex.c ****   * AND ANY EXPRESS OR IMPLIED WARRANTIES, INCLUDING, BUT NOT LIMITED TO, THE
  90:Drivers/STM32F4xx_HAL_Driver/Src/stm32f4xx_hal_i2s_ex.c ****   * IMPLIED WARRANTIES OF MERCHANTABILITY AND FITNESS FOR A PARTICULAR PURPOSE ARE
  91:Drivers/STM32F4xx_HAL_Driver/Src/stm32f4xx_hal_i2s_ex.c ****   * DISCLAIMED. IN NO EVENT SHALL THE COPYRIGHT HOLDER OR CONTRIBUTORS BE LIABLE
  92:Drivers/STM32F4xx_HAL_Driver/Src/stm32f4xx_hal_i2s_ex.c ****   * FOR ANY DIRECT, INDIRECT, INCIDENTAL, SPECIAL, EXEMPLARY, OR CONSEQUENTIAL
  93:Drivers/STM32F4xx_HAL_Driver/Src/stm32f4xx_hal_i2s_ex.c ****   * DAMAGES (INCLUDING, BUT NOT LIMITED TO, PROCUREMENT OF SUBSTITUTE GOODS OR
  94:Drivers/STM32F4xx_HAL_Driver/Src/stm32f4xx_hal_i2s_ex.c ****   * SERVICES; LOSS OF USE, DATA, OR PROFITS; OR BUSINESS INTERRUPTION) HOWEVER
  95:Drivers/STM32F4xx_HAL_Driver/Src/stm32f4xx_hal_i2s_ex.c ****   * CAUSED AND ON ANY THEORY OF LIABILITY, WHETHER IN CONTRACT, STRICT LIABILITY,
  96:Drivers/STM32F4xx_HAL_Driver/Src/stm32f4xx_hal_i2s_ex.c ****   * OR TORT (INCLUDING NEGLIGENCE OR OTHERWISE) ARISING IN ANY WAY OUT OF THE USE
  97:Drivers/STM32F4xx_HAL_Driver/Src/stm32f4xx_hal_i2s_ex.c ****   * OF THIS SOFTWARE, EVEN IF ADVISED OF THE POSSIBILITY OF SUCH DAMAGE.
  98:Drivers/STM32F4xx_HAL_Driver/Src/stm32f4xx_hal_i2s_ex.c ****   *
  99:Drivers/STM32F4xx_HAL_Driver/Src/stm32f4xx_hal_i2s_ex.c ****   ******************************************************************************
 100:Drivers/STM32F4xx_HAL_Driver/Src/stm32f4xx_hal_i2s_ex.c ****   */
 101:Drivers/STM32F4xx_HAL_Driver/Src/stm32f4xx_hal_i2s_ex.c **** 
 102:Drivers/STM32F4xx_HAL_Driver/Src/stm32f4xx_hal_i2s_ex.c **** /* Includes ------------------------------------------------------------------*/
 103:Drivers/STM32F4xx_HAL_Driver/Src/stm32f4xx_hal_i2s_ex.c **** #include "stm32f4xx_hal.h"
 104:Drivers/STM32F4xx_HAL_Driver/Src/stm32f4xx_hal_i2s_ex.c **** 
 105:Drivers/STM32F4xx_HAL_Driver/Src/stm32f4xx_hal_i2s_ex.c **** /** @addtogroup STM32F4xx_HAL_Driver
 106:Drivers/STM32F4xx_HAL_Driver/Src/stm32f4xx_hal_i2s_ex.c ****   * @{
 107:Drivers/STM32F4xx_HAL_Driver/Src/stm32f4xx_hal_i2s_ex.c ****   */
 108:Drivers/STM32F4xx_HAL_Driver/Src/stm32f4xx_hal_i2s_ex.c **** 
 109:Drivers/STM32F4xx_HAL_Driver/Src/stm32f4xx_hal_i2s_ex.c **** #ifdef HAL_I2S_MODULE_ENABLED
 110:Drivers/STM32F4xx_HAL_Driver/Src/stm32f4xx_hal_i2s_ex.c **** 
 111:Drivers/STM32F4xx_HAL_Driver/Src/stm32f4xx_hal_i2s_ex.c **** /** @defgroup I2SEx I2SEx
 112:Drivers/STM32F4xx_HAL_Driver/Src/stm32f4xx_hal_i2s_ex.c ****   * @brief I2S Extended HAL module driver
 113:Drivers/STM32F4xx_HAL_Driver/Src/stm32f4xx_hal_i2s_ex.c ****   * @{
 114:Drivers/STM32F4xx_HAL_Driver/Src/stm32f4xx_hal_i2s_ex.c ****   */
 115:Drivers/STM32F4xx_HAL_Driver/Src/stm32f4xx_hal_i2s_ex.c **** 
 116:Drivers/STM32F4xx_HAL_Driver/Src/stm32f4xx_hal_i2s_ex.c **** #if defined (SPI_I2S_FULLDUPLEX_SUPPORT)
 117:Drivers/STM32F4xx_HAL_Driver/Src/stm32f4xx_hal_i2s_ex.c **** 
 118:Drivers/STM32F4xx_HAL_Driver/Src/stm32f4xx_hal_i2s_ex.c **** /* Private typedef -----------------------------------------------------------*/
 119:Drivers/STM32F4xx_HAL_Driver/Src/stm32f4xx_hal_i2s_ex.c **** /** @defgroup I2SEx_Private_Typedef I2S Extended Private Typedef
 120:Drivers/STM32F4xx_HAL_Driver/Src/stm32f4xx_hal_i2s_ex.c ****   * @{
 121:Drivers/STM32F4xx_HAL_Driver/Src/stm32f4xx_hal_i2s_ex.c ****   */
 122:Drivers/STM32F4xx_HAL_Driver/Src/stm32f4xx_hal_i2s_ex.c **** typedef enum
 123:Drivers/STM32F4xx_HAL_Driver/Src/stm32f4xx_hal_i2s_ex.c **** {
 124:Drivers/STM32F4xx_HAL_Driver/Src/stm32f4xx_hal_i2s_ex.c ****   I2S_USE_I2S      = 0x00U,   /*!< I2Sx should be used      */
 125:Drivers/STM32F4xx_HAL_Driver/Src/stm32f4xx_hal_i2s_ex.c ****   I2S_USE_I2SEXT   = 0x01U,   /*!< I2Sx_ext should be used  */
 126:Drivers/STM32F4xx_HAL_Driver/Src/stm32f4xx_hal_i2s_ex.c **** }I2S_UseTypeDef;
 127:Drivers/STM32F4xx_HAL_Driver/Src/stm32f4xx_hal_i2s_ex.c **** /**
 128:Drivers/STM32F4xx_HAL_Driver/Src/stm32f4xx_hal_i2s_ex.c ****   * @}
 129:Drivers/STM32F4xx_HAL_Driver/Src/stm32f4xx_hal_i2s_ex.c ****   */
 130:Drivers/STM32F4xx_HAL_Driver/Src/stm32f4xx_hal_i2s_ex.c **** /* Private define ------------------------------------------------------------*/
 131:Drivers/STM32F4xx_HAL_Driver/Src/stm32f4xx_hal_i2s_ex.c **** /* Private macro -------------------------------------------------------------*/
 132:Drivers/STM32F4xx_HAL_Driver/Src/stm32f4xx_hal_i2s_ex.c **** /* Private variables ---------------------------------------------------------*/
 133:Drivers/STM32F4xx_HAL_Driver/Src/stm32f4xx_hal_i2s_ex.c **** /* Private function prototypes -----------------------------------------------*/
 134:Drivers/STM32F4xx_HAL_Driver/Src/stm32f4xx_hal_i2s_ex.c **** /** @defgroup I2SEx_Private_Functions I2S Extended Private Functions
 135:Drivers/STM32F4xx_HAL_Driver/Src/stm32f4xx_hal_i2s_ex.c ****   * @{
 136:Drivers/STM32F4xx_HAL_Driver/Src/stm32f4xx_hal_i2s_ex.c ****   */
 137:Drivers/STM32F4xx_HAL_Driver/Src/stm32f4xx_hal_i2s_ex.c **** static void I2SEx_TxRxDMAHalfCplt(DMA_HandleTypeDef *hdma);
 138:Drivers/STM32F4xx_HAL_Driver/Src/stm32f4xx_hal_i2s_ex.c **** static void I2SEx_TxRxDMACplt(DMA_HandleTypeDef *hdma);
 139:Drivers/STM32F4xx_HAL_Driver/Src/stm32f4xx_hal_i2s_ex.c **** static void I2SEx_TxRxDMAError(DMA_HandleTypeDef *hdma);
 140:Drivers/STM32F4xx_HAL_Driver/Src/stm32f4xx_hal_i2s_ex.c **** static void I2SEx_FullDuplexTx_IT(I2S_HandleTypeDef *hi2s, I2S_UseTypeDef i2sUsed);
 141:Drivers/STM32F4xx_HAL_Driver/Src/stm32f4xx_hal_i2s_ex.c **** static void I2SEx_FullDuplexRx_IT(I2S_HandleTypeDef *hi2s, I2S_UseTypeDef i2sUsed);
 142:Drivers/STM32F4xx_HAL_Driver/Src/stm32f4xx_hal_i2s_ex.c **** static HAL_StatusTypeDef I2SEx_FullDuplexWaitFlagStateUntilTimeout(I2S_HandleTypeDef *hi2s, uint32_
 143:Drivers/STM32F4xx_HAL_Driver/Src/stm32f4xx_hal_i2s_ex.c ****                                                                    uint32_t State, uint32_t Timeout
 144:Drivers/STM32F4xx_HAL_Driver/Src/stm32f4xx_hal_i2s_ex.c **** /**
 145:Drivers/STM32F4xx_HAL_Driver/Src/stm32f4xx_hal_i2s_ex.c ****   * @}
ARM GAS  /tmp/ccPpxa3p.s 			page 4


 146:Drivers/STM32F4xx_HAL_Driver/Src/stm32f4xx_hal_i2s_ex.c ****   */
 147:Drivers/STM32F4xx_HAL_Driver/Src/stm32f4xx_hal_i2s_ex.c **** 
 148:Drivers/STM32F4xx_HAL_Driver/Src/stm32f4xx_hal_i2s_ex.c **** /**
 149:Drivers/STM32F4xx_HAL_Driver/Src/stm32f4xx_hal_i2s_ex.c ****   * @}
 150:Drivers/STM32F4xx_HAL_Driver/Src/stm32f4xx_hal_i2s_ex.c ****   */
 151:Drivers/STM32F4xx_HAL_Driver/Src/stm32f4xx_hal_i2s_ex.c **** 
 152:Drivers/STM32F4xx_HAL_Driver/Src/stm32f4xx_hal_i2s_ex.c **** /* Private functions ---------------------------------------------------------*/
 153:Drivers/STM32F4xx_HAL_Driver/Src/stm32f4xx_hal_i2s_ex.c **** /* Exported functions --------------------------------------------------------*/
 154:Drivers/STM32F4xx_HAL_Driver/Src/stm32f4xx_hal_i2s_ex.c **** 
 155:Drivers/STM32F4xx_HAL_Driver/Src/stm32f4xx_hal_i2s_ex.c **** /** @addtogroup I2SEx I2SEx
 156:Drivers/STM32F4xx_HAL_Driver/Src/stm32f4xx_hal_i2s_ex.c ****   * @{
 157:Drivers/STM32F4xx_HAL_Driver/Src/stm32f4xx_hal_i2s_ex.c ****   */
 158:Drivers/STM32F4xx_HAL_Driver/Src/stm32f4xx_hal_i2s_ex.c **** 
 159:Drivers/STM32F4xx_HAL_Driver/Src/stm32f4xx_hal_i2s_ex.c **** /** @addtogroup I2SEx_Exported_Functions I2S Extended Exported Functions
 160:Drivers/STM32F4xx_HAL_Driver/Src/stm32f4xx_hal_i2s_ex.c ****   * @{
 161:Drivers/STM32F4xx_HAL_Driver/Src/stm32f4xx_hal_i2s_ex.c ****   */
 162:Drivers/STM32F4xx_HAL_Driver/Src/stm32f4xx_hal_i2s_ex.c **** 
 163:Drivers/STM32F4xx_HAL_Driver/Src/stm32f4xx_hal_i2s_ex.c **** /** @defgroup I2SEx_Exported_Functions_Group1 I2S Extended IO operation functions
 164:Drivers/STM32F4xx_HAL_Driver/Src/stm32f4xx_hal_i2s_ex.c ****   *  @brief   I2SEx IO operation functions
 165:Drivers/STM32F4xx_HAL_Driver/Src/stm32f4xx_hal_i2s_ex.c ****   *
 166:Drivers/STM32F4xx_HAL_Driver/Src/stm32f4xx_hal_i2s_ex.c **** @verbatim
 167:Drivers/STM32F4xx_HAL_Driver/Src/stm32f4xx_hal_i2s_ex.c ****  ===============================================================================
 168:Drivers/STM32F4xx_HAL_Driver/Src/stm32f4xx_hal_i2s_ex.c ****                        ##### IO operation functions#####
 169:Drivers/STM32F4xx_HAL_Driver/Src/stm32f4xx_hal_i2s_ex.c ****  ===============================================================================
 170:Drivers/STM32F4xx_HAL_Driver/Src/stm32f4xx_hal_i2s_ex.c ****     [..]
 171:Drivers/STM32F4xx_HAL_Driver/Src/stm32f4xx_hal_i2s_ex.c ****     This subsection provides a set of functions allowing to manage the I2S data
 172:Drivers/STM32F4xx_HAL_Driver/Src/stm32f4xx_hal_i2s_ex.c ****     transfers.
 173:Drivers/STM32F4xx_HAL_Driver/Src/stm32f4xx_hal_i2s_ex.c **** 
 174:Drivers/STM32F4xx_HAL_Driver/Src/stm32f4xx_hal_i2s_ex.c ****     (#) There are two modes of transfer:
 175:Drivers/STM32F4xx_HAL_Driver/Src/stm32f4xx_hal_i2s_ex.c ****        (++) Blocking mode : The communication is performed in the polling mode.
 176:Drivers/STM32F4xx_HAL_Driver/Src/stm32f4xx_hal_i2s_ex.c ****             The status of all data processing is returned by the same function
 177:Drivers/STM32F4xx_HAL_Driver/Src/stm32f4xx_hal_i2s_ex.c ****             after finishing transfer.
 178:Drivers/STM32F4xx_HAL_Driver/Src/stm32f4xx_hal_i2s_ex.c ****        (++) No-Blocking mode : The communication is performed using Interrupts
 179:Drivers/STM32F4xx_HAL_Driver/Src/stm32f4xx_hal_i2s_ex.c ****             or DMA. These functions return the status of the transfer startup.
 180:Drivers/STM32F4xx_HAL_Driver/Src/stm32f4xx_hal_i2s_ex.c ****             The end of the data processing will be indicated through the
 181:Drivers/STM32F4xx_HAL_Driver/Src/stm32f4xx_hal_i2s_ex.c ****             dedicated I2S IRQ when using Interrupt mode or the DMA IRQ when
 182:Drivers/STM32F4xx_HAL_Driver/Src/stm32f4xx_hal_i2s_ex.c ****             using DMA mode.
 183:Drivers/STM32F4xx_HAL_Driver/Src/stm32f4xx_hal_i2s_ex.c **** 
 184:Drivers/STM32F4xx_HAL_Driver/Src/stm32f4xx_hal_i2s_ex.c ****     (#) Blocking mode functions are :
 185:Drivers/STM32F4xx_HAL_Driver/Src/stm32f4xx_hal_i2s_ex.c ****         (++) HAL_I2SEx_TransmitReceive()
 186:Drivers/STM32F4xx_HAL_Driver/Src/stm32f4xx_hal_i2s_ex.c **** 
 187:Drivers/STM32F4xx_HAL_Driver/Src/stm32f4xx_hal_i2s_ex.c ****     (#) No-Blocking mode functions with Interrupt are :
 188:Drivers/STM32F4xx_HAL_Driver/Src/stm32f4xx_hal_i2s_ex.c ****         (++) HAL_I2SEx_TransmitReceive_IT()
 189:Drivers/STM32F4xx_HAL_Driver/Src/stm32f4xx_hal_i2s_ex.c ****         (++) HAL_I2SEx_FullDuplex_IRQHandler()
 190:Drivers/STM32F4xx_HAL_Driver/Src/stm32f4xx_hal_i2s_ex.c **** 
 191:Drivers/STM32F4xx_HAL_Driver/Src/stm32f4xx_hal_i2s_ex.c ****     (#) No-Blocking mode functions with DMA are :
 192:Drivers/STM32F4xx_HAL_Driver/Src/stm32f4xx_hal_i2s_ex.c ****         (++) HAL_I2SEx_TransmitReceive_DMA()
 193:Drivers/STM32F4xx_HAL_Driver/Src/stm32f4xx_hal_i2s_ex.c **** 
 194:Drivers/STM32F4xx_HAL_Driver/Src/stm32f4xx_hal_i2s_ex.c ****     (#) A set of Transfer Complete Callback are provided in non Blocking mode:
 195:Drivers/STM32F4xx_HAL_Driver/Src/stm32f4xx_hal_i2s_ex.c ****         (++) HAL_I2SEx_TxRxCpltCallback()
 196:Drivers/STM32F4xx_HAL_Driver/Src/stm32f4xx_hal_i2s_ex.c **** @endverbatim
 197:Drivers/STM32F4xx_HAL_Driver/Src/stm32f4xx_hal_i2s_ex.c ****   * @{
 198:Drivers/STM32F4xx_HAL_Driver/Src/stm32f4xx_hal_i2s_ex.c ****   */
 199:Drivers/STM32F4xx_HAL_Driver/Src/stm32f4xx_hal_i2s_ex.c **** /**
 200:Drivers/STM32F4xx_HAL_Driver/Src/stm32f4xx_hal_i2s_ex.c ****   * @brief Full-Duplex Transmit/Receive data in blocking mode.
 201:Drivers/STM32F4xx_HAL_Driver/Src/stm32f4xx_hal_i2s_ex.c ****   * @param  hi2s pointer to a I2S_HandleTypeDef structure that contains
 202:Drivers/STM32F4xx_HAL_Driver/Src/stm32f4xx_hal_i2s_ex.c ****   *         the configuration information for I2S module
ARM GAS  /tmp/ccPpxa3p.s 			page 5


 203:Drivers/STM32F4xx_HAL_Driver/Src/stm32f4xx_hal_i2s_ex.c ****   * @param pTxData a 16-bit pointer to the Transmit data buffer.
 204:Drivers/STM32F4xx_HAL_Driver/Src/stm32f4xx_hal_i2s_ex.c ****   * @param pRxData a 16-bit pointer to the Receive data buffer.
 205:Drivers/STM32F4xx_HAL_Driver/Src/stm32f4xx_hal_i2s_ex.c ****   * @param Size number of data sample to be sent:
 206:Drivers/STM32F4xx_HAL_Driver/Src/stm32f4xx_hal_i2s_ex.c ****   * @note When a 16-bit data frame or a 16-bit data frame extended is selected during the I2S
 207:Drivers/STM32F4xx_HAL_Driver/Src/stm32f4xx_hal_i2s_ex.c ****   *       configuration phase, the Size parameter means the number of 16-bit data length
 208:Drivers/STM32F4xx_HAL_Driver/Src/stm32f4xx_hal_i2s_ex.c ****   *       in the transaction and when a 24-bit data frame or a 32-bit data frame is selected
 209:Drivers/STM32F4xx_HAL_Driver/Src/stm32f4xx_hal_i2s_ex.c ****   *       the Size parameter means the number of 16-bit data length.
 210:Drivers/STM32F4xx_HAL_Driver/Src/stm32f4xx_hal_i2s_ex.c ****   * @param Timeout Timeout duration
 211:Drivers/STM32F4xx_HAL_Driver/Src/stm32f4xx_hal_i2s_ex.c ****   * @note The I2S is kept enabled at the end of transaction to avoid the clock de-synchronization
 212:Drivers/STM32F4xx_HAL_Driver/Src/stm32f4xx_hal_i2s_ex.c ****   *       between Master and Slave(example: audio streaming).
 213:Drivers/STM32F4xx_HAL_Driver/Src/stm32f4xx_hal_i2s_ex.c ****   * @retval HAL status
 214:Drivers/STM32F4xx_HAL_Driver/Src/stm32f4xx_hal_i2s_ex.c ****   */
 215:Drivers/STM32F4xx_HAL_Driver/Src/stm32f4xx_hal_i2s_ex.c **** HAL_StatusTypeDef HAL_I2SEx_TransmitReceive(I2S_HandleTypeDef *hi2s, uint16_t *pTxData, uint16_t *p
 216:Drivers/STM32F4xx_HAL_Driver/Src/stm32f4xx_hal_i2s_ex.c ****                                             uint16_t Size, uint32_t Timeout)
 217:Drivers/STM32F4xx_HAL_Driver/Src/stm32f4xx_hal_i2s_ex.c **** {
 218:Drivers/STM32F4xx_HAL_Driver/Src/stm32f4xx_hal_i2s_ex.c ****   uint32_t tmp1 = 0U;
 219:Drivers/STM32F4xx_HAL_Driver/Src/stm32f4xx_hal_i2s_ex.c **** 
 220:Drivers/STM32F4xx_HAL_Driver/Src/stm32f4xx_hal_i2s_ex.c ****   if((pTxData == NULL ) || (pRxData == NULL ) || (Size == 0U))
 221:Drivers/STM32F4xx_HAL_Driver/Src/stm32f4xx_hal_i2s_ex.c ****   {
 222:Drivers/STM32F4xx_HAL_Driver/Src/stm32f4xx_hal_i2s_ex.c ****     return  HAL_ERROR;
 223:Drivers/STM32F4xx_HAL_Driver/Src/stm32f4xx_hal_i2s_ex.c ****   }
 224:Drivers/STM32F4xx_HAL_Driver/Src/stm32f4xx_hal_i2s_ex.c **** 
 225:Drivers/STM32F4xx_HAL_Driver/Src/stm32f4xx_hal_i2s_ex.c ****   /* Check the I2S State */
 226:Drivers/STM32F4xx_HAL_Driver/Src/stm32f4xx_hal_i2s_ex.c ****   if(hi2s->State == HAL_I2S_STATE_READY)
 227:Drivers/STM32F4xx_HAL_Driver/Src/stm32f4xx_hal_i2s_ex.c ****   {
 228:Drivers/STM32F4xx_HAL_Driver/Src/stm32f4xx_hal_i2s_ex.c ****     tmp1 = hi2s->Instance->I2SCFGR & (SPI_I2SCFGR_DATLEN | SPI_I2SCFGR_CHLEN);
 229:Drivers/STM32F4xx_HAL_Driver/Src/stm32f4xx_hal_i2s_ex.c ****     /* Check the Data format: When a 16-bit data frame or a 16-bit data frame extended
 230:Drivers/STM32F4xx_HAL_Driver/Src/stm32f4xx_hal_i2s_ex.c ****        is selected during the I2S configuration phase, the Size parameter means the number
 231:Drivers/STM32F4xx_HAL_Driver/Src/stm32f4xx_hal_i2s_ex.c ****        of 16-bit data length in the transaction and when a 24-bit data frame or a 32-bit data
 232:Drivers/STM32F4xx_HAL_Driver/Src/stm32f4xx_hal_i2s_ex.c ****        frame is selected the Size parameter means the number of 16-bit data length. */
 233:Drivers/STM32F4xx_HAL_Driver/Src/stm32f4xx_hal_i2s_ex.c ****     if((tmp1 == I2S_DATAFORMAT_24B) || (tmp1 == I2S_DATAFORMAT_32B))
 234:Drivers/STM32F4xx_HAL_Driver/Src/stm32f4xx_hal_i2s_ex.c ****     {
 235:Drivers/STM32F4xx_HAL_Driver/Src/stm32f4xx_hal_i2s_ex.c ****       hi2s->TxXferSize  = (Size << 1U);
 236:Drivers/STM32F4xx_HAL_Driver/Src/stm32f4xx_hal_i2s_ex.c ****       hi2s->TxXferCount = (Size << 1U);
 237:Drivers/STM32F4xx_HAL_Driver/Src/stm32f4xx_hal_i2s_ex.c ****       hi2s->RxXferSize  = (Size << 1U);
 238:Drivers/STM32F4xx_HAL_Driver/Src/stm32f4xx_hal_i2s_ex.c ****       hi2s->RxXferCount = (Size << 1U);
 239:Drivers/STM32F4xx_HAL_Driver/Src/stm32f4xx_hal_i2s_ex.c ****     }
 240:Drivers/STM32F4xx_HAL_Driver/Src/stm32f4xx_hal_i2s_ex.c ****     else
 241:Drivers/STM32F4xx_HAL_Driver/Src/stm32f4xx_hal_i2s_ex.c ****     {
 242:Drivers/STM32F4xx_HAL_Driver/Src/stm32f4xx_hal_i2s_ex.c ****       hi2s->TxXferSize  = Size;
 243:Drivers/STM32F4xx_HAL_Driver/Src/stm32f4xx_hal_i2s_ex.c ****       hi2s->TxXferCount = Size;
 244:Drivers/STM32F4xx_HAL_Driver/Src/stm32f4xx_hal_i2s_ex.c ****       hi2s->RxXferSize  = Size;
 245:Drivers/STM32F4xx_HAL_Driver/Src/stm32f4xx_hal_i2s_ex.c ****       hi2s->RxXferCount = Size;
 246:Drivers/STM32F4xx_HAL_Driver/Src/stm32f4xx_hal_i2s_ex.c ****     }
 247:Drivers/STM32F4xx_HAL_Driver/Src/stm32f4xx_hal_i2s_ex.c **** 
 248:Drivers/STM32F4xx_HAL_Driver/Src/stm32f4xx_hal_i2s_ex.c ****     /* Process Locked */
 249:Drivers/STM32F4xx_HAL_Driver/Src/stm32f4xx_hal_i2s_ex.c ****     __HAL_LOCK(hi2s);
 250:Drivers/STM32F4xx_HAL_Driver/Src/stm32f4xx_hal_i2s_ex.c **** 
 251:Drivers/STM32F4xx_HAL_Driver/Src/stm32f4xx_hal_i2s_ex.c ****     hi2s->ErrorCode = HAL_I2S_ERROR_NONE;
 252:Drivers/STM32F4xx_HAL_Driver/Src/stm32f4xx_hal_i2s_ex.c **** 
 253:Drivers/STM32F4xx_HAL_Driver/Src/stm32f4xx_hal_i2s_ex.c ****     /* Set the I2S State busy TX/RX */
 254:Drivers/STM32F4xx_HAL_Driver/Src/stm32f4xx_hal_i2s_ex.c ****     hi2s->State = HAL_I2S_STATE_BUSY_TX_RX;
 255:Drivers/STM32F4xx_HAL_Driver/Src/stm32f4xx_hal_i2s_ex.c **** 
 256:Drivers/STM32F4xx_HAL_Driver/Src/stm32f4xx_hal_i2s_ex.c ****     tmp1 = hi2s->Instance->I2SCFGR & SPI_I2SCFGR_I2SCFG;
 257:Drivers/STM32F4xx_HAL_Driver/Src/stm32f4xx_hal_i2s_ex.c ****     /* Check if the I2S_MODE_MASTER_TX or I2S_MODE_SLAVE_TX Mode is selected */
 258:Drivers/STM32F4xx_HAL_Driver/Src/stm32f4xx_hal_i2s_ex.c ****     if((tmp1 == I2S_MODE_MASTER_TX) || (tmp1 == I2S_MODE_SLAVE_TX))
 259:Drivers/STM32F4xx_HAL_Driver/Src/stm32f4xx_hal_i2s_ex.c ****     {
ARM GAS  /tmp/ccPpxa3p.s 			page 6


 260:Drivers/STM32F4xx_HAL_Driver/Src/stm32f4xx_hal_i2s_ex.c ****       /* Prepare the First Data before enabling the I2S */
 261:Drivers/STM32F4xx_HAL_Driver/Src/stm32f4xx_hal_i2s_ex.c ****       hi2s->Instance->DR = (*pTxData++);
 262:Drivers/STM32F4xx_HAL_Driver/Src/stm32f4xx_hal_i2s_ex.c ****       hi2s->TxXferCount--;
 263:Drivers/STM32F4xx_HAL_Driver/Src/stm32f4xx_hal_i2s_ex.c **** 
 264:Drivers/STM32F4xx_HAL_Driver/Src/stm32f4xx_hal_i2s_ex.c ****       /* Enable I2Sext(receiver) before enabling I2Sx peripheral */
 265:Drivers/STM32F4xx_HAL_Driver/Src/stm32f4xx_hal_i2s_ex.c ****       __HAL_I2SEXT_ENABLE(hi2s);
 266:Drivers/STM32F4xx_HAL_Driver/Src/stm32f4xx_hal_i2s_ex.c **** 
 267:Drivers/STM32F4xx_HAL_Driver/Src/stm32f4xx_hal_i2s_ex.c ****       /* Enable I2Sx peripheral */
 268:Drivers/STM32F4xx_HAL_Driver/Src/stm32f4xx_hal_i2s_ex.c ****       __HAL_I2S_ENABLE(hi2s);
 269:Drivers/STM32F4xx_HAL_Driver/Src/stm32f4xx_hal_i2s_ex.c **** 
 270:Drivers/STM32F4xx_HAL_Driver/Src/stm32f4xx_hal_i2s_ex.c ****       /* Check if Master Receiver mode is selected */
 271:Drivers/STM32F4xx_HAL_Driver/Src/stm32f4xx_hal_i2s_ex.c ****       if((hi2s->Instance->I2SCFGR & SPI_I2SCFGR_I2SCFG) == I2S_MODE_MASTER_TX)
 272:Drivers/STM32F4xx_HAL_Driver/Src/stm32f4xx_hal_i2s_ex.c ****       {
 273:Drivers/STM32F4xx_HAL_Driver/Src/stm32f4xx_hal_i2s_ex.c ****         /* Clear the Overrun Flag by a read operation on the SPI_DR register followed by a read
 274:Drivers/STM32F4xx_HAL_Driver/Src/stm32f4xx_hal_i2s_ex.c ****         access to the SPI_SR register. */
 275:Drivers/STM32F4xx_HAL_Driver/Src/stm32f4xx_hal_i2s_ex.c ****         __HAL_I2SEXT_CLEAR_OVRFLAG(hi2s);
 276:Drivers/STM32F4xx_HAL_Driver/Src/stm32f4xx_hal_i2s_ex.c ****       }
 277:Drivers/STM32F4xx_HAL_Driver/Src/stm32f4xx_hal_i2s_ex.c **** 
 278:Drivers/STM32F4xx_HAL_Driver/Src/stm32f4xx_hal_i2s_ex.c ****       while((hi2s->RxXferCount > 0U) || (hi2s->TxXferCount > 0U))
 279:Drivers/STM32F4xx_HAL_Driver/Src/stm32f4xx_hal_i2s_ex.c ****       {
 280:Drivers/STM32F4xx_HAL_Driver/Src/stm32f4xx_hal_i2s_ex.c ****         if(hi2s->TxXferCount > 0U)
 281:Drivers/STM32F4xx_HAL_Driver/Src/stm32f4xx_hal_i2s_ex.c ****         {
 282:Drivers/STM32F4xx_HAL_Driver/Src/stm32f4xx_hal_i2s_ex.c ****           /* Wait until TXE flag is set */
 283:Drivers/STM32F4xx_HAL_Driver/Src/stm32f4xx_hal_i2s_ex.c ****           if (I2SEx_FullDuplexWaitFlagStateUntilTimeout(hi2s, I2S_FLAG_TXE, SET, Timeout, I2S_USE_I
 284:Drivers/STM32F4xx_HAL_Driver/Src/stm32f4xx_hal_i2s_ex.c ****           {
 285:Drivers/STM32F4xx_HAL_Driver/Src/stm32f4xx_hal_i2s_ex.c ****             /* Set the error code and execute error callback*/
 286:Drivers/STM32F4xx_HAL_Driver/Src/stm32f4xx_hal_i2s_ex.c ****             SET_BIT(hi2s->ErrorCode, HAL_I2S_ERROR_TIMEOUT);
 287:Drivers/STM32F4xx_HAL_Driver/Src/stm32f4xx_hal_i2s_ex.c ****             HAL_I2S_ErrorCallback(hi2s);
 288:Drivers/STM32F4xx_HAL_Driver/Src/stm32f4xx_hal_i2s_ex.c ****             return HAL_TIMEOUT;
 289:Drivers/STM32F4xx_HAL_Driver/Src/stm32f4xx_hal_i2s_ex.c ****           }
 290:Drivers/STM32F4xx_HAL_Driver/Src/stm32f4xx_hal_i2s_ex.c ****           /* Write Data on DR register */
 291:Drivers/STM32F4xx_HAL_Driver/Src/stm32f4xx_hal_i2s_ex.c ****           hi2s->Instance->DR = (*pTxData++);
 292:Drivers/STM32F4xx_HAL_Driver/Src/stm32f4xx_hal_i2s_ex.c ****           hi2s->TxXferCount--;
 293:Drivers/STM32F4xx_HAL_Driver/Src/stm32f4xx_hal_i2s_ex.c **** 
 294:Drivers/STM32F4xx_HAL_Driver/Src/stm32f4xx_hal_i2s_ex.c ****           /* Check if an underrun occurs */
 295:Drivers/STM32F4xx_HAL_Driver/Src/stm32f4xx_hal_i2s_ex.c ****           if((__HAL_I2S_GET_FLAG(hi2s, I2S_FLAG_UDR) == SET) && (tmp1 == I2S_MODE_SLAVE_TX))
 296:Drivers/STM32F4xx_HAL_Driver/Src/stm32f4xx_hal_i2s_ex.c ****           {
 297:Drivers/STM32F4xx_HAL_Driver/Src/stm32f4xx_hal_i2s_ex.c ****             /* Clear Underrun flag */
 298:Drivers/STM32F4xx_HAL_Driver/Src/stm32f4xx_hal_i2s_ex.c ****             __HAL_I2S_CLEAR_UDRFLAG(hi2s);
 299:Drivers/STM32F4xx_HAL_Driver/Src/stm32f4xx_hal_i2s_ex.c **** 
 300:Drivers/STM32F4xx_HAL_Driver/Src/stm32f4xx_hal_i2s_ex.c ****             /* Set the I2S State ready */
 301:Drivers/STM32F4xx_HAL_Driver/Src/stm32f4xx_hal_i2s_ex.c ****             hi2s->State = HAL_I2S_STATE_READY;
 302:Drivers/STM32F4xx_HAL_Driver/Src/stm32f4xx_hal_i2s_ex.c **** 
 303:Drivers/STM32F4xx_HAL_Driver/Src/stm32f4xx_hal_i2s_ex.c ****             /* Process Unlocked */
 304:Drivers/STM32F4xx_HAL_Driver/Src/stm32f4xx_hal_i2s_ex.c ****             __HAL_UNLOCK(hi2s);
 305:Drivers/STM32F4xx_HAL_Driver/Src/stm32f4xx_hal_i2s_ex.c **** 
 306:Drivers/STM32F4xx_HAL_Driver/Src/stm32f4xx_hal_i2s_ex.c ****             /* Set the error code and execute error callback*/
 307:Drivers/STM32F4xx_HAL_Driver/Src/stm32f4xx_hal_i2s_ex.c ****             SET_BIT(hi2s->ErrorCode,HAL_I2S_ERROR_UDR);
 308:Drivers/STM32F4xx_HAL_Driver/Src/stm32f4xx_hal_i2s_ex.c ****             HAL_I2S_ErrorCallback(hi2s);
 309:Drivers/STM32F4xx_HAL_Driver/Src/stm32f4xx_hal_i2s_ex.c **** 
 310:Drivers/STM32F4xx_HAL_Driver/Src/stm32f4xx_hal_i2s_ex.c ****             return HAL_ERROR;
 311:Drivers/STM32F4xx_HAL_Driver/Src/stm32f4xx_hal_i2s_ex.c ****           }
 312:Drivers/STM32F4xx_HAL_Driver/Src/stm32f4xx_hal_i2s_ex.c ****         }
 313:Drivers/STM32F4xx_HAL_Driver/Src/stm32f4xx_hal_i2s_ex.c ****         if(hi2s->RxXferCount > 0U)
 314:Drivers/STM32F4xx_HAL_Driver/Src/stm32f4xx_hal_i2s_ex.c ****         {
 315:Drivers/STM32F4xx_HAL_Driver/Src/stm32f4xx_hal_i2s_ex.c ****           /* Wait until RXNE flag is set */
 316:Drivers/STM32F4xx_HAL_Driver/Src/stm32f4xx_hal_i2s_ex.c ****           if (I2SEx_FullDuplexWaitFlagStateUntilTimeout(hi2s, I2S_FLAG_RXNE, SET, Timeout, I2S_USE_
ARM GAS  /tmp/ccPpxa3p.s 			page 7


 317:Drivers/STM32F4xx_HAL_Driver/Src/stm32f4xx_hal_i2s_ex.c ****           {
 318:Drivers/STM32F4xx_HAL_Driver/Src/stm32f4xx_hal_i2s_ex.c ****             /* Set the error code and execute error callback*/
 319:Drivers/STM32F4xx_HAL_Driver/Src/stm32f4xx_hal_i2s_ex.c ****             SET_BIT(hi2s->ErrorCode,HAL_I2S_ERROR_TIMEOUT);
 320:Drivers/STM32F4xx_HAL_Driver/Src/stm32f4xx_hal_i2s_ex.c ****             HAL_I2S_ErrorCallback(hi2s);
 321:Drivers/STM32F4xx_HAL_Driver/Src/stm32f4xx_hal_i2s_ex.c ****             return HAL_TIMEOUT;
 322:Drivers/STM32F4xx_HAL_Driver/Src/stm32f4xx_hal_i2s_ex.c ****           }
 323:Drivers/STM32F4xx_HAL_Driver/Src/stm32f4xx_hal_i2s_ex.c ****           /* Read Data from DR register */
 324:Drivers/STM32F4xx_HAL_Driver/Src/stm32f4xx_hal_i2s_ex.c ****           (*pRxData++) = I2SxEXT(hi2s->Instance)->DR;
 325:Drivers/STM32F4xx_HAL_Driver/Src/stm32f4xx_hal_i2s_ex.c ****           hi2s->RxXferCount--;
 326:Drivers/STM32F4xx_HAL_Driver/Src/stm32f4xx_hal_i2s_ex.c **** 
 327:Drivers/STM32F4xx_HAL_Driver/Src/stm32f4xx_hal_i2s_ex.c ****           /* Check if an overrun occurs */
 328:Drivers/STM32F4xx_HAL_Driver/Src/stm32f4xx_hal_i2s_ex.c ****           if(__HAL_I2SEXT_GET_FLAG(hi2s, I2S_FLAG_OVR) == SET)
 329:Drivers/STM32F4xx_HAL_Driver/Src/stm32f4xx_hal_i2s_ex.c ****           {
 330:Drivers/STM32F4xx_HAL_Driver/Src/stm32f4xx_hal_i2s_ex.c ****             /* Clear Overrun flag */
 331:Drivers/STM32F4xx_HAL_Driver/Src/stm32f4xx_hal_i2s_ex.c ****             __HAL_I2S_CLEAR_OVRFLAG(hi2s);
 332:Drivers/STM32F4xx_HAL_Driver/Src/stm32f4xx_hal_i2s_ex.c **** 
 333:Drivers/STM32F4xx_HAL_Driver/Src/stm32f4xx_hal_i2s_ex.c ****             /* Set the I2S State ready */
 334:Drivers/STM32F4xx_HAL_Driver/Src/stm32f4xx_hal_i2s_ex.c ****             hi2s->State = HAL_I2S_STATE_READY;
 335:Drivers/STM32F4xx_HAL_Driver/Src/stm32f4xx_hal_i2s_ex.c **** 
 336:Drivers/STM32F4xx_HAL_Driver/Src/stm32f4xx_hal_i2s_ex.c ****             /* Process Unlocked */
 337:Drivers/STM32F4xx_HAL_Driver/Src/stm32f4xx_hal_i2s_ex.c ****             __HAL_UNLOCK(hi2s);
 338:Drivers/STM32F4xx_HAL_Driver/Src/stm32f4xx_hal_i2s_ex.c **** 
 339:Drivers/STM32F4xx_HAL_Driver/Src/stm32f4xx_hal_i2s_ex.c ****             /* Set the error code and execute error callback*/
 340:Drivers/STM32F4xx_HAL_Driver/Src/stm32f4xx_hal_i2s_ex.c ****             SET_BIT(hi2s->ErrorCode,HAL_I2S_ERROR_OVR);
 341:Drivers/STM32F4xx_HAL_Driver/Src/stm32f4xx_hal_i2s_ex.c ****             HAL_I2S_ErrorCallback(hi2s);
 342:Drivers/STM32F4xx_HAL_Driver/Src/stm32f4xx_hal_i2s_ex.c **** 
 343:Drivers/STM32F4xx_HAL_Driver/Src/stm32f4xx_hal_i2s_ex.c ****             return HAL_ERROR;
 344:Drivers/STM32F4xx_HAL_Driver/Src/stm32f4xx_hal_i2s_ex.c ****           }
 345:Drivers/STM32F4xx_HAL_Driver/Src/stm32f4xx_hal_i2s_ex.c ****         }
 346:Drivers/STM32F4xx_HAL_Driver/Src/stm32f4xx_hal_i2s_ex.c ****       }
 347:Drivers/STM32F4xx_HAL_Driver/Src/stm32f4xx_hal_i2s_ex.c ****     }
 348:Drivers/STM32F4xx_HAL_Driver/Src/stm32f4xx_hal_i2s_ex.c ****     /* The I2S_MODE_MASTER_RX or I2S_MODE_SLAVE_RX Mode is selected */
 349:Drivers/STM32F4xx_HAL_Driver/Src/stm32f4xx_hal_i2s_ex.c ****     else
 350:Drivers/STM32F4xx_HAL_Driver/Src/stm32f4xx_hal_i2s_ex.c ****     {
 351:Drivers/STM32F4xx_HAL_Driver/Src/stm32f4xx_hal_i2s_ex.c ****       /* Prepare the First Data before enabling the I2S */
 352:Drivers/STM32F4xx_HAL_Driver/Src/stm32f4xx_hal_i2s_ex.c ****       I2SxEXT(hi2s->Instance)->DR = (*pTxData++);
 353:Drivers/STM32F4xx_HAL_Driver/Src/stm32f4xx_hal_i2s_ex.c ****       hi2s->TxXferCount--;
 354:Drivers/STM32F4xx_HAL_Driver/Src/stm32f4xx_hal_i2s_ex.c **** 
 355:Drivers/STM32F4xx_HAL_Driver/Src/stm32f4xx_hal_i2s_ex.c ****       /* Enable I2Sext(transmitter) after enabling I2Sx peripheral */
 356:Drivers/STM32F4xx_HAL_Driver/Src/stm32f4xx_hal_i2s_ex.c ****       __HAL_I2SEXT_ENABLE(hi2s);
 357:Drivers/STM32F4xx_HAL_Driver/Src/stm32f4xx_hal_i2s_ex.c ****       
 358:Drivers/STM32F4xx_HAL_Driver/Src/stm32f4xx_hal_i2s_ex.c ****       /* Enable I2S peripheral before the I2Sext*/
 359:Drivers/STM32F4xx_HAL_Driver/Src/stm32f4xx_hal_i2s_ex.c ****       __HAL_I2S_ENABLE(hi2s);
 360:Drivers/STM32F4xx_HAL_Driver/Src/stm32f4xx_hal_i2s_ex.c **** 
 361:Drivers/STM32F4xx_HAL_Driver/Src/stm32f4xx_hal_i2s_ex.c ****       /* Check if Master Receiver mode is selected */
 362:Drivers/STM32F4xx_HAL_Driver/Src/stm32f4xx_hal_i2s_ex.c ****       if((hi2s->Instance->I2SCFGR & SPI_I2SCFGR_I2SCFG) == I2S_MODE_MASTER_RX)
 363:Drivers/STM32F4xx_HAL_Driver/Src/stm32f4xx_hal_i2s_ex.c ****       {
 364:Drivers/STM32F4xx_HAL_Driver/Src/stm32f4xx_hal_i2s_ex.c ****         /* Clear the Overrun Flag by a read operation on the SPI_DR register followed by a read
 365:Drivers/STM32F4xx_HAL_Driver/Src/stm32f4xx_hal_i2s_ex.c ****         access to the SPI_SR register. */
 366:Drivers/STM32F4xx_HAL_Driver/Src/stm32f4xx_hal_i2s_ex.c ****         __HAL_I2S_CLEAR_OVRFLAG(hi2s);
 367:Drivers/STM32F4xx_HAL_Driver/Src/stm32f4xx_hal_i2s_ex.c ****       }
 368:Drivers/STM32F4xx_HAL_Driver/Src/stm32f4xx_hal_i2s_ex.c **** 
 369:Drivers/STM32F4xx_HAL_Driver/Src/stm32f4xx_hal_i2s_ex.c ****       while((hi2s->RxXferCount > 0U) || (hi2s->TxXferCount > 0U))
 370:Drivers/STM32F4xx_HAL_Driver/Src/stm32f4xx_hal_i2s_ex.c ****       {
 371:Drivers/STM32F4xx_HAL_Driver/Src/stm32f4xx_hal_i2s_ex.c ****         if(hi2s->TxXferCount > 0U)
 372:Drivers/STM32F4xx_HAL_Driver/Src/stm32f4xx_hal_i2s_ex.c ****         {
 373:Drivers/STM32F4xx_HAL_Driver/Src/stm32f4xx_hal_i2s_ex.c ****           /* Wait until TXE flag is set */
ARM GAS  /tmp/ccPpxa3p.s 			page 8


 374:Drivers/STM32F4xx_HAL_Driver/Src/stm32f4xx_hal_i2s_ex.c ****           if (I2SEx_FullDuplexWaitFlagStateUntilTimeout(hi2s, I2S_FLAG_TXE, SET, Timeout, I2S_USE_I
 375:Drivers/STM32F4xx_HAL_Driver/Src/stm32f4xx_hal_i2s_ex.c ****           {
 376:Drivers/STM32F4xx_HAL_Driver/Src/stm32f4xx_hal_i2s_ex.c ****             /* Set the error code and execute error callback*/
 377:Drivers/STM32F4xx_HAL_Driver/Src/stm32f4xx_hal_i2s_ex.c ****             SET_BIT(hi2s->ErrorCode,HAL_I2S_ERROR_TIMEOUT);
 378:Drivers/STM32F4xx_HAL_Driver/Src/stm32f4xx_hal_i2s_ex.c ****             HAL_I2S_ErrorCallback(hi2s);
 379:Drivers/STM32F4xx_HAL_Driver/Src/stm32f4xx_hal_i2s_ex.c ****             return HAL_TIMEOUT;
 380:Drivers/STM32F4xx_HAL_Driver/Src/stm32f4xx_hal_i2s_ex.c ****           }
 381:Drivers/STM32F4xx_HAL_Driver/Src/stm32f4xx_hal_i2s_ex.c ****           /* Write Data on DR register */
 382:Drivers/STM32F4xx_HAL_Driver/Src/stm32f4xx_hal_i2s_ex.c ****           I2SxEXT(hi2s->Instance)->DR = (*pTxData++);
 383:Drivers/STM32F4xx_HAL_Driver/Src/stm32f4xx_hal_i2s_ex.c ****           hi2s->TxXferCount--;
 384:Drivers/STM32F4xx_HAL_Driver/Src/stm32f4xx_hal_i2s_ex.c **** 
 385:Drivers/STM32F4xx_HAL_Driver/Src/stm32f4xx_hal_i2s_ex.c ****           /* Check if an underrun occurs */
 386:Drivers/STM32F4xx_HAL_Driver/Src/stm32f4xx_hal_i2s_ex.c ****           if((__HAL_I2SEXT_GET_FLAG(hi2s, I2S_FLAG_UDR) == SET) && (tmp1 == I2S_MODE_SLAVE_RX))
 387:Drivers/STM32F4xx_HAL_Driver/Src/stm32f4xx_hal_i2s_ex.c ****           {
 388:Drivers/STM32F4xx_HAL_Driver/Src/stm32f4xx_hal_i2s_ex.c ****             /* Clear Underrun flag */
 389:Drivers/STM32F4xx_HAL_Driver/Src/stm32f4xx_hal_i2s_ex.c ****             __HAL_I2S_CLEAR_UDRFLAG(hi2s);
 390:Drivers/STM32F4xx_HAL_Driver/Src/stm32f4xx_hal_i2s_ex.c **** 
 391:Drivers/STM32F4xx_HAL_Driver/Src/stm32f4xx_hal_i2s_ex.c ****             /* Set the I2S State ready */
 392:Drivers/STM32F4xx_HAL_Driver/Src/stm32f4xx_hal_i2s_ex.c ****             hi2s->State = HAL_I2S_STATE_READY;
 393:Drivers/STM32F4xx_HAL_Driver/Src/stm32f4xx_hal_i2s_ex.c **** 
 394:Drivers/STM32F4xx_HAL_Driver/Src/stm32f4xx_hal_i2s_ex.c ****             /* Process Unlocked */
 395:Drivers/STM32F4xx_HAL_Driver/Src/stm32f4xx_hal_i2s_ex.c ****             __HAL_UNLOCK(hi2s);
 396:Drivers/STM32F4xx_HAL_Driver/Src/stm32f4xx_hal_i2s_ex.c **** 
 397:Drivers/STM32F4xx_HAL_Driver/Src/stm32f4xx_hal_i2s_ex.c ****             /* Set the error code and execute error callback*/
 398:Drivers/STM32F4xx_HAL_Driver/Src/stm32f4xx_hal_i2s_ex.c ****             SET_BIT(hi2s->ErrorCode,HAL_I2S_ERROR_UDR);
 399:Drivers/STM32F4xx_HAL_Driver/Src/stm32f4xx_hal_i2s_ex.c ****             HAL_I2S_ErrorCallback(hi2s);
 400:Drivers/STM32F4xx_HAL_Driver/Src/stm32f4xx_hal_i2s_ex.c **** 
 401:Drivers/STM32F4xx_HAL_Driver/Src/stm32f4xx_hal_i2s_ex.c ****             return HAL_ERROR;
 402:Drivers/STM32F4xx_HAL_Driver/Src/stm32f4xx_hal_i2s_ex.c ****           }
 403:Drivers/STM32F4xx_HAL_Driver/Src/stm32f4xx_hal_i2s_ex.c ****         }
 404:Drivers/STM32F4xx_HAL_Driver/Src/stm32f4xx_hal_i2s_ex.c ****         if(hi2s->RxXferCount > 0U)
 405:Drivers/STM32F4xx_HAL_Driver/Src/stm32f4xx_hal_i2s_ex.c ****         {
 406:Drivers/STM32F4xx_HAL_Driver/Src/stm32f4xx_hal_i2s_ex.c ****           /* Wait until RXNE flag is set */
 407:Drivers/STM32F4xx_HAL_Driver/Src/stm32f4xx_hal_i2s_ex.c ****           if (I2SEx_FullDuplexWaitFlagStateUntilTimeout(hi2s, I2S_FLAG_RXNE, SET, Timeout, I2S_USE_
 408:Drivers/STM32F4xx_HAL_Driver/Src/stm32f4xx_hal_i2s_ex.c ****           {
 409:Drivers/STM32F4xx_HAL_Driver/Src/stm32f4xx_hal_i2s_ex.c ****             /* Set the error code and execute error callback*/
 410:Drivers/STM32F4xx_HAL_Driver/Src/stm32f4xx_hal_i2s_ex.c ****             SET_BIT(hi2s->ErrorCode,HAL_I2S_ERROR_TIMEOUT);
 411:Drivers/STM32F4xx_HAL_Driver/Src/stm32f4xx_hal_i2s_ex.c ****             HAL_I2S_ErrorCallback(hi2s);
 412:Drivers/STM32F4xx_HAL_Driver/Src/stm32f4xx_hal_i2s_ex.c ****             return HAL_TIMEOUT;
 413:Drivers/STM32F4xx_HAL_Driver/Src/stm32f4xx_hal_i2s_ex.c ****           }
 414:Drivers/STM32F4xx_HAL_Driver/Src/stm32f4xx_hal_i2s_ex.c ****           /* Read Data from DR register */
 415:Drivers/STM32F4xx_HAL_Driver/Src/stm32f4xx_hal_i2s_ex.c ****           (*pRxData++) = hi2s->Instance->DR;
 416:Drivers/STM32F4xx_HAL_Driver/Src/stm32f4xx_hal_i2s_ex.c ****           hi2s->RxXferCount--;
 417:Drivers/STM32F4xx_HAL_Driver/Src/stm32f4xx_hal_i2s_ex.c **** 
 418:Drivers/STM32F4xx_HAL_Driver/Src/stm32f4xx_hal_i2s_ex.c ****           /* Check if an overrun occurs */
 419:Drivers/STM32F4xx_HAL_Driver/Src/stm32f4xx_hal_i2s_ex.c ****           if(__HAL_I2S_GET_FLAG(hi2s, I2S_FLAG_OVR) == SET)
 420:Drivers/STM32F4xx_HAL_Driver/Src/stm32f4xx_hal_i2s_ex.c ****           {
 421:Drivers/STM32F4xx_HAL_Driver/Src/stm32f4xx_hal_i2s_ex.c ****             /* Clear Overrun flag */
 422:Drivers/STM32F4xx_HAL_Driver/Src/stm32f4xx_hal_i2s_ex.c ****             __HAL_I2S_CLEAR_OVRFLAG(hi2s);
 423:Drivers/STM32F4xx_HAL_Driver/Src/stm32f4xx_hal_i2s_ex.c **** 
 424:Drivers/STM32F4xx_HAL_Driver/Src/stm32f4xx_hal_i2s_ex.c ****             /* Set the I2S State ready */
 425:Drivers/STM32F4xx_HAL_Driver/Src/stm32f4xx_hal_i2s_ex.c ****             hi2s->State = HAL_I2S_STATE_READY;
 426:Drivers/STM32F4xx_HAL_Driver/Src/stm32f4xx_hal_i2s_ex.c **** 
 427:Drivers/STM32F4xx_HAL_Driver/Src/stm32f4xx_hal_i2s_ex.c ****             /* Process Unlocked */
 428:Drivers/STM32F4xx_HAL_Driver/Src/stm32f4xx_hal_i2s_ex.c ****             __HAL_UNLOCK(hi2s);
 429:Drivers/STM32F4xx_HAL_Driver/Src/stm32f4xx_hal_i2s_ex.c **** 
 430:Drivers/STM32F4xx_HAL_Driver/Src/stm32f4xx_hal_i2s_ex.c ****             /* Set the error code and execute error callback*/
ARM GAS  /tmp/ccPpxa3p.s 			page 9


 431:Drivers/STM32F4xx_HAL_Driver/Src/stm32f4xx_hal_i2s_ex.c ****             SET_BIT(hi2s->ErrorCode,HAL_I2S_ERROR_OVR);
 432:Drivers/STM32F4xx_HAL_Driver/Src/stm32f4xx_hal_i2s_ex.c ****             HAL_I2S_ErrorCallback(hi2s);
 433:Drivers/STM32F4xx_HAL_Driver/Src/stm32f4xx_hal_i2s_ex.c **** 
 434:Drivers/STM32F4xx_HAL_Driver/Src/stm32f4xx_hal_i2s_ex.c ****             return HAL_ERROR;
 435:Drivers/STM32F4xx_HAL_Driver/Src/stm32f4xx_hal_i2s_ex.c ****           }
 436:Drivers/STM32F4xx_HAL_Driver/Src/stm32f4xx_hal_i2s_ex.c ****         }
 437:Drivers/STM32F4xx_HAL_Driver/Src/stm32f4xx_hal_i2s_ex.c ****       }
 438:Drivers/STM32F4xx_HAL_Driver/Src/stm32f4xx_hal_i2s_ex.c ****     }
 439:Drivers/STM32F4xx_HAL_Driver/Src/stm32f4xx_hal_i2s_ex.c **** 
 440:Drivers/STM32F4xx_HAL_Driver/Src/stm32f4xx_hal_i2s_ex.c ****     /* Set the I2S State ready */
 441:Drivers/STM32F4xx_HAL_Driver/Src/stm32f4xx_hal_i2s_ex.c ****     hi2s->State = HAL_I2S_STATE_READY;
 442:Drivers/STM32F4xx_HAL_Driver/Src/stm32f4xx_hal_i2s_ex.c **** 
 443:Drivers/STM32F4xx_HAL_Driver/Src/stm32f4xx_hal_i2s_ex.c ****     /* Process Unlocked */
 444:Drivers/STM32F4xx_HAL_Driver/Src/stm32f4xx_hal_i2s_ex.c ****     __HAL_UNLOCK(hi2s);
 445:Drivers/STM32F4xx_HAL_Driver/Src/stm32f4xx_hal_i2s_ex.c **** 
 446:Drivers/STM32F4xx_HAL_Driver/Src/stm32f4xx_hal_i2s_ex.c ****     return HAL_OK;
 447:Drivers/STM32F4xx_HAL_Driver/Src/stm32f4xx_hal_i2s_ex.c ****   }
 448:Drivers/STM32F4xx_HAL_Driver/Src/stm32f4xx_hal_i2s_ex.c ****   else
 449:Drivers/STM32F4xx_HAL_Driver/Src/stm32f4xx_hal_i2s_ex.c ****   {
 450:Drivers/STM32F4xx_HAL_Driver/Src/stm32f4xx_hal_i2s_ex.c ****     return HAL_BUSY;
 451:Drivers/STM32F4xx_HAL_Driver/Src/stm32f4xx_hal_i2s_ex.c ****   }
 452:Drivers/STM32F4xx_HAL_Driver/Src/stm32f4xx_hal_i2s_ex.c **** }
 453:Drivers/STM32F4xx_HAL_Driver/Src/stm32f4xx_hal_i2s_ex.c **** 
 454:Drivers/STM32F4xx_HAL_Driver/Src/stm32f4xx_hal_i2s_ex.c **** /**
 455:Drivers/STM32F4xx_HAL_Driver/Src/stm32f4xx_hal_i2s_ex.c ****   * @brief Full-Duplex Transmit/Receive data in non-blocking mode using Interrupt
 456:Drivers/STM32F4xx_HAL_Driver/Src/stm32f4xx_hal_i2s_ex.c ****   * @param  hi2s pointer to a I2S_HandleTypeDef structure that contains
 457:Drivers/STM32F4xx_HAL_Driver/Src/stm32f4xx_hal_i2s_ex.c ****   *         the configuration information for I2S module
 458:Drivers/STM32F4xx_HAL_Driver/Src/stm32f4xx_hal_i2s_ex.c ****   * @param pTxData a 16-bit pointer to the Transmit data buffer.
 459:Drivers/STM32F4xx_HAL_Driver/Src/stm32f4xx_hal_i2s_ex.c ****   * @param pRxData a 16-bit pointer to the Receive data buffer.
 460:Drivers/STM32F4xx_HAL_Driver/Src/stm32f4xx_hal_i2s_ex.c ****   * @param Size number of data sample to be sent:
 461:Drivers/STM32F4xx_HAL_Driver/Src/stm32f4xx_hal_i2s_ex.c ****   * @note When a 16-bit data frame or a 16-bit data frame extended is selected during the I2S
 462:Drivers/STM32F4xx_HAL_Driver/Src/stm32f4xx_hal_i2s_ex.c ****   *       configuration phase, the Size parameter means the number of 16-bit data length
 463:Drivers/STM32F4xx_HAL_Driver/Src/stm32f4xx_hal_i2s_ex.c ****   *       in the transaction and when a 24-bit data frame or a 32-bit data frame is selected
 464:Drivers/STM32F4xx_HAL_Driver/Src/stm32f4xx_hal_i2s_ex.c ****   *       the Size parameter means the number of 16-bit data length.
 465:Drivers/STM32F4xx_HAL_Driver/Src/stm32f4xx_hal_i2s_ex.c ****   * @note The I2S is kept enabled at the end of transaction to avoid the clock de-synchronization
 466:Drivers/STM32F4xx_HAL_Driver/Src/stm32f4xx_hal_i2s_ex.c ****   *       between Master and Slave(example: audio streaming).
 467:Drivers/STM32F4xx_HAL_Driver/Src/stm32f4xx_hal_i2s_ex.c ****   * @retval HAL status
 468:Drivers/STM32F4xx_HAL_Driver/Src/stm32f4xx_hal_i2s_ex.c ****   */
 469:Drivers/STM32F4xx_HAL_Driver/Src/stm32f4xx_hal_i2s_ex.c **** HAL_StatusTypeDef HAL_I2SEx_TransmitReceive_IT(I2S_HandleTypeDef *hi2s, uint16_t *pTxData, uint16_t
 470:Drivers/STM32F4xx_HAL_Driver/Src/stm32f4xx_hal_i2s_ex.c ****                                                uint16_t Size)
 471:Drivers/STM32F4xx_HAL_Driver/Src/stm32f4xx_hal_i2s_ex.c **** {
 472:Drivers/STM32F4xx_HAL_Driver/Src/stm32f4xx_hal_i2s_ex.c ****   uint32_t tmp1 = 0U;
 473:Drivers/STM32F4xx_HAL_Driver/Src/stm32f4xx_hal_i2s_ex.c **** 
 474:Drivers/STM32F4xx_HAL_Driver/Src/stm32f4xx_hal_i2s_ex.c ****   if(hi2s->State == HAL_I2S_STATE_READY)
 475:Drivers/STM32F4xx_HAL_Driver/Src/stm32f4xx_hal_i2s_ex.c ****   {
 476:Drivers/STM32F4xx_HAL_Driver/Src/stm32f4xx_hal_i2s_ex.c ****     if((pTxData == NULL ) || (pRxData == NULL ) || (Size == 0U))
 477:Drivers/STM32F4xx_HAL_Driver/Src/stm32f4xx_hal_i2s_ex.c ****     {
 478:Drivers/STM32F4xx_HAL_Driver/Src/stm32f4xx_hal_i2s_ex.c ****       return  HAL_ERROR;
 479:Drivers/STM32F4xx_HAL_Driver/Src/stm32f4xx_hal_i2s_ex.c ****     }
 480:Drivers/STM32F4xx_HAL_Driver/Src/stm32f4xx_hal_i2s_ex.c **** 
 481:Drivers/STM32F4xx_HAL_Driver/Src/stm32f4xx_hal_i2s_ex.c ****     hi2s->pTxBuffPtr = pTxData;
 482:Drivers/STM32F4xx_HAL_Driver/Src/stm32f4xx_hal_i2s_ex.c ****     hi2s->pRxBuffPtr = pRxData;
 483:Drivers/STM32F4xx_HAL_Driver/Src/stm32f4xx_hal_i2s_ex.c **** 
 484:Drivers/STM32F4xx_HAL_Driver/Src/stm32f4xx_hal_i2s_ex.c ****     tmp1 = hi2s->Instance->I2SCFGR & (SPI_I2SCFGR_DATLEN | SPI_I2SCFGR_CHLEN);
 485:Drivers/STM32F4xx_HAL_Driver/Src/stm32f4xx_hal_i2s_ex.c ****     /* Check the Data format: When a 16-bit data frame or a 16-bit data frame extended
 486:Drivers/STM32F4xx_HAL_Driver/Src/stm32f4xx_hal_i2s_ex.c ****     is selected during the I2S configuration phase, the Size parameter means the number
 487:Drivers/STM32F4xx_HAL_Driver/Src/stm32f4xx_hal_i2s_ex.c ****     of 16-bit data length in the transaction and when a 24-bit data frame or a 32-bit data
ARM GAS  /tmp/ccPpxa3p.s 			page 10


 488:Drivers/STM32F4xx_HAL_Driver/Src/stm32f4xx_hal_i2s_ex.c ****     frame is selected the Size parameter means the number of 16-bit data length. */
 489:Drivers/STM32F4xx_HAL_Driver/Src/stm32f4xx_hal_i2s_ex.c ****     if((tmp1 == I2S_DATAFORMAT_24B) || (tmp1 == I2S_DATAFORMAT_32B))
 490:Drivers/STM32F4xx_HAL_Driver/Src/stm32f4xx_hal_i2s_ex.c ****     {
 491:Drivers/STM32F4xx_HAL_Driver/Src/stm32f4xx_hal_i2s_ex.c ****       hi2s->TxXferSize  = (Size << 1U);
 492:Drivers/STM32F4xx_HAL_Driver/Src/stm32f4xx_hal_i2s_ex.c ****       hi2s->TxXferCount = (Size << 1U);
 493:Drivers/STM32F4xx_HAL_Driver/Src/stm32f4xx_hal_i2s_ex.c ****       hi2s->RxXferSize  = (Size << 1U);
 494:Drivers/STM32F4xx_HAL_Driver/Src/stm32f4xx_hal_i2s_ex.c ****       hi2s->RxXferCount = (Size << 1U);
 495:Drivers/STM32F4xx_HAL_Driver/Src/stm32f4xx_hal_i2s_ex.c ****     }
 496:Drivers/STM32F4xx_HAL_Driver/Src/stm32f4xx_hal_i2s_ex.c ****     else
 497:Drivers/STM32F4xx_HAL_Driver/Src/stm32f4xx_hal_i2s_ex.c ****     {
 498:Drivers/STM32F4xx_HAL_Driver/Src/stm32f4xx_hal_i2s_ex.c ****       hi2s->TxXferSize  = Size;
 499:Drivers/STM32F4xx_HAL_Driver/Src/stm32f4xx_hal_i2s_ex.c ****       hi2s->TxXferCount = Size;
 500:Drivers/STM32F4xx_HAL_Driver/Src/stm32f4xx_hal_i2s_ex.c ****       hi2s->RxXferSize  = Size;
 501:Drivers/STM32F4xx_HAL_Driver/Src/stm32f4xx_hal_i2s_ex.c ****       hi2s->RxXferCount = Size;
 502:Drivers/STM32F4xx_HAL_Driver/Src/stm32f4xx_hal_i2s_ex.c ****     }
 503:Drivers/STM32F4xx_HAL_Driver/Src/stm32f4xx_hal_i2s_ex.c **** 
 504:Drivers/STM32F4xx_HAL_Driver/Src/stm32f4xx_hal_i2s_ex.c ****     /* Process Locked */
 505:Drivers/STM32F4xx_HAL_Driver/Src/stm32f4xx_hal_i2s_ex.c ****     __HAL_LOCK(hi2s);
 506:Drivers/STM32F4xx_HAL_Driver/Src/stm32f4xx_hal_i2s_ex.c **** 
 507:Drivers/STM32F4xx_HAL_Driver/Src/stm32f4xx_hal_i2s_ex.c ****     hi2s->ErrorCode = HAL_I2S_ERROR_NONE;
 508:Drivers/STM32F4xx_HAL_Driver/Src/stm32f4xx_hal_i2s_ex.c ****     hi2s->State     = HAL_I2S_STATE_BUSY_TX_RX;
 509:Drivers/STM32F4xx_HAL_Driver/Src/stm32f4xx_hal_i2s_ex.c **** 
 510:Drivers/STM32F4xx_HAL_Driver/Src/stm32f4xx_hal_i2s_ex.c ****     tmp1 = hi2s->Instance->I2SCFGR & SPI_I2SCFGR_I2SCFG;
 511:Drivers/STM32F4xx_HAL_Driver/Src/stm32f4xx_hal_i2s_ex.c ****     /* Check if the I2S_MODE_MASTER_TX or I2S_MODE_SLAVE_TX Mode is selected */
 512:Drivers/STM32F4xx_HAL_Driver/Src/stm32f4xx_hal_i2s_ex.c ****     if((tmp1 == I2S_MODE_MASTER_TX) || (tmp1 == I2S_MODE_SLAVE_TX))
 513:Drivers/STM32F4xx_HAL_Driver/Src/stm32f4xx_hal_i2s_ex.c ****     {
 514:Drivers/STM32F4xx_HAL_Driver/Src/stm32f4xx_hal_i2s_ex.c ****       /* Enable I2Sext RXNE and ERR interrupts */
 515:Drivers/STM32F4xx_HAL_Driver/Src/stm32f4xx_hal_i2s_ex.c ****       __HAL_I2SEXT_ENABLE_IT(hi2s, (I2S_IT_RXNE | I2S_IT_ERR));
 516:Drivers/STM32F4xx_HAL_Driver/Src/stm32f4xx_hal_i2s_ex.c **** 
 517:Drivers/STM32F4xx_HAL_Driver/Src/stm32f4xx_hal_i2s_ex.c ****       /* Enable I2Sx TXE and ERR interrupts */
 518:Drivers/STM32F4xx_HAL_Driver/Src/stm32f4xx_hal_i2s_ex.c ****       __HAL_I2S_ENABLE_IT(hi2s, (I2S_IT_TXE | I2S_IT_ERR));
 519:Drivers/STM32F4xx_HAL_Driver/Src/stm32f4xx_hal_i2s_ex.c **** 
 520:Drivers/STM32F4xx_HAL_Driver/Src/stm32f4xx_hal_i2s_ex.c ****       /* Check if the I2S is already enabled */
 521:Drivers/STM32F4xx_HAL_Driver/Src/stm32f4xx_hal_i2s_ex.c ****       if((hi2s->Instance->I2SCFGR &SPI_I2SCFGR_I2SE) != SPI_I2SCFGR_I2SE)
 522:Drivers/STM32F4xx_HAL_Driver/Src/stm32f4xx_hal_i2s_ex.c ****       {
 523:Drivers/STM32F4xx_HAL_Driver/Src/stm32f4xx_hal_i2s_ex.c ****         if((hi2s->Instance->I2SCFGR & SPI_I2SCFGR_I2SCFG) == I2S_MODE_SLAVE_TX)
 524:Drivers/STM32F4xx_HAL_Driver/Src/stm32f4xx_hal_i2s_ex.c ****         {
 525:Drivers/STM32F4xx_HAL_Driver/Src/stm32f4xx_hal_i2s_ex.c ****           /* Prepare the First Data before enabling the I2S */
 526:Drivers/STM32F4xx_HAL_Driver/Src/stm32f4xx_hal_i2s_ex.c ****           if(hi2s->TxXferCount != 0U)
 527:Drivers/STM32F4xx_HAL_Driver/Src/stm32f4xx_hal_i2s_ex.c ****           {
 528:Drivers/STM32F4xx_HAL_Driver/Src/stm32f4xx_hal_i2s_ex.c ****             /* Transmit First data */
 529:Drivers/STM32F4xx_HAL_Driver/Src/stm32f4xx_hal_i2s_ex.c ****             hi2s->Instance->DR = (*hi2s->pTxBuffPtr++);
 530:Drivers/STM32F4xx_HAL_Driver/Src/stm32f4xx_hal_i2s_ex.c ****             hi2s->TxXferCount--;
 531:Drivers/STM32F4xx_HAL_Driver/Src/stm32f4xx_hal_i2s_ex.c **** 
 532:Drivers/STM32F4xx_HAL_Driver/Src/stm32f4xx_hal_i2s_ex.c ****             if(hi2s->TxXferCount == 0U)
 533:Drivers/STM32F4xx_HAL_Driver/Src/stm32f4xx_hal_i2s_ex.c ****             {
 534:Drivers/STM32F4xx_HAL_Driver/Src/stm32f4xx_hal_i2s_ex.c ****               /* Disable TXE and ERR interrupt */
 535:Drivers/STM32F4xx_HAL_Driver/Src/stm32f4xx_hal_i2s_ex.c ****               __HAL_I2S_DISABLE_IT(hi2s, (I2S_IT_TXE | I2S_IT_ERR));
 536:Drivers/STM32F4xx_HAL_Driver/Src/stm32f4xx_hal_i2s_ex.c **** 
 537:Drivers/STM32F4xx_HAL_Driver/Src/stm32f4xx_hal_i2s_ex.c ****               if(hi2s->RxXferCount == 0U)
 538:Drivers/STM32F4xx_HAL_Driver/Src/stm32f4xx_hal_i2s_ex.c ****               {
 539:Drivers/STM32F4xx_HAL_Driver/Src/stm32f4xx_hal_i2s_ex.c ****                 /* Disable I2Sext RXNE and ERR interrupt */
 540:Drivers/STM32F4xx_HAL_Driver/Src/stm32f4xx_hal_i2s_ex.c ****                 __HAL_I2SEXT_DISABLE_IT(hi2s, (I2S_IT_RXNE| I2S_IT_ERR));
 541:Drivers/STM32F4xx_HAL_Driver/Src/stm32f4xx_hal_i2s_ex.c **** 
 542:Drivers/STM32F4xx_HAL_Driver/Src/stm32f4xx_hal_i2s_ex.c ****                 hi2s->State = HAL_I2S_STATE_READY;
 543:Drivers/STM32F4xx_HAL_Driver/Src/stm32f4xx_hal_i2s_ex.c ****                 HAL_I2SEx_TxRxCpltCallback(hi2s);
 544:Drivers/STM32F4xx_HAL_Driver/Src/stm32f4xx_hal_i2s_ex.c ****               }
ARM GAS  /tmp/ccPpxa3p.s 			page 11


 545:Drivers/STM32F4xx_HAL_Driver/Src/stm32f4xx_hal_i2s_ex.c ****             }
 546:Drivers/STM32F4xx_HAL_Driver/Src/stm32f4xx_hal_i2s_ex.c ****           }
 547:Drivers/STM32F4xx_HAL_Driver/Src/stm32f4xx_hal_i2s_ex.c ****         }
 548:Drivers/STM32F4xx_HAL_Driver/Src/stm32f4xx_hal_i2s_ex.c ****         /* Enable I2Sext(receiver) before enabling I2Sx peripheral */
 549:Drivers/STM32F4xx_HAL_Driver/Src/stm32f4xx_hal_i2s_ex.c ****         __HAL_I2SEXT_ENABLE(hi2s);
 550:Drivers/STM32F4xx_HAL_Driver/Src/stm32f4xx_hal_i2s_ex.c **** 
 551:Drivers/STM32F4xx_HAL_Driver/Src/stm32f4xx_hal_i2s_ex.c ****         /* Enable I2Sx peripheral */
 552:Drivers/STM32F4xx_HAL_Driver/Src/stm32f4xx_hal_i2s_ex.c ****         __HAL_I2S_ENABLE(hi2s);
 553:Drivers/STM32F4xx_HAL_Driver/Src/stm32f4xx_hal_i2s_ex.c ****       }
 554:Drivers/STM32F4xx_HAL_Driver/Src/stm32f4xx_hal_i2s_ex.c ****     }
 555:Drivers/STM32F4xx_HAL_Driver/Src/stm32f4xx_hal_i2s_ex.c ****     /* The I2S_MODE_MASTER_RX or I2S_MODE_SLAVE_RX Mode is selected */
 556:Drivers/STM32F4xx_HAL_Driver/Src/stm32f4xx_hal_i2s_ex.c ****     else
 557:Drivers/STM32F4xx_HAL_Driver/Src/stm32f4xx_hal_i2s_ex.c ****     {
 558:Drivers/STM32F4xx_HAL_Driver/Src/stm32f4xx_hal_i2s_ex.c ****       /* Enable I2Sext TXE and ERR interrupts */
 559:Drivers/STM32F4xx_HAL_Driver/Src/stm32f4xx_hal_i2s_ex.c ****       __HAL_I2SEXT_ENABLE_IT(hi2s, (I2S_IT_TXE | I2S_IT_ERR));
 560:Drivers/STM32F4xx_HAL_Driver/Src/stm32f4xx_hal_i2s_ex.c **** 
 561:Drivers/STM32F4xx_HAL_Driver/Src/stm32f4xx_hal_i2s_ex.c ****       /* Enable I2Sext RXNE and ERR interrupts */
 562:Drivers/STM32F4xx_HAL_Driver/Src/stm32f4xx_hal_i2s_ex.c ****       __HAL_I2S_ENABLE_IT(hi2s, (I2S_IT_RXNE | I2S_IT_ERR));
 563:Drivers/STM32F4xx_HAL_Driver/Src/stm32f4xx_hal_i2s_ex.c **** 
 564:Drivers/STM32F4xx_HAL_Driver/Src/stm32f4xx_hal_i2s_ex.c ****       /* Check if the I2S is already enabled */
 565:Drivers/STM32F4xx_HAL_Driver/Src/stm32f4xx_hal_i2s_ex.c ****       if((hi2s->Instance->I2SCFGR &SPI_I2SCFGR_I2SE) != SPI_I2SCFGR_I2SE)
 566:Drivers/STM32F4xx_HAL_Driver/Src/stm32f4xx_hal_i2s_ex.c ****       {
 567:Drivers/STM32F4xx_HAL_Driver/Src/stm32f4xx_hal_i2s_ex.c ****         /* Check if the I2S_MODE_MASTER_RX is selected */
 568:Drivers/STM32F4xx_HAL_Driver/Src/stm32f4xx_hal_i2s_ex.c ****         if((hi2s->Instance->I2SCFGR & SPI_I2SCFGR_I2SCFG) == I2S_MODE_MASTER_RX)
 569:Drivers/STM32F4xx_HAL_Driver/Src/stm32f4xx_hal_i2s_ex.c ****         {
 570:Drivers/STM32F4xx_HAL_Driver/Src/stm32f4xx_hal_i2s_ex.c ****           /* Prepare the First Data before enabling the I2S */
 571:Drivers/STM32F4xx_HAL_Driver/Src/stm32f4xx_hal_i2s_ex.c ****           if(hi2s->TxXferCount != 0U)
 572:Drivers/STM32F4xx_HAL_Driver/Src/stm32f4xx_hal_i2s_ex.c ****           {
 573:Drivers/STM32F4xx_HAL_Driver/Src/stm32f4xx_hal_i2s_ex.c ****             /* Transmit First data */
 574:Drivers/STM32F4xx_HAL_Driver/Src/stm32f4xx_hal_i2s_ex.c ****             I2SxEXT(hi2s->Instance)->DR = (*hi2s->pTxBuffPtr++);
 575:Drivers/STM32F4xx_HAL_Driver/Src/stm32f4xx_hal_i2s_ex.c ****             hi2s->TxXferCount--;
 576:Drivers/STM32F4xx_HAL_Driver/Src/stm32f4xx_hal_i2s_ex.c **** 
 577:Drivers/STM32F4xx_HAL_Driver/Src/stm32f4xx_hal_i2s_ex.c ****             if(hi2s->TxXferCount == 0U)
 578:Drivers/STM32F4xx_HAL_Driver/Src/stm32f4xx_hal_i2s_ex.c ****             {
 579:Drivers/STM32F4xx_HAL_Driver/Src/stm32f4xx_hal_i2s_ex.c ****               /* Disable I2Sext TXE and ERR interrupt */
 580:Drivers/STM32F4xx_HAL_Driver/Src/stm32f4xx_hal_i2s_ex.c ****               __HAL_I2SEXT_DISABLE_IT(hi2s, (I2S_IT_TXE | I2S_IT_ERR));
 581:Drivers/STM32F4xx_HAL_Driver/Src/stm32f4xx_hal_i2s_ex.c ****               if(hi2s->RxXferCount == 0U)
 582:Drivers/STM32F4xx_HAL_Driver/Src/stm32f4xx_hal_i2s_ex.c ****               {
 583:Drivers/STM32F4xx_HAL_Driver/Src/stm32f4xx_hal_i2s_ex.c ****                 /* Disable RXNE and ERR interrupt */
 584:Drivers/STM32F4xx_HAL_Driver/Src/stm32f4xx_hal_i2s_ex.c ****                 __HAL_I2S_DISABLE_IT(hi2s, (I2S_IT_RXNE| I2S_IT_ERR));
 585:Drivers/STM32F4xx_HAL_Driver/Src/stm32f4xx_hal_i2s_ex.c **** 
 586:Drivers/STM32F4xx_HAL_Driver/Src/stm32f4xx_hal_i2s_ex.c ****                 hi2s->State = HAL_I2S_STATE_READY;
 587:Drivers/STM32F4xx_HAL_Driver/Src/stm32f4xx_hal_i2s_ex.c ****                 HAL_I2SEx_TxRxCpltCallback(hi2s);
 588:Drivers/STM32F4xx_HAL_Driver/Src/stm32f4xx_hal_i2s_ex.c ****               }
 589:Drivers/STM32F4xx_HAL_Driver/Src/stm32f4xx_hal_i2s_ex.c ****             }
 590:Drivers/STM32F4xx_HAL_Driver/Src/stm32f4xx_hal_i2s_ex.c ****           }
 591:Drivers/STM32F4xx_HAL_Driver/Src/stm32f4xx_hal_i2s_ex.c ****         }
 592:Drivers/STM32F4xx_HAL_Driver/Src/stm32f4xx_hal_i2s_ex.c ****         /* Enable I2Sext(transmitter) after enabling I2Sx peripheral */
 593:Drivers/STM32F4xx_HAL_Driver/Src/stm32f4xx_hal_i2s_ex.c ****         __HAL_I2SEXT_ENABLE(hi2s);
 594:Drivers/STM32F4xx_HAL_Driver/Src/stm32f4xx_hal_i2s_ex.c **** 
 595:Drivers/STM32F4xx_HAL_Driver/Src/stm32f4xx_hal_i2s_ex.c ****         /* Enable I2S peripheral */
 596:Drivers/STM32F4xx_HAL_Driver/Src/stm32f4xx_hal_i2s_ex.c ****         __HAL_I2S_ENABLE(hi2s);
 597:Drivers/STM32F4xx_HAL_Driver/Src/stm32f4xx_hal_i2s_ex.c ****       }
 598:Drivers/STM32F4xx_HAL_Driver/Src/stm32f4xx_hal_i2s_ex.c ****     }
 599:Drivers/STM32F4xx_HAL_Driver/Src/stm32f4xx_hal_i2s_ex.c ****     /* Process Unlocked */
 600:Drivers/STM32F4xx_HAL_Driver/Src/stm32f4xx_hal_i2s_ex.c ****     __HAL_UNLOCK(hi2s);
 601:Drivers/STM32F4xx_HAL_Driver/Src/stm32f4xx_hal_i2s_ex.c **** 
ARM GAS  /tmp/ccPpxa3p.s 			page 12


 602:Drivers/STM32F4xx_HAL_Driver/Src/stm32f4xx_hal_i2s_ex.c ****     return HAL_OK;
 603:Drivers/STM32F4xx_HAL_Driver/Src/stm32f4xx_hal_i2s_ex.c ****   }
 604:Drivers/STM32F4xx_HAL_Driver/Src/stm32f4xx_hal_i2s_ex.c ****   else
 605:Drivers/STM32F4xx_HAL_Driver/Src/stm32f4xx_hal_i2s_ex.c ****   {
 606:Drivers/STM32F4xx_HAL_Driver/Src/stm32f4xx_hal_i2s_ex.c ****     return HAL_BUSY;
 607:Drivers/STM32F4xx_HAL_Driver/Src/stm32f4xx_hal_i2s_ex.c ****   }
 608:Drivers/STM32F4xx_HAL_Driver/Src/stm32f4xx_hal_i2s_ex.c **** }
 609:Drivers/STM32F4xx_HAL_Driver/Src/stm32f4xx_hal_i2s_ex.c **** 
 610:Drivers/STM32F4xx_HAL_Driver/Src/stm32f4xx_hal_i2s_ex.c **** /**
 611:Drivers/STM32F4xx_HAL_Driver/Src/stm32f4xx_hal_i2s_ex.c ****   * @brief Full-Duplex Transmit/Receive data in non-blocking mode using DMA
 612:Drivers/STM32F4xx_HAL_Driver/Src/stm32f4xx_hal_i2s_ex.c ****   * @param  hi2s pointer to a I2S_HandleTypeDef structure that contains
 613:Drivers/STM32F4xx_HAL_Driver/Src/stm32f4xx_hal_i2s_ex.c ****   *         the configuration information for I2S module
 614:Drivers/STM32F4xx_HAL_Driver/Src/stm32f4xx_hal_i2s_ex.c ****   * @param pTxData a 16-bit pointer to the Transmit data buffer.
 615:Drivers/STM32F4xx_HAL_Driver/Src/stm32f4xx_hal_i2s_ex.c ****   * @param pRxData a 16-bit pointer to the Receive data buffer.
 616:Drivers/STM32F4xx_HAL_Driver/Src/stm32f4xx_hal_i2s_ex.c ****   * @param Size number of data sample to be sent:
 617:Drivers/STM32F4xx_HAL_Driver/Src/stm32f4xx_hal_i2s_ex.c ****   * @note When a 16-bit data frame or a 16-bit data frame extended is selected during the I2S
 618:Drivers/STM32F4xx_HAL_Driver/Src/stm32f4xx_hal_i2s_ex.c ****   *       configuration phase, the Size parameter means the number of 16-bit data length
 619:Drivers/STM32F4xx_HAL_Driver/Src/stm32f4xx_hal_i2s_ex.c ****   *       in the transaction and when a 24-bit data frame or a 32-bit data frame is selected
 620:Drivers/STM32F4xx_HAL_Driver/Src/stm32f4xx_hal_i2s_ex.c ****   *       the Size parameter means the number of 16-bit data length.
 621:Drivers/STM32F4xx_HAL_Driver/Src/stm32f4xx_hal_i2s_ex.c ****   * @note The I2S is kept enabled at the end of transaction to avoid the clock de-synchronization
 622:Drivers/STM32F4xx_HAL_Driver/Src/stm32f4xx_hal_i2s_ex.c ****   *       between Master and Slave(example: audio streaming).
 623:Drivers/STM32F4xx_HAL_Driver/Src/stm32f4xx_hal_i2s_ex.c ****   * @retval HAL status
 624:Drivers/STM32F4xx_HAL_Driver/Src/stm32f4xx_hal_i2s_ex.c ****   */
 625:Drivers/STM32F4xx_HAL_Driver/Src/stm32f4xx_hal_i2s_ex.c **** HAL_StatusTypeDef HAL_I2SEx_TransmitReceive_DMA(I2S_HandleTypeDef *hi2s, uint16_t *pTxData, uint16_
 626:Drivers/STM32F4xx_HAL_Driver/Src/stm32f4xx_hal_i2s_ex.c ****                                                 uint16_t Size)
 627:Drivers/STM32F4xx_HAL_Driver/Src/stm32f4xx_hal_i2s_ex.c **** {
 628:Drivers/STM32F4xx_HAL_Driver/Src/stm32f4xx_hal_i2s_ex.c ****   uint32_t *tmp = NULL;
 629:Drivers/STM32F4xx_HAL_Driver/Src/stm32f4xx_hal_i2s_ex.c ****   uint32_t tmp1 = 0U;
 630:Drivers/STM32F4xx_HAL_Driver/Src/stm32f4xx_hal_i2s_ex.c **** 
 631:Drivers/STM32F4xx_HAL_Driver/Src/stm32f4xx_hal_i2s_ex.c ****   if((pTxData == NULL ) || (pRxData == NULL ) || (Size == 0U))
 632:Drivers/STM32F4xx_HAL_Driver/Src/stm32f4xx_hal_i2s_ex.c ****   {
 633:Drivers/STM32F4xx_HAL_Driver/Src/stm32f4xx_hal_i2s_ex.c ****     return  HAL_ERROR;
 634:Drivers/STM32F4xx_HAL_Driver/Src/stm32f4xx_hal_i2s_ex.c ****   }
 635:Drivers/STM32F4xx_HAL_Driver/Src/stm32f4xx_hal_i2s_ex.c **** 
 636:Drivers/STM32F4xx_HAL_Driver/Src/stm32f4xx_hal_i2s_ex.c ****   if(hi2s->State == HAL_I2S_STATE_READY)
 637:Drivers/STM32F4xx_HAL_Driver/Src/stm32f4xx_hal_i2s_ex.c ****   {
 638:Drivers/STM32F4xx_HAL_Driver/Src/stm32f4xx_hal_i2s_ex.c ****     hi2s->pTxBuffPtr = pTxData;
 639:Drivers/STM32F4xx_HAL_Driver/Src/stm32f4xx_hal_i2s_ex.c ****     hi2s->pRxBuffPtr = pRxData;
 640:Drivers/STM32F4xx_HAL_Driver/Src/stm32f4xx_hal_i2s_ex.c **** 
 641:Drivers/STM32F4xx_HAL_Driver/Src/stm32f4xx_hal_i2s_ex.c ****     tmp1 = hi2s->Instance->I2SCFGR & (SPI_I2SCFGR_DATLEN | SPI_I2SCFGR_CHLEN);
 642:Drivers/STM32F4xx_HAL_Driver/Src/stm32f4xx_hal_i2s_ex.c ****     /* Check the Data format: When a 16-bit data frame or a 16-bit data frame extended
 643:Drivers/STM32F4xx_HAL_Driver/Src/stm32f4xx_hal_i2s_ex.c ****     is selected during the I2S configuration phase, the Size parameter means the number
 644:Drivers/STM32F4xx_HAL_Driver/Src/stm32f4xx_hal_i2s_ex.c ****     of 16-bit data length in the transaction and when a 24-bit data frame or a 32-bit data
 645:Drivers/STM32F4xx_HAL_Driver/Src/stm32f4xx_hal_i2s_ex.c ****     frame is selected the Size parameter means the number of 16-bit data length. */
 646:Drivers/STM32F4xx_HAL_Driver/Src/stm32f4xx_hal_i2s_ex.c ****     if((tmp1 == I2S_DATAFORMAT_24B) || (tmp1 == I2S_DATAFORMAT_32B))
 647:Drivers/STM32F4xx_HAL_Driver/Src/stm32f4xx_hal_i2s_ex.c ****     {
 648:Drivers/STM32F4xx_HAL_Driver/Src/stm32f4xx_hal_i2s_ex.c ****       hi2s->TxXferSize  = (Size << 1U);
 649:Drivers/STM32F4xx_HAL_Driver/Src/stm32f4xx_hal_i2s_ex.c ****       hi2s->TxXferCount = (Size << 1U);
 650:Drivers/STM32F4xx_HAL_Driver/Src/stm32f4xx_hal_i2s_ex.c ****       hi2s->RxXferSize  = (Size << 1U);
 651:Drivers/STM32F4xx_HAL_Driver/Src/stm32f4xx_hal_i2s_ex.c ****       hi2s->RxXferCount = (Size << 1U);
 652:Drivers/STM32F4xx_HAL_Driver/Src/stm32f4xx_hal_i2s_ex.c ****     }
 653:Drivers/STM32F4xx_HAL_Driver/Src/stm32f4xx_hal_i2s_ex.c ****     else
 654:Drivers/STM32F4xx_HAL_Driver/Src/stm32f4xx_hal_i2s_ex.c ****     {
 655:Drivers/STM32F4xx_HAL_Driver/Src/stm32f4xx_hal_i2s_ex.c ****       hi2s->TxXferSize  = Size;
 656:Drivers/STM32F4xx_HAL_Driver/Src/stm32f4xx_hal_i2s_ex.c ****       hi2s->TxXferCount = Size;
 657:Drivers/STM32F4xx_HAL_Driver/Src/stm32f4xx_hal_i2s_ex.c ****       hi2s->RxXferSize  = Size;
 658:Drivers/STM32F4xx_HAL_Driver/Src/stm32f4xx_hal_i2s_ex.c ****       hi2s->RxXferCount = Size;
ARM GAS  /tmp/ccPpxa3p.s 			page 13


 659:Drivers/STM32F4xx_HAL_Driver/Src/stm32f4xx_hal_i2s_ex.c ****     }
 660:Drivers/STM32F4xx_HAL_Driver/Src/stm32f4xx_hal_i2s_ex.c **** 
 661:Drivers/STM32F4xx_HAL_Driver/Src/stm32f4xx_hal_i2s_ex.c ****     /* Process Locked */
 662:Drivers/STM32F4xx_HAL_Driver/Src/stm32f4xx_hal_i2s_ex.c ****     __HAL_LOCK(hi2s);
 663:Drivers/STM32F4xx_HAL_Driver/Src/stm32f4xx_hal_i2s_ex.c **** 
 664:Drivers/STM32F4xx_HAL_Driver/Src/stm32f4xx_hal_i2s_ex.c ****     hi2s->ErrorCode = HAL_I2S_ERROR_NONE;
 665:Drivers/STM32F4xx_HAL_Driver/Src/stm32f4xx_hal_i2s_ex.c ****     hi2s->State     = HAL_I2S_STATE_BUSY_TX_RX;
 666:Drivers/STM32F4xx_HAL_Driver/Src/stm32f4xx_hal_i2s_ex.c **** 
 667:Drivers/STM32F4xx_HAL_Driver/Src/stm32f4xx_hal_i2s_ex.c ****     /* Set the I2S Rx DMA Half transfer complete callback */
 668:Drivers/STM32F4xx_HAL_Driver/Src/stm32f4xx_hal_i2s_ex.c ****     hi2s->hdmarx->XferHalfCpltCallback = I2SEx_TxRxDMAHalfCplt;
 669:Drivers/STM32F4xx_HAL_Driver/Src/stm32f4xx_hal_i2s_ex.c **** 
 670:Drivers/STM32F4xx_HAL_Driver/Src/stm32f4xx_hal_i2s_ex.c ****     /* Set the I2S Rx DMA transfer complete callback */
 671:Drivers/STM32F4xx_HAL_Driver/Src/stm32f4xx_hal_i2s_ex.c ****     hi2s->hdmarx->XferCpltCallback  = I2SEx_TxRxDMACplt;
 672:Drivers/STM32F4xx_HAL_Driver/Src/stm32f4xx_hal_i2s_ex.c **** 
 673:Drivers/STM32F4xx_HAL_Driver/Src/stm32f4xx_hal_i2s_ex.c ****     /* Set the I2S Rx DMA error callback */
 674:Drivers/STM32F4xx_HAL_Driver/Src/stm32f4xx_hal_i2s_ex.c ****     hi2s->hdmarx->XferErrorCallback = I2SEx_TxRxDMAError;
 675:Drivers/STM32F4xx_HAL_Driver/Src/stm32f4xx_hal_i2s_ex.c **** 
 676:Drivers/STM32F4xx_HAL_Driver/Src/stm32f4xx_hal_i2s_ex.c ****     /* Set the I2S Tx DMA Half transfer complete callback */
 677:Drivers/STM32F4xx_HAL_Driver/Src/stm32f4xx_hal_i2s_ex.c ****     hi2s->hdmatx->XferHalfCpltCallback  = I2SEx_TxRxDMAHalfCplt;
 678:Drivers/STM32F4xx_HAL_Driver/Src/stm32f4xx_hal_i2s_ex.c **** 
 679:Drivers/STM32F4xx_HAL_Driver/Src/stm32f4xx_hal_i2s_ex.c ****     /* Set the I2S Tx DMA transfer complete callback */
 680:Drivers/STM32F4xx_HAL_Driver/Src/stm32f4xx_hal_i2s_ex.c ****     hi2s->hdmatx->XferCpltCallback  = I2SEx_TxRxDMACplt;
 681:Drivers/STM32F4xx_HAL_Driver/Src/stm32f4xx_hal_i2s_ex.c **** 
 682:Drivers/STM32F4xx_HAL_Driver/Src/stm32f4xx_hal_i2s_ex.c ****     /* Set the I2S Tx DMA error callback */
 683:Drivers/STM32F4xx_HAL_Driver/Src/stm32f4xx_hal_i2s_ex.c ****     hi2s->hdmatx->XferErrorCallback = I2SEx_TxRxDMAError;
 684:Drivers/STM32F4xx_HAL_Driver/Src/stm32f4xx_hal_i2s_ex.c **** 
 685:Drivers/STM32F4xx_HAL_Driver/Src/stm32f4xx_hal_i2s_ex.c ****     tmp1 = hi2s->Instance->I2SCFGR & SPI_I2SCFGR_I2SCFG;
 686:Drivers/STM32F4xx_HAL_Driver/Src/stm32f4xx_hal_i2s_ex.c ****     /* Check if the I2S_MODE_MASTER_TX or I2S_MODE_SLAVE_TX Mode is selected */
 687:Drivers/STM32F4xx_HAL_Driver/Src/stm32f4xx_hal_i2s_ex.c ****     if((tmp1 == I2S_MODE_MASTER_TX) || (tmp1 == I2S_MODE_SLAVE_TX))
 688:Drivers/STM32F4xx_HAL_Driver/Src/stm32f4xx_hal_i2s_ex.c ****     {
 689:Drivers/STM32F4xx_HAL_Driver/Src/stm32f4xx_hal_i2s_ex.c ****       /* Enable the Rx DMA Stream */
 690:Drivers/STM32F4xx_HAL_Driver/Src/stm32f4xx_hal_i2s_ex.c ****       tmp = (uint32_t*)&pRxData;
 691:Drivers/STM32F4xx_HAL_Driver/Src/stm32f4xx_hal_i2s_ex.c ****       HAL_DMA_Start_IT(hi2s->hdmarx, (uint32_t)&I2SxEXT(hi2s->Instance)->DR, *(uint32_t*)tmp, hi2s-
 692:Drivers/STM32F4xx_HAL_Driver/Src/stm32f4xx_hal_i2s_ex.c **** 
 693:Drivers/STM32F4xx_HAL_Driver/Src/stm32f4xx_hal_i2s_ex.c ****       /* Enable Rx DMA Request */
 694:Drivers/STM32F4xx_HAL_Driver/Src/stm32f4xx_hal_i2s_ex.c ****       SET_BIT(I2SxEXT(hi2s->Instance)->CR2,SPI_CR2_RXDMAEN);
 695:Drivers/STM32F4xx_HAL_Driver/Src/stm32f4xx_hal_i2s_ex.c **** 
 696:Drivers/STM32F4xx_HAL_Driver/Src/stm32f4xx_hal_i2s_ex.c ****       /* Enable the Tx DMA Stream */
 697:Drivers/STM32F4xx_HAL_Driver/Src/stm32f4xx_hal_i2s_ex.c ****       tmp = (uint32_t*)&pTxData;
 698:Drivers/STM32F4xx_HAL_Driver/Src/stm32f4xx_hal_i2s_ex.c ****       HAL_DMA_Start_IT(hi2s->hdmatx, *(uint32_t*)tmp, (uint32_t)&hi2s->Instance->DR, hi2s->TxXferSi
 699:Drivers/STM32F4xx_HAL_Driver/Src/stm32f4xx_hal_i2s_ex.c **** 
 700:Drivers/STM32F4xx_HAL_Driver/Src/stm32f4xx_hal_i2s_ex.c ****       /* Enable Tx DMA Request */
 701:Drivers/STM32F4xx_HAL_Driver/Src/stm32f4xx_hal_i2s_ex.c ****       SET_BIT(hi2s->Instance->CR2,SPI_CR2_TXDMAEN);
 702:Drivers/STM32F4xx_HAL_Driver/Src/stm32f4xx_hal_i2s_ex.c **** 
 703:Drivers/STM32F4xx_HAL_Driver/Src/stm32f4xx_hal_i2s_ex.c ****       /* Check if the I2S is already enabled */
 704:Drivers/STM32F4xx_HAL_Driver/Src/stm32f4xx_hal_i2s_ex.c ****       if((hi2s->Instance->I2SCFGR &SPI_I2SCFGR_I2SE) != SPI_I2SCFGR_I2SE)
 705:Drivers/STM32F4xx_HAL_Driver/Src/stm32f4xx_hal_i2s_ex.c ****       {
 706:Drivers/STM32F4xx_HAL_Driver/Src/stm32f4xx_hal_i2s_ex.c ****         /* Enable I2Sext(receiver) before enabling I2Sx peripheral */
 707:Drivers/STM32F4xx_HAL_Driver/Src/stm32f4xx_hal_i2s_ex.c ****         __HAL_I2SEXT_ENABLE(hi2s);
 708:Drivers/STM32F4xx_HAL_Driver/Src/stm32f4xx_hal_i2s_ex.c **** 
 709:Drivers/STM32F4xx_HAL_Driver/Src/stm32f4xx_hal_i2s_ex.c ****         /* Enable I2S peripheral after the I2Sext */
 710:Drivers/STM32F4xx_HAL_Driver/Src/stm32f4xx_hal_i2s_ex.c ****         __HAL_I2S_ENABLE(hi2s);
 711:Drivers/STM32F4xx_HAL_Driver/Src/stm32f4xx_hal_i2s_ex.c ****       }
 712:Drivers/STM32F4xx_HAL_Driver/Src/stm32f4xx_hal_i2s_ex.c ****     }
 713:Drivers/STM32F4xx_HAL_Driver/Src/stm32f4xx_hal_i2s_ex.c ****     else
 714:Drivers/STM32F4xx_HAL_Driver/Src/stm32f4xx_hal_i2s_ex.c ****     {
 715:Drivers/STM32F4xx_HAL_Driver/Src/stm32f4xx_hal_i2s_ex.c ****       /* Check if Master Receiver mode is selected */
ARM GAS  /tmp/ccPpxa3p.s 			page 14


 716:Drivers/STM32F4xx_HAL_Driver/Src/stm32f4xx_hal_i2s_ex.c ****       if((hi2s->Instance->I2SCFGR & SPI_I2SCFGR_I2SCFG) == I2S_MODE_MASTER_RX)
 717:Drivers/STM32F4xx_HAL_Driver/Src/stm32f4xx_hal_i2s_ex.c ****       {
 718:Drivers/STM32F4xx_HAL_Driver/Src/stm32f4xx_hal_i2s_ex.c ****         /* Clear the Overrun Flag by a read operation on the SPI_DR register followed by a read
 719:Drivers/STM32F4xx_HAL_Driver/Src/stm32f4xx_hal_i2s_ex.c ****         access to the SPI_SR register. */
 720:Drivers/STM32F4xx_HAL_Driver/Src/stm32f4xx_hal_i2s_ex.c ****         __HAL_I2S_CLEAR_OVRFLAG(hi2s);
 721:Drivers/STM32F4xx_HAL_Driver/Src/stm32f4xx_hal_i2s_ex.c ****       }
 722:Drivers/STM32F4xx_HAL_Driver/Src/stm32f4xx_hal_i2s_ex.c ****       /* Enable the Tx DMA Stream */
 723:Drivers/STM32F4xx_HAL_Driver/Src/stm32f4xx_hal_i2s_ex.c ****       tmp = (uint32_t*)&pTxData;
 724:Drivers/STM32F4xx_HAL_Driver/Src/stm32f4xx_hal_i2s_ex.c ****       HAL_DMA_Start_IT(hi2s->hdmatx, *(uint32_t*)tmp, (uint32_t)&I2SxEXT(hi2s->Instance)->DR, hi2s-
 725:Drivers/STM32F4xx_HAL_Driver/Src/stm32f4xx_hal_i2s_ex.c **** 
 726:Drivers/STM32F4xx_HAL_Driver/Src/stm32f4xx_hal_i2s_ex.c ****       /* Enable Tx DMA Request */
 727:Drivers/STM32F4xx_HAL_Driver/Src/stm32f4xx_hal_i2s_ex.c ****       SET_BIT(I2SxEXT(hi2s->Instance)->CR2,SPI_CR2_TXDMAEN);
 728:Drivers/STM32F4xx_HAL_Driver/Src/stm32f4xx_hal_i2s_ex.c **** 
 729:Drivers/STM32F4xx_HAL_Driver/Src/stm32f4xx_hal_i2s_ex.c ****       /* Enable the Rx DMA Stream */
 730:Drivers/STM32F4xx_HAL_Driver/Src/stm32f4xx_hal_i2s_ex.c ****       tmp = (uint32_t*)&pRxData;
 731:Drivers/STM32F4xx_HAL_Driver/Src/stm32f4xx_hal_i2s_ex.c ****       HAL_DMA_Start_IT(hi2s->hdmarx, (uint32_t)&hi2s->Instance->DR, *(uint32_t*)tmp, hi2s->RxXferSi
 732:Drivers/STM32F4xx_HAL_Driver/Src/stm32f4xx_hal_i2s_ex.c **** 
 733:Drivers/STM32F4xx_HAL_Driver/Src/stm32f4xx_hal_i2s_ex.c ****       /* Enable Rx DMA Request */
 734:Drivers/STM32F4xx_HAL_Driver/Src/stm32f4xx_hal_i2s_ex.c ****       SET_BIT(hi2s->Instance->CR2,SPI_CR2_RXDMAEN);
 735:Drivers/STM32F4xx_HAL_Driver/Src/stm32f4xx_hal_i2s_ex.c **** 
 736:Drivers/STM32F4xx_HAL_Driver/Src/stm32f4xx_hal_i2s_ex.c ****       /* Check if the I2S is already enabled */
 737:Drivers/STM32F4xx_HAL_Driver/Src/stm32f4xx_hal_i2s_ex.c ****       if((hi2s->Instance->I2SCFGR &SPI_I2SCFGR_I2SE) != SPI_I2SCFGR_I2SE)
 738:Drivers/STM32F4xx_HAL_Driver/Src/stm32f4xx_hal_i2s_ex.c ****       {
 739:Drivers/STM32F4xx_HAL_Driver/Src/stm32f4xx_hal_i2s_ex.c ****         /* Enable I2Sext(transmitter) before enabling I2Sx peripheral */
 740:Drivers/STM32F4xx_HAL_Driver/Src/stm32f4xx_hal_i2s_ex.c ****         __HAL_I2SEXT_ENABLE(hi2s);
 741:Drivers/STM32F4xx_HAL_Driver/Src/stm32f4xx_hal_i2s_ex.c ****         /* Enable I2S peripheral before the I2Sext */
 742:Drivers/STM32F4xx_HAL_Driver/Src/stm32f4xx_hal_i2s_ex.c ****         __HAL_I2S_ENABLE(hi2s);
 743:Drivers/STM32F4xx_HAL_Driver/Src/stm32f4xx_hal_i2s_ex.c ****       }
 744:Drivers/STM32F4xx_HAL_Driver/Src/stm32f4xx_hal_i2s_ex.c ****     }
 745:Drivers/STM32F4xx_HAL_Driver/Src/stm32f4xx_hal_i2s_ex.c **** 
 746:Drivers/STM32F4xx_HAL_Driver/Src/stm32f4xx_hal_i2s_ex.c ****     /* Process Unlocked */
 747:Drivers/STM32F4xx_HAL_Driver/Src/stm32f4xx_hal_i2s_ex.c ****     __HAL_UNLOCK(hi2s);
 748:Drivers/STM32F4xx_HAL_Driver/Src/stm32f4xx_hal_i2s_ex.c **** 
 749:Drivers/STM32F4xx_HAL_Driver/Src/stm32f4xx_hal_i2s_ex.c ****     return HAL_OK;
 750:Drivers/STM32F4xx_HAL_Driver/Src/stm32f4xx_hal_i2s_ex.c ****   }
 751:Drivers/STM32F4xx_HAL_Driver/Src/stm32f4xx_hal_i2s_ex.c ****   else
 752:Drivers/STM32F4xx_HAL_Driver/Src/stm32f4xx_hal_i2s_ex.c ****   {
 753:Drivers/STM32F4xx_HAL_Driver/Src/stm32f4xx_hal_i2s_ex.c ****     return HAL_BUSY;
 754:Drivers/STM32F4xx_HAL_Driver/Src/stm32f4xx_hal_i2s_ex.c ****   }
 755:Drivers/STM32F4xx_HAL_Driver/Src/stm32f4xx_hal_i2s_ex.c **** }
 756:Drivers/STM32F4xx_HAL_Driver/Src/stm32f4xx_hal_i2s_ex.c **** 
 757:Drivers/STM32F4xx_HAL_Driver/Src/stm32f4xx_hal_i2s_ex.c **** /**
 758:Drivers/STM32F4xx_HAL_Driver/Src/stm32f4xx_hal_i2s_ex.c ****   * @brief  This function handles I2S/I2Sext interrupt requests in full-duplex mode.
 759:Drivers/STM32F4xx_HAL_Driver/Src/stm32f4xx_hal_i2s_ex.c ****   * @param  hi2s I2S handle
 760:Drivers/STM32F4xx_HAL_Driver/Src/stm32f4xx_hal_i2s_ex.c ****   * @retval HAL status
 761:Drivers/STM32F4xx_HAL_Driver/Src/stm32f4xx_hal_i2s_ex.c ****   */
 762:Drivers/STM32F4xx_HAL_Driver/Src/stm32f4xx_hal_i2s_ex.c **** void HAL_I2SEx_FullDuplex_IRQHandler(I2S_HandleTypeDef *hi2s)
 763:Drivers/STM32F4xx_HAL_Driver/Src/stm32f4xx_hal_i2s_ex.c **** {
 764:Drivers/STM32F4xx_HAL_Driver/Src/stm32f4xx_hal_i2s_ex.c ****   __IO uint32_t i2ssr    = hi2s->Instance->SR ;
 765:Drivers/STM32F4xx_HAL_Driver/Src/stm32f4xx_hal_i2s_ex.c ****   __IO uint32_t i2sextsr = I2SxEXT(hi2s->Instance)->SR;
 766:Drivers/STM32F4xx_HAL_Driver/Src/stm32f4xx_hal_i2s_ex.c **** 
 767:Drivers/STM32F4xx_HAL_Driver/Src/stm32f4xx_hal_i2s_ex.c ****   /* Check if the I2S_MODE_MASTER_TX or I2S_MODE_SLAVE_TX Mode is selected */
 768:Drivers/STM32F4xx_HAL_Driver/Src/stm32f4xx_hal_i2s_ex.c ****   if (((hi2s->Instance->I2SCFGR & SPI_I2SCFGR_I2SCFG) == I2S_MODE_MASTER_TX)
 769:Drivers/STM32F4xx_HAL_Driver/Src/stm32f4xx_hal_i2s_ex.c ****       || ((hi2s->Instance->I2SCFGR & SPI_I2SCFGR_I2SCFG) == I2S_MODE_SLAVE_TX))
 770:Drivers/STM32F4xx_HAL_Driver/Src/stm32f4xx_hal_i2s_ex.c ****   {
 771:Drivers/STM32F4xx_HAL_Driver/Src/stm32f4xx_hal_i2s_ex.c ****     /* I2S in mode Transmitter -------------------------------------------------*/
 772:Drivers/STM32F4xx_HAL_Driver/Src/stm32f4xx_hal_i2s_ex.c ****     if(((i2ssr & I2S_FLAG_TXE) == I2S_FLAG_TXE) && (__HAL_I2S_GET_IT_SOURCE(hi2s, I2S_IT_TXE) != RE
ARM GAS  /tmp/ccPpxa3p.s 			page 15


 773:Drivers/STM32F4xx_HAL_Driver/Src/stm32f4xx_hal_i2s_ex.c ****     {
 774:Drivers/STM32F4xx_HAL_Driver/Src/stm32f4xx_hal_i2s_ex.c ****       /* When the I2S mode is configured as I2S_MODE_MASTER_TX or I2S_MODE_SLAVE_TX,
 775:Drivers/STM32F4xx_HAL_Driver/Src/stm32f4xx_hal_i2s_ex.c ****       the I2S TXE interrupt will be generated to manage the full-duplex transmit phase. */
 776:Drivers/STM32F4xx_HAL_Driver/Src/stm32f4xx_hal_i2s_ex.c ****       I2SEx_FullDuplexTx_IT(hi2s, I2S_USE_I2S);
 777:Drivers/STM32F4xx_HAL_Driver/Src/stm32f4xx_hal_i2s_ex.c ****     }
 778:Drivers/STM32F4xx_HAL_Driver/Src/stm32f4xx_hal_i2s_ex.c **** 
 779:Drivers/STM32F4xx_HAL_Driver/Src/stm32f4xx_hal_i2s_ex.c ****     /* I2Sext in mode Receiver -----------------------------------------------*/
 780:Drivers/STM32F4xx_HAL_Driver/Src/stm32f4xx_hal_i2s_ex.c ****     if(((i2sextsr & I2S_FLAG_RXNE) == I2S_FLAG_RXNE) && (__HAL_I2SEXT_GET_IT_SOURCE(hi2s, I2S_IT_RX
 781:Drivers/STM32F4xx_HAL_Driver/Src/stm32f4xx_hal_i2s_ex.c ****     {
 782:Drivers/STM32F4xx_HAL_Driver/Src/stm32f4xx_hal_i2s_ex.c ****       /* When the I2S mode is configured as I2S_MODE_MASTER_TX or I2S_MODE_SLAVE_TX,
 783:Drivers/STM32F4xx_HAL_Driver/Src/stm32f4xx_hal_i2s_ex.c ****       the I2Sext RXNE interrupt will be generated to manage the full-duplex receive phase. */
 784:Drivers/STM32F4xx_HAL_Driver/Src/stm32f4xx_hal_i2s_ex.c ****       I2SEx_FullDuplexRx_IT(hi2s, I2S_USE_I2SEXT);
 785:Drivers/STM32F4xx_HAL_Driver/Src/stm32f4xx_hal_i2s_ex.c ****     }
 786:Drivers/STM32F4xx_HAL_Driver/Src/stm32f4xx_hal_i2s_ex.c **** 
 787:Drivers/STM32F4xx_HAL_Driver/Src/stm32f4xx_hal_i2s_ex.c ****     /* I2Sext Overrun error interrupt occured --------------------------------*/
 788:Drivers/STM32F4xx_HAL_Driver/Src/stm32f4xx_hal_i2s_ex.c ****     if(((i2sextsr & I2S_FLAG_OVR) == I2S_FLAG_OVR) && (__HAL_I2SEXT_GET_IT_SOURCE(hi2s, I2S_IT_ERR)
 789:Drivers/STM32F4xx_HAL_Driver/Src/stm32f4xx_hal_i2s_ex.c ****     {
 790:Drivers/STM32F4xx_HAL_Driver/Src/stm32f4xx_hal_i2s_ex.c ****       /* Disable RXNE and ERR interrupt */
 791:Drivers/STM32F4xx_HAL_Driver/Src/stm32f4xx_hal_i2s_ex.c ****       __HAL_I2SEXT_DISABLE_IT(hi2s, (I2S_IT_RXNE | I2S_IT_ERR));
 792:Drivers/STM32F4xx_HAL_Driver/Src/stm32f4xx_hal_i2s_ex.c **** 
 793:Drivers/STM32F4xx_HAL_Driver/Src/stm32f4xx_hal_i2s_ex.c ****       /* Disable TXE and ERR interrupt */
 794:Drivers/STM32F4xx_HAL_Driver/Src/stm32f4xx_hal_i2s_ex.c ****       __HAL_I2S_DISABLE_IT(hi2s, (I2S_IT_TXE | I2S_IT_ERR));
 795:Drivers/STM32F4xx_HAL_Driver/Src/stm32f4xx_hal_i2s_ex.c **** 
 796:Drivers/STM32F4xx_HAL_Driver/Src/stm32f4xx_hal_i2s_ex.c ****       /* Clear Overrun flag */
 797:Drivers/STM32F4xx_HAL_Driver/Src/stm32f4xx_hal_i2s_ex.c ****       __HAL_I2S_CLEAR_OVRFLAG(hi2s);
 798:Drivers/STM32F4xx_HAL_Driver/Src/stm32f4xx_hal_i2s_ex.c **** 
 799:Drivers/STM32F4xx_HAL_Driver/Src/stm32f4xx_hal_i2s_ex.c ****       /* Set the I2S State ready */
 800:Drivers/STM32F4xx_HAL_Driver/Src/stm32f4xx_hal_i2s_ex.c ****       hi2s->State = HAL_I2S_STATE_READY;
 801:Drivers/STM32F4xx_HAL_Driver/Src/stm32f4xx_hal_i2s_ex.c **** 
 802:Drivers/STM32F4xx_HAL_Driver/Src/stm32f4xx_hal_i2s_ex.c ****       /* Set the error code and execute error callback*/
 803:Drivers/STM32F4xx_HAL_Driver/Src/stm32f4xx_hal_i2s_ex.c ****       SET_BIT(hi2s->ErrorCode,HAL_I2S_ERROR_OVR);
 804:Drivers/STM32F4xx_HAL_Driver/Src/stm32f4xx_hal_i2s_ex.c ****       HAL_I2S_ErrorCallback(hi2s);
 805:Drivers/STM32F4xx_HAL_Driver/Src/stm32f4xx_hal_i2s_ex.c ****     }
 806:Drivers/STM32F4xx_HAL_Driver/Src/stm32f4xx_hal_i2s_ex.c **** 
 807:Drivers/STM32F4xx_HAL_Driver/Src/stm32f4xx_hal_i2s_ex.c ****     /* I2S Underrun error interrupt occured ----------------------------------*/
 808:Drivers/STM32F4xx_HAL_Driver/Src/stm32f4xx_hal_i2s_ex.c ****     if(((i2ssr & I2S_FLAG_UDR) == I2S_FLAG_UDR) && (__HAL_I2S_GET_IT_SOURCE(hi2s, I2S_IT_ERR) != RE
 809:Drivers/STM32F4xx_HAL_Driver/Src/stm32f4xx_hal_i2s_ex.c ****     {
 810:Drivers/STM32F4xx_HAL_Driver/Src/stm32f4xx_hal_i2s_ex.c ****       /* Disable TXE and ERR interrupt */
 811:Drivers/STM32F4xx_HAL_Driver/Src/stm32f4xx_hal_i2s_ex.c ****       __HAL_I2S_DISABLE_IT(hi2s, (I2S_IT_TXE | I2S_IT_ERR));
 812:Drivers/STM32F4xx_HAL_Driver/Src/stm32f4xx_hal_i2s_ex.c **** 
 813:Drivers/STM32F4xx_HAL_Driver/Src/stm32f4xx_hal_i2s_ex.c ****       /* Disable RXNE and ERR interrupt */
 814:Drivers/STM32F4xx_HAL_Driver/Src/stm32f4xx_hal_i2s_ex.c ****       __HAL_I2SEXT_DISABLE_IT(hi2s, (I2S_IT_RXNE | I2S_IT_ERR));
 815:Drivers/STM32F4xx_HAL_Driver/Src/stm32f4xx_hal_i2s_ex.c **** 
 816:Drivers/STM32F4xx_HAL_Driver/Src/stm32f4xx_hal_i2s_ex.c ****       /* Clear underrun flag */
 817:Drivers/STM32F4xx_HAL_Driver/Src/stm32f4xx_hal_i2s_ex.c ****       __HAL_I2S_CLEAR_UDRFLAG(hi2s);
 818:Drivers/STM32F4xx_HAL_Driver/Src/stm32f4xx_hal_i2s_ex.c **** 
 819:Drivers/STM32F4xx_HAL_Driver/Src/stm32f4xx_hal_i2s_ex.c ****       /* Set the I2S State ready */
 820:Drivers/STM32F4xx_HAL_Driver/Src/stm32f4xx_hal_i2s_ex.c ****       hi2s->State = HAL_I2S_STATE_READY;
 821:Drivers/STM32F4xx_HAL_Driver/Src/stm32f4xx_hal_i2s_ex.c **** 
 822:Drivers/STM32F4xx_HAL_Driver/Src/stm32f4xx_hal_i2s_ex.c ****       /* Set the error code and execute error callback*/
 823:Drivers/STM32F4xx_HAL_Driver/Src/stm32f4xx_hal_i2s_ex.c ****       SET_BIT(hi2s->ErrorCode,HAL_I2S_ERROR_UDR);
 824:Drivers/STM32F4xx_HAL_Driver/Src/stm32f4xx_hal_i2s_ex.c ****       HAL_I2S_ErrorCallback(hi2s);
 825:Drivers/STM32F4xx_HAL_Driver/Src/stm32f4xx_hal_i2s_ex.c ****     }
 826:Drivers/STM32F4xx_HAL_Driver/Src/stm32f4xx_hal_i2s_ex.c ****   }
 827:Drivers/STM32F4xx_HAL_Driver/Src/stm32f4xx_hal_i2s_ex.c ****   /* The I2S_MODE_MASTER_RX or I2S_MODE_SLAVE_RX Mode is selected */
 828:Drivers/STM32F4xx_HAL_Driver/Src/stm32f4xx_hal_i2s_ex.c ****   else
 829:Drivers/STM32F4xx_HAL_Driver/Src/stm32f4xx_hal_i2s_ex.c ****   {
ARM GAS  /tmp/ccPpxa3p.s 			page 16


 830:Drivers/STM32F4xx_HAL_Driver/Src/stm32f4xx_hal_i2s_ex.c ****     /* I2Sext in mode Transmitter ----------------------------------------------*/
 831:Drivers/STM32F4xx_HAL_Driver/Src/stm32f4xx_hal_i2s_ex.c ****     if(((i2sextsr & I2S_FLAG_TXE) == I2S_FLAG_TXE) && (__HAL_I2SEXT_GET_IT_SOURCE(hi2s, I2S_IT_TXE)
 832:Drivers/STM32F4xx_HAL_Driver/Src/stm32f4xx_hal_i2s_ex.c ****     {
 833:Drivers/STM32F4xx_HAL_Driver/Src/stm32f4xx_hal_i2s_ex.c ****       /* When the I2S mode is configured as I2S_MODE_MASTER_RX or I2S_MODE_SLAVE_RX,
 834:Drivers/STM32F4xx_HAL_Driver/Src/stm32f4xx_hal_i2s_ex.c ****       the I2Sext TXE interrupt will be generated to manage the full-duplex transmit phase. */
 835:Drivers/STM32F4xx_HAL_Driver/Src/stm32f4xx_hal_i2s_ex.c ****       I2SEx_FullDuplexTx_IT(hi2s, I2S_USE_I2SEXT);
 836:Drivers/STM32F4xx_HAL_Driver/Src/stm32f4xx_hal_i2s_ex.c ****     }
 837:Drivers/STM32F4xx_HAL_Driver/Src/stm32f4xx_hal_i2s_ex.c **** 
 838:Drivers/STM32F4xx_HAL_Driver/Src/stm32f4xx_hal_i2s_ex.c ****     /* I2S in mode Receiver --------------------------------------------------*/
 839:Drivers/STM32F4xx_HAL_Driver/Src/stm32f4xx_hal_i2s_ex.c ****     if(((i2ssr & I2S_FLAG_RXNE) == I2S_FLAG_RXNE) && (__HAL_I2S_GET_IT_SOURCE(hi2s, I2S_IT_RXNE) !=
 840:Drivers/STM32F4xx_HAL_Driver/Src/stm32f4xx_hal_i2s_ex.c ****     {
 841:Drivers/STM32F4xx_HAL_Driver/Src/stm32f4xx_hal_i2s_ex.c ****       /* When the I2S mode is configured as I2S_MODE_MASTER_RX or I2S_MODE_SLAVE_RX,
 842:Drivers/STM32F4xx_HAL_Driver/Src/stm32f4xx_hal_i2s_ex.c ****       the I2S RXNE interrupt will be generated to manage the full-duplex receive phase. */
 843:Drivers/STM32F4xx_HAL_Driver/Src/stm32f4xx_hal_i2s_ex.c ****       I2SEx_FullDuplexRx_IT(hi2s, I2S_USE_I2S);
 844:Drivers/STM32F4xx_HAL_Driver/Src/stm32f4xx_hal_i2s_ex.c ****     }
 845:Drivers/STM32F4xx_HAL_Driver/Src/stm32f4xx_hal_i2s_ex.c **** 
 846:Drivers/STM32F4xx_HAL_Driver/Src/stm32f4xx_hal_i2s_ex.c ****     /* I2S Overrun error interrupt occured -------------------------------------*/
 847:Drivers/STM32F4xx_HAL_Driver/Src/stm32f4xx_hal_i2s_ex.c ****     if(((i2ssr & I2S_FLAG_OVR) == I2S_FLAG_OVR) && (__HAL_I2S_GET_IT_SOURCE(hi2s, I2S_IT_ERR) != RE
 848:Drivers/STM32F4xx_HAL_Driver/Src/stm32f4xx_hal_i2s_ex.c ****     {
 849:Drivers/STM32F4xx_HAL_Driver/Src/stm32f4xx_hal_i2s_ex.c ****       /* Disable RXNE and ERR interrupt */
 850:Drivers/STM32F4xx_HAL_Driver/Src/stm32f4xx_hal_i2s_ex.c ****       __HAL_I2S_DISABLE_IT(hi2s, (I2S_IT_RXNE | I2S_IT_ERR));
 851:Drivers/STM32F4xx_HAL_Driver/Src/stm32f4xx_hal_i2s_ex.c **** 
 852:Drivers/STM32F4xx_HAL_Driver/Src/stm32f4xx_hal_i2s_ex.c ****       /* Disable TXE and ERR interrupt */
 853:Drivers/STM32F4xx_HAL_Driver/Src/stm32f4xx_hal_i2s_ex.c ****       __HAL_I2SEXT_DISABLE_IT(hi2s, (I2S_IT_TXE | I2S_IT_ERR));
 854:Drivers/STM32F4xx_HAL_Driver/Src/stm32f4xx_hal_i2s_ex.c **** 
 855:Drivers/STM32F4xx_HAL_Driver/Src/stm32f4xx_hal_i2s_ex.c ****       /* Set the I2S State ready */
 856:Drivers/STM32F4xx_HAL_Driver/Src/stm32f4xx_hal_i2s_ex.c ****       hi2s->State = HAL_I2S_STATE_READY;
 857:Drivers/STM32F4xx_HAL_Driver/Src/stm32f4xx_hal_i2s_ex.c **** 
 858:Drivers/STM32F4xx_HAL_Driver/Src/stm32f4xx_hal_i2s_ex.c ****       /* Set the error code and execute error callback*/
 859:Drivers/STM32F4xx_HAL_Driver/Src/stm32f4xx_hal_i2s_ex.c ****       SET_BIT(hi2s->ErrorCode,HAL_I2S_ERROR_OVR);
 860:Drivers/STM32F4xx_HAL_Driver/Src/stm32f4xx_hal_i2s_ex.c ****       HAL_I2S_ErrorCallback(hi2s);
 861:Drivers/STM32F4xx_HAL_Driver/Src/stm32f4xx_hal_i2s_ex.c ****     }
 862:Drivers/STM32F4xx_HAL_Driver/Src/stm32f4xx_hal_i2s_ex.c **** 
 863:Drivers/STM32F4xx_HAL_Driver/Src/stm32f4xx_hal_i2s_ex.c ****     /* I2Sext Underrun error interrupt occured -------------------------------*/
 864:Drivers/STM32F4xx_HAL_Driver/Src/stm32f4xx_hal_i2s_ex.c ****     if(((i2sextsr & I2S_FLAG_UDR) == I2S_FLAG_UDR) && (__HAL_I2SEXT_GET_IT_SOURCE(hi2s, I2S_IT_ERR)
 865:Drivers/STM32F4xx_HAL_Driver/Src/stm32f4xx_hal_i2s_ex.c ****     {
 866:Drivers/STM32F4xx_HAL_Driver/Src/stm32f4xx_hal_i2s_ex.c ****       /* Disable TXE and ERR interrupt */
 867:Drivers/STM32F4xx_HAL_Driver/Src/stm32f4xx_hal_i2s_ex.c ****       __HAL_I2SEXT_DISABLE_IT(hi2s, (I2S_IT_TXE | I2S_IT_ERR));
 868:Drivers/STM32F4xx_HAL_Driver/Src/stm32f4xx_hal_i2s_ex.c **** 
 869:Drivers/STM32F4xx_HAL_Driver/Src/stm32f4xx_hal_i2s_ex.c ****       /* Disable RXNE and ERR interrupt */
 870:Drivers/STM32F4xx_HAL_Driver/Src/stm32f4xx_hal_i2s_ex.c ****       __HAL_I2S_DISABLE_IT(hi2s, (I2S_IT_RXNE | I2S_IT_ERR));
 871:Drivers/STM32F4xx_HAL_Driver/Src/stm32f4xx_hal_i2s_ex.c **** 
 872:Drivers/STM32F4xx_HAL_Driver/Src/stm32f4xx_hal_i2s_ex.c ****       /* Set the I2S State ready */
 873:Drivers/STM32F4xx_HAL_Driver/Src/stm32f4xx_hal_i2s_ex.c ****       hi2s->State = HAL_I2S_STATE_READY;
 874:Drivers/STM32F4xx_HAL_Driver/Src/stm32f4xx_hal_i2s_ex.c **** 
 875:Drivers/STM32F4xx_HAL_Driver/Src/stm32f4xx_hal_i2s_ex.c ****       /* Set the error code and execute error callback*/
 876:Drivers/STM32F4xx_HAL_Driver/Src/stm32f4xx_hal_i2s_ex.c ****       SET_BIT(hi2s->ErrorCode,HAL_I2S_ERROR_UDR);
 877:Drivers/STM32F4xx_HAL_Driver/Src/stm32f4xx_hal_i2s_ex.c ****       HAL_I2S_ErrorCallback(hi2s);
 878:Drivers/STM32F4xx_HAL_Driver/Src/stm32f4xx_hal_i2s_ex.c ****     }
 879:Drivers/STM32F4xx_HAL_Driver/Src/stm32f4xx_hal_i2s_ex.c ****   }
 880:Drivers/STM32F4xx_HAL_Driver/Src/stm32f4xx_hal_i2s_ex.c **** }
 881:Drivers/STM32F4xx_HAL_Driver/Src/stm32f4xx_hal_i2s_ex.c **** 
 882:Drivers/STM32F4xx_HAL_Driver/Src/stm32f4xx_hal_i2s_ex.c **** /**
 883:Drivers/STM32F4xx_HAL_Driver/Src/stm32f4xx_hal_i2s_ex.c ****   * @brief Tx and Rx Transfer half completed callback
 884:Drivers/STM32F4xx_HAL_Driver/Src/stm32f4xx_hal_i2s_ex.c ****   * @param hi2s I2S handle
 885:Drivers/STM32F4xx_HAL_Driver/Src/stm32f4xx_hal_i2s_ex.c ****   * @retval None
 886:Drivers/STM32F4xx_HAL_Driver/Src/stm32f4xx_hal_i2s_ex.c ****   */
ARM GAS  /tmp/ccPpxa3p.s 			page 17


 887:Drivers/STM32F4xx_HAL_Driver/Src/stm32f4xx_hal_i2s_ex.c **** __weak void HAL_I2SEx_TxRxHalfCpltCallback(I2S_HandleTypeDef *hi2s)
 888:Drivers/STM32F4xx_HAL_Driver/Src/stm32f4xx_hal_i2s_ex.c **** {
 889:Drivers/STM32F4xx_HAL_Driver/Src/stm32f4xx_hal_i2s_ex.c ****   /* Prevent unused argument(s) compilation warning */
 890:Drivers/STM32F4xx_HAL_Driver/Src/stm32f4xx_hal_i2s_ex.c ****   UNUSED(hi2s);
 891:Drivers/STM32F4xx_HAL_Driver/Src/stm32f4xx_hal_i2s_ex.c **** 
 892:Drivers/STM32F4xx_HAL_Driver/Src/stm32f4xx_hal_i2s_ex.c ****   /* NOTE : This function Should not be modified, when the callback is needed,
 893:Drivers/STM32F4xx_HAL_Driver/Src/stm32f4xx_hal_i2s_ex.c ****             the HAL_I2SEx_TxRxHalfCpltCallback could be implemented in the user file
 894:Drivers/STM32F4xx_HAL_Driver/Src/stm32f4xx_hal_i2s_ex.c ****    */
 895:Drivers/STM32F4xx_HAL_Driver/Src/stm32f4xx_hal_i2s_ex.c **** }
 896:Drivers/STM32F4xx_HAL_Driver/Src/stm32f4xx_hal_i2s_ex.c **** 
 897:Drivers/STM32F4xx_HAL_Driver/Src/stm32f4xx_hal_i2s_ex.c **** /**
 898:Drivers/STM32F4xx_HAL_Driver/Src/stm32f4xx_hal_i2s_ex.c ****   * @brief Tx and Rx Transfer completed callback
 899:Drivers/STM32F4xx_HAL_Driver/Src/stm32f4xx_hal_i2s_ex.c ****   * @param hi2s I2S handle
 900:Drivers/STM32F4xx_HAL_Driver/Src/stm32f4xx_hal_i2s_ex.c ****   * @retval None
 901:Drivers/STM32F4xx_HAL_Driver/Src/stm32f4xx_hal_i2s_ex.c ****   */
 902:Drivers/STM32F4xx_HAL_Driver/Src/stm32f4xx_hal_i2s_ex.c **** __weak void HAL_I2SEx_TxRxCpltCallback(I2S_HandleTypeDef *hi2s)
 903:Drivers/STM32F4xx_HAL_Driver/Src/stm32f4xx_hal_i2s_ex.c **** {
 904:Drivers/STM32F4xx_HAL_Driver/Src/stm32f4xx_hal_i2s_ex.c ****   /* Prevent unused argument(s) compilation warning */
 905:Drivers/STM32F4xx_HAL_Driver/Src/stm32f4xx_hal_i2s_ex.c ****   UNUSED(hi2s);
 906:Drivers/STM32F4xx_HAL_Driver/Src/stm32f4xx_hal_i2s_ex.c **** 
 907:Drivers/STM32F4xx_HAL_Driver/Src/stm32f4xx_hal_i2s_ex.c ****   /* NOTE : This function Should not be modified, when the callback is needed,
 908:Drivers/STM32F4xx_HAL_Driver/Src/stm32f4xx_hal_i2s_ex.c ****             the HAL_I2SEx_TxRxCpltCallback could be implemented in the user file
 909:Drivers/STM32F4xx_HAL_Driver/Src/stm32f4xx_hal_i2s_ex.c ****    */
 910:Drivers/STM32F4xx_HAL_Driver/Src/stm32f4xx_hal_i2s_ex.c **** }
 911:Drivers/STM32F4xx_HAL_Driver/Src/stm32f4xx_hal_i2s_ex.c **** 
 912:Drivers/STM32F4xx_HAL_Driver/Src/stm32f4xx_hal_i2s_ex.c **** /**
 913:Drivers/STM32F4xx_HAL_Driver/Src/stm32f4xx_hal_i2s_ex.c ****   * @}
 914:Drivers/STM32F4xx_HAL_Driver/Src/stm32f4xx_hal_i2s_ex.c ****   */
 915:Drivers/STM32F4xx_HAL_Driver/Src/stm32f4xx_hal_i2s_ex.c **** 
 916:Drivers/STM32F4xx_HAL_Driver/Src/stm32f4xx_hal_i2s_ex.c **** /**
 917:Drivers/STM32F4xx_HAL_Driver/Src/stm32f4xx_hal_i2s_ex.c ****   * @}
 918:Drivers/STM32F4xx_HAL_Driver/Src/stm32f4xx_hal_i2s_ex.c ****   */
 919:Drivers/STM32F4xx_HAL_Driver/Src/stm32f4xx_hal_i2s_ex.c **** 
 920:Drivers/STM32F4xx_HAL_Driver/Src/stm32f4xx_hal_i2s_ex.c **** /** @addtogroup I2SEx_Private_Functions I2S Extended Private Functions
 921:Drivers/STM32F4xx_HAL_Driver/Src/stm32f4xx_hal_i2s_ex.c ****   * @{
 922:Drivers/STM32F4xx_HAL_Driver/Src/stm32f4xx_hal_i2s_ex.c ****   */
 923:Drivers/STM32F4xx_HAL_Driver/Src/stm32f4xx_hal_i2s_ex.c **** 
 924:Drivers/STM32F4xx_HAL_Driver/Src/stm32f4xx_hal_i2s_ex.c **** /**
 925:Drivers/STM32F4xx_HAL_Driver/Src/stm32f4xx_hal_i2s_ex.c ****   * @brief DMA I2S transmit receive process half complete callback
 926:Drivers/STM32F4xx_HAL_Driver/Src/stm32f4xx_hal_i2s_ex.c ****   * @param  hdma pointer to a DMA_HandleTypeDef structure that contains
 927:Drivers/STM32F4xx_HAL_Driver/Src/stm32f4xx_hal_i2s_ex.c ****   *               the configuration information for the specified DMA module.
 928:Drivers/STM32F4xx_HAL_Driver/Src/stm32f4xx_hal_i2s_ex.c ****   * @retval None
 929:Drivers/STM32F4xx_HAL_Driver/Src/stm32f4xx_hal_i2s_ex.c ****   */
 930:Drivers/STM32F4xx_HAL_Driver/Src/stm32f4xx_hal_i2s_ex.c **** static void I2SEx_TxRxDMAHalfCplt(DMA_HandleTypeDef *hdma)
 931:Drivers/STM32F4xx_HAL_Driver/Src/stm32f4xx_hal_i2s_ex.c **** {
 932:Drivers/STM32F4xx_HAL_Driver/Src/stm32f4xx_hal_i2s_ex.c ****   I2S_HandleTypeDef* hi2s = (I2S_HandleTypeDef*)((DMA_HandleTypeDef*)hdma)->Parent;
 933:Drivers/STM32F4xx_HAL_Driver/Src/stm32f4xx_hal_i2s_ex.c **** 
 934:Drivers/STM32F4xx_HAL_Driver/Src/stm32f4xx_hal_i2s_ex.c ****    HAL_I2SEx_TxRxHalfCpltCallback(hi2s);
 935:Drivers/STM32F4xx_HAL_Driver/Src/stm32f4xx_hal_i2s_ex.c **** }
 936:Drivers/STM32F4xx_HAL_Driver/Src/stm32f4xx_hal_i2s_ex.c **** 
 937:Drivers/STM32F4xx_HAL_Driver/Src/stm32f4xx_hal_i2s_ex.c **** /**
 938:Drivers/STM32F4xx_HAL_Driver/Src/stm32f4xx_hal_i2s_ex.c ****   * @brief DMA I2S transmit receive process complete callback
 939:Drivers/STM32F4xx_HAL_Driver/Src/stm32f4xx_hal_i2s_ex.c ****   * @param  hdma pointer to a DMA_HandleTypeDef structure that contains
 940:Drivers/STM32F4xx_HAL_Driver/Src/stm32f4xx_hal_i2s_ex.c ****   *               the configuration information for the specified DMA module.
 941:Drivers/STM32F4xx_HAL_Driver/Src/stm32f4xx_hal_i2s_ex.c ****   * @retval None
 942:Drivers/STM32F4xx_HAL_Driver/Src/stm32f4xx_hal_i2s_ex.c ****   */
 943:Drivers/STM32F4xx_HAL_Driver/Src/stm32f4xx_hal_i2s_ex.c **** static void I2SEx_TxRxDMACplt(DMA_HandleTypeDef *hdma)
ARM GAS  /tmp/ccPpxa3p.s 			page 18


 944:Drivers/STM32F4xx_HAL_Driver/Src/stm32f4xx_hal_i2s_ex.c **** {
 945:Drivers/STM32F4xx_HAL_Driver/Src/stm32f4xx_hal_i2s_ex.c ****   I2S_HandleTypeDef* hi2s = (I2S_HandleTypeDef*)((DMA_HandleTypeDef*)hdma)->Parent;
 946:Drivers/STM32F4xx_HAL_Driver/Src/stm32f4xx_hal_i2s_ex.c **** 
 947:Drivers/STM32F4xx_HAL_Driver/Src/stm32f4xx_hal_i2s_ex.c ****   /* if DMA is not configured in DMA_CIRCULAR mode */
 948:Drivers/STM32F4xx_HAL_Driver/Src/stm32f4xx_hal_i2s_ex.c ****   if((hdma->Instance->CR & DMA_SxCR_CIRC) == 0U)
 949:Drivers/STM32F4xx_HAL_Driver/Src/stm32f4xx_hal_i2s_ex.c ****   {
 950:Drivers/STM32F4xx_HAL_Driver/Src/stm32f4xx_hal_i2s_ex.c ****     if (hi2s->hdmarx == hdma)
 951:Drivers/STM32F4xx_HAL_Driver/Src/stm32f4xx_hal_i2s_ex.c ****     {
 952:Drivers/STM32F4xx_HAL_Driver/Src/stm32f4xx_hal_i2s_ex.c ****       /* Disable Rx DMA Request */
 953:Drivers/STM32F4xx_HAL_Driver/Src/stm32f4xx_hal_i2s_ex.c ****       if (((hi2s->Instance->I2SCFGR & SPI_I2SCFGR_I2SCFG) == I2S_MODE_MASTER_TX) ||\
 954:Drivers/STM32F4xx_HAL_Driver/Src/stm32f4xx_hal_i2s_ex.c ****           ((hi2s->Instance->I2SCFGR & SPI_I2SCFGR_I2SCFG) == I2S_MODE_SLAVE_TX))
 955:Drivers/STM32F4xx_HAL_Driver/Src/stm32f4xx_hal_i2s_ex.c ****       {
 956:Drivers/STM32F4xx_HAL_Driver/Src/stm32f4xx_hal_i2s_ex.c ****         CLEAR_BIT(I2SxEXT(hi2s->Instance)->CR2,SPI_CR2_RXDMAEN);
 957:Drivers/STM32F4xx_HAL_Driver/Src/stm32f4xx_hal_i2s_ex.c ****       }
 958:Drivers/STM32F4xx_HAL_Driver/Src/stm32f4xx_hal_i2s_ex.c ****       else
 959:Drivers/STM32F4xx_HAL_Driver/Src/stm32f4xx_hal_i2s_ex.c ****       {
 960:Drivers/STM32F4xx_HAL_Driver/Src/stm32f4xx_hal_i2s_ex.c ****         CLEAR_BIT(hi2s->Instance->CR2,SPI_CR2_RXDMAEN);
 961:Drivers/STM32F4xx_HAL_Driver/Src/stm32f4xx_hal_i2s_ex.c ****       }
 962:Drivers/STM32F4xx_HAL_Driver/Src/stm32f4xx_hal_i2s_ex.c **** 
 963:Drivers/STM32F4xx_HAL_Driver/Src/stm32f4xx_hal_i2s_ex.c ****       hi2s->RxXferCount = 0U;
 964:Drivers/STM32F4xx_HAL_Driver/Src/stm32f4xx_hal_i2s_ex.c **** 
 965:Drivers/STM32F4xx_HAL_Driver/Src/stm32f4xx_hal_i2s_ex.c ****       if (hi2s->TxXferCount == 0U)
 966:Drivers/STM32F4xx_HAL_Driver/Src/stm32f4xx_hal_i2s_ex.c ****       {
 967:Drivers/STM32F4xx_HAL_Driver/Src/stm32f4xx_hal_i2s_ex.c ****         hi2s->State = HAL_I2S_STATE_READY;
 968:Drivers/STM32F4xx_HAL_Driver/Src/stm32f4xx_hal_i2s_ex.c **** 
 969:Drivers/STM32F4xx_HAL_Driver/Src/stm32f4xx_hal_i2s_ex.c ****         HAL_I2SEx_TxRxCpltCallback(hi2s);
 970:Drivers/STM32F4xx_HAL_Driver/Src/stm32f4xx_hal_i2s_ex.c ****       }
 971:Drivers/STM32F4xx_HAL_Driver/Src/stm32f4xx_hal_i2s_ex.c ****     }
 972:Drivers/STM32F4xx_HAL_Driver/Src/stm32f4xx_hal_i2s_ex.c **** 
 973:Drivers/STM32F4xx_HAL_Driver/Src/stm32f4xx_hal_i2s_ex.c ****     if (hi2s->hdmatx == hdma)
 974:Drivers/STM32F4xx_HAL_Driver/Src/stm32f4xx_hal_i2s_ex.c ****     {
 975:Drivers/STM32F4xx_HAL_Driver/Src/stm32f4xx_hal_i2s_ex.c ****       /* Disable Tx DMA Request */
 976:Drivers/STM32F4xx_HAL_Driver/Src/stm32f4xx_hal_i2s_ex.c ****       if (((hi2s->Instance->I2SCFGR & SPI_I2SCFGR_I2SCFG) == I2S_MODE_MASTER_TX) ||\
 977:Drivers/STM32F4xx_HAL_Driver/Src/stm32f4xx_hal_i2s_ex.c ****           ((hi2s->Instance->I2SCFGR & SPI_I2SCFGR_I2SCFG) == I2S_MODE_SLAVE_TX))
 978:Drivers/STM32F4xx_HAL_Driver/Src/stm32f4xx_hal_i2s_ex.c ****       {
 979:Drivers/STM32F4xx_HAL_Driver/Src/stm32f4xx_hal_i2s_ex.c ****         CLEAR_BIT(hi2s->Instance->CR2,SPI_CR2_TXDMAEN);
 980:Drivers/STM32F4xx_HAL_Driver/Src/stm32f4xx_hal_i2s_ex.c ****       }
 981:Drivers/STM32F4xx_HAL_Driver/Src/stm32f4xx_hal_i2s_ex.c ****       else
 982:Drivers/STM32F4xx_HAL_Driver/Src/stm32f4xx_hal_i2s_ex.c ****       {
 983:Drivers/STM32F4xx_HAL_Driver/Src/stm32f4xx_hal_i2s_ex.c ****         CLEAR_BIT(I2SxEXT(hi2s->Instance)->CR2,SPI_CR2_TXDMAEN);
 984:Drivers/STM32F4xx_HAL_Driver/Src/stm32f4xx_hal_i2s_ex.c ****       }
 985:Drivers/STM32F4xx_HAL_Driver/Src/stm32f4xx_hal_i2s_ex.c **** 
 986:Drivers/STM32F4xx_HAL_Driver/Src/stm32f4xx_hal_i2s_ex.c ****       hi2s->TxXferCount = 0U;
 987:Drivers/STM32F4xx_HAL_Driver/Src/stm32f4xx_hal_i2s_ex.c **** 
 988:Drivers/STM32F4xx_HAL_Driver/Src/stm32f4xx_hal_i2s_ex.c ****       if (hi2s->RxXferCount == 0U)
 989:Drivers/STM32F4xx_HAL_Driver/Src/stm32f4xx_hal_i2s_ex.c ****       {
 990:Drivers/STM32F4xx_HAL_Driver/Src/stm32f4xx_hal_i2s_ex.c ****         hi2s->State = HAL_I2S_STATE_READY;
 991:Drivers/STM32F4xx_HAL_Driver/Src/stm32f4xx_hal_i2s_ex.c **** 
 992:Drivers/STM32F4xx_HAL_Driver/Src/stm32f4xx_hal_i2s_ex.c ****         HAL_I2SEx_TxRxCpltCallback(hi2s);
 993:Drivers/STM32F4xx_HAL_Driver/Src/stm32f4xx_hal_i2s_ex.c ****       }
 994:Drivers/STM32F4xx_HAL_Driver/Src/stm32f4xx_hal_i2s_ex.c ****     }
 995:Drivers/STM32F4xx_HAL_Driver/Src/stm32f4xx_hal_i2s_ex.c ****   }
 996:Drivers/STM32F4xx_HAL_Driver/Src/stm32f4xx_hal_i2s_ex.c **** }
 997:Drivers/STM32F4xx_HAL_Driver/Src/stm32f4xx_hal_i2s_ex.c **** 
 998:Drivers/STM32F4xx_HAL_Driver/Src/stm32f4xx_hal_i2s_ex.c **** /**
 999:Drivers/STM32F4xx_HAL_Driver/Src/stm32f4xx_hal_i2s_ex.c ****   * @brief DMA I2S communication error callback
1000:Drivers/STM32F4xx_HAL_Driver/Src/stm32f4xx_hal_i2s_ex.c ****   * @param hdma  DMA handle
ARM GAS  /tmp/ccPpxa3p.s 			page 19


1001:Drivers/STM32F4xx_HAL_Driver/Src/stm32f4xx_hal_i2s_ex.c ****   * @retval None
1002:Drivers/STM32F4xx_HAL_Driver/Src/stm32f4xx_hal_i2s_ex.c ****   */
1003:Drivers/STM32F4xx_HAL_Driver/Src/stm32f4xx_hal_i2s_ex.c **** static void I2SEx_TxRxDMAError(DMA_HandleTypeDef *hdma)
1004:Drivers/STM32F4xx_HAL_Driver/Src/stm32f4xx_hal_i2s_ex.c **** {
  28              		.loc 1 1004 0
  29              		.cfi_startproc
  30              		@ args = 0, pretend = 0, frame = 0
  31              		@ frame_needed = 0, uses_anonymous_args = 0
  32              	.LVL0:
  33 0000 08B5     		push	{r3, lr}
  34              	.LCFI0:
  35              		.cfi_def_cfa_offset 8
  36              		.cfi_offset 3, -8
  37              		.cfi_offset 14, -4
1005:Drivers/STM32F4xx_HAL_Driver/Src/stm32f4xx_hal_i2s_ex.c ****   I2S_HandleTypeDef* hi2s = ( I2S_HandleTypeDef* )((DMA_HandleTypeDef* )hdma)->Parent;
  38              		.loc 1 1005 0
  39 0002 806B     		ldr	r0, [r0, #56]
  40              	.LVL1:
1006:Drivers/STM32F4xx_HAL_Driver/Src/stm32f4xx_hal_i2s_ex.c **** 
1007:Drivers/STM32F4xx_HAL_Driver/Src/stm32f4xx_hal_i2s_ex.c ****   /* Disable Rx and Tx DMA Request */
1008:Drivers/STM32F4xx_HAL_Driver/Src/stm32f4xx_hal_i2s_ex.c ****   CLEAR_BIT(hi2s->Instance->CR2,(SPI_CR2_RXDMAEN | SPI_CR2_TXDMAEN));
  41              		.loc 1 1008 0
  42 0004 0268     		ldr	r2, [r0]
  43 0006 5368     		ldr	r3, [r2, #4]
  44 0008 23F00303 		bic	r3, r3, #3
  45 000c 5360     		str	r3, [r2, #4]
1009:Drivers/STM32F4xx_HAL_Driver/Src/stm32f4xx_hal_i2s_ex.c ****   CLEAR_BIT(I2SxEXT(hi2s->Instance)->CR2,(SPI_CR2_RXDMAEN | SPI_CR2_TXDMAEN));
  46              		.loc 1 1009 0
  47 000e 0368     		ldr	r3, [r0]
  48 0010 0F4A     		ldr	r2, .L7
  49 0012 9342     		cmp	r3, r2
  50 0014 02D1     		bne	.L4
  51 0016 A2F58062 		sub	r2, r2, #1024
  52 001a 01E0     		b	.L2
  53              	.L4:
  54 001c 4FF04022 		mov	r2, #1073758208
  55              	.L2:
  56              		.loc 1 1009 0 is_stmt 0 discriminator 4
  57 0020 0B49     		ldr	r1, .L7
  58 0022 8B42     		cmp	r3, r1
  59 0024 01D1     		bne	.L5
  60              		.loc 1 1009 0
  61 0026 0B4B     		ldr	r3, .L7+4
  62 0028 01E0     		b	.L3
  63              	.L5:
  64 002a 4FF04023 		mov	r3, #1073758208
  65              	.L3:
  66              		.loc 1 1009 0 discriminator 8
  67 002e 5B68     		ldr	r3, [r3, #4]
  68 0030 23F00303 		bic	r3, r3, #3
  69 0034 5360     		str	r3, [r2, #4]
1010:Drivers/STM32F4xx_HAL_Driver/Src/stm32f4xx_hal_i2s_ex.c **** 
1011:Drivers/STM32F4xx_HAL_Driver/Src/stm32f4xx_hal_i2s_ex.c ****   hi2s->TxXferCount = 0U;
  70              		.loc 1 1011 0 is_stmt 1 discriminator 8
  71 0036 0023     		movs	r3, #0
  72 0038 4385     		strh	r3, [r0, #42]	@ movhi
1012:Drivers/STM32F4xx_HAL_Driver/Src/stm32f4xx_hal_i2s_ex.c ****   hi2s->RxXferCount = 0U;
ARM GAS  /tmp/ccPpxa3p.s 			page 20


  73              		.loc 1 1012 0 discriminator 8
  74 003a 4386     		strh	r3, [r0, #50]	@ movhi
1013:Drivers/STM32F4xx_HAL_Driver/Src/stm32f4xx_hal_i2s_ex.c **** 
1014:Drivers/STM32F4xx_HAL_Driver/Src/stm32f4xx_hal_i2s_ex.c ****   hi2s->State= HAL_I2S_STATE_READY;
  75              		.loc 1 1014 0 discriminator 8
  76 003c 0123     		movs	r3, #1
  77 003e 80F84130 		strb	r3, [r0, #65]
1015:Drivers/STM32F4xx_HAL_Driver/Src/stm32f4xx_hal_i2s_ex.c **** 
1016:Drivers/STM32F4xx_HAL_Driver/Src/stm32f4xx_hal_i2s_ex.c ****   /* Set the error code and execute error callback*/
1017:Drivers/STM32F4xx_HAL_Driver/Src/stm32f4xx_hal_i2s_ex.c ****   SET_BIT(hi2s->ErrorCode,HAL_I2S_ERROR_DMA);
  78              		.loc 1 1017 0 discriminator 8
  79 0042 436C     		ldr	r3, [r0, #68]
  80 0044 43F00803 		orr	r3, r3, #8
  81 0048 4364     		str	r3, [r0, #68]
1018:Drivers/STM32F4xx_HAL_Driver/Src/stm32f4xx_hal_i2s_ex.c ****   HAL_I2S_ErrorCallback(hi2s);
  82              		.loc 1 1018 0 discriminator 8
  83 004a FFF7FEFF 		bl	HAL_I2S_ErrorCallback
  84              	.LVL2:
  85 004e 08BD     		pop	{r3, pc}
  86              	.L8:
  87              		.align	2
  88              	.L7:
  89 0050 00380040 		.word	1073756160
  90 0054 00340040 		.word	1073755136
  91              		.cfi_endproc
  92              	.LFE131:
  94              		.section	.text.I2SEx_FullDuplexWaitFlagStateUntilTimeout,"ax",%progbits
  95              		.align	2
  96              		.thumb
  97              		.thumb_func
  99              	I2SEx_FullDuplexWaitFlagStateUntilTimeout:
 100              	.LFB134:
1019:Drivers/STM32F4xx_HAL_Driver/Src/stm32f4xx_hal_i2s_ex.c **** }
1020:Drivers/STM32F4xx_HAL_Driver/Src/stm32f4xx_hal_i2s_ex.c **** 
1021:Drivers/STM32F4xx_HAL_Driver/Src/stm32f4xx_hal_i2s_ex.c **** /**
1022:Drivers/STM32F4xx_HAL_Driver/Src/stm32f4xx_hal_i2s_ex.c ****   * @brief Full-Duplex IT handler transmit function
1023:Drivers/STM32F4xx_HAL_Driver/Src/stm32f4xx_hal_i2s_ex.c ****   * @param hi2s I2S handle
1024:Drivers/STM32F4xx_HAL_Driver/Src/stm32f4xx_hal_i2s_ex.c ****   * @param i2sUsed indicate if I2Sx or I2Sx_ext is concerned
1025:Drivers/STM32F4xx_HAL_Driver/Src/stm32f4xx_hal_i2s_ex.c ****   * @retval None
1026:Drivers/STM32F4xx_HAL_Driver/Src/stm32f4xx_hal_i2s_ex.c ****   */
1027:Drivers/STM32F4xx_HAL_Driver/Src/stm32f4xx_hal_i2s_ex.c **** static void I2SEx_FullDuplexTx_IT(I2S_HandleTypeDef *hi2s, I2S_UseTypeDef i2sUsed)
1028:Drivers/STM32F4xx_HAL_Driver/Src/stm32f4xx_hal_i2s_ex.c **** {
1029:Drivers/STM32F4xx_HAL_Driver/Src/stm32f4xx_hal_i2s_ex.c ****   if(i2sUsed == I2S_USE_I2S)
1030:Drivers/STM32F4xx_HAL_Driver/Src/stm32f4xx_hal_i2s_ex.c ****   {
1031:Drivers/STM32F4xx_HAL_Driver/Src/stm32f4xx_hal_i2s_ex.c ****     /* Write Data on DR register */
1032:Drivers/STM32F4xx_HAL_Driver/Src/stm32f4xx_hal_i2s_ex.c ****     hi2s->Instance->DR = (*hi2s->pTxBuffPtr++);
1033:Drivers/STM32F4xx_HAL_Driver/Src/stm32f4xx_hal_i2s_ex.c ****     hi2s->TxXferCount--;
1034:Drivers/STM32F4xx_HAL_Driver/Src/stm32f4xx_hal_i2s_ex.c **** 
1035:Drivers/STM32F4xx_HAL_Driver/Src/stm32f4xx_hal_i2s_ex.c ****     if(hi2s->TxXferCount == 0U)
1036:Drivers/STM32F4xx_HAL_Driver/Src/stm32f4xx_hal_i2s_ex.c ****     {
1037:Drivers/STM32F4xx_HAL_Driver/Src/stm32f4xx_hal_i2s_ex.c ****       /* Disable TXE and ERR interrupt */
1038:Drivers/STM32F4xx_HAL_Driver/Src/stm32f4xx_hal_i2s_ex.c ****       __HAL_I2S_DISABLE_IT(hi2s, (I2S_IT_TXE | I2S_IT_ERR));
1039:Drivers/STM32F4xx_HAL_Driver/Src/stm32f4xx_hal_i2s_ex.c **** 
1040:Drivers/STM32F4xx_HAL_Driver/Src/stm32f4xx_hal_i2s_ex.c ****       if(hi2s->RxXferCount == 0U)
1041:Drivers/STM32F4xx_HAL_Driver/Src/stm32f4xx_hal_i2s_ex.c ****       {
1042:Drivers/STM32F4xx_HAL_Driver/Src/stm32f4xx_hal_i2s_ex.c ****         hi2s->State = HAL_I2S_STATE_READY;
1043:Drivers/STM32F4xx_HAL_Driver/Src/stm32f4xx_hal_i2s_ex.c ****         HAL_I2SEx_TxRxCpltCallback(hi2s);
ARM GAS  /tmp/ccPpxa3p.s 			page 21


1044:Drivers/STM32F4xx_HAL_Driver/Src/stm32f4xx_hal_i2s_ex.c ****       }
1045:Drivers/STM32F4xx_HAL_Driver/Src/stm32f4xx_hal_i2s_ex.c ****     }
1046:Drivers/STM32F4xx_HAL_Driver/Src/stm32f4xx_hal_i2s_ex.c ****   }
1047:Drivers/STM32F4xx_HAL_Driver/Src/stm32f4xx_hal_i2s_ex.c ****   else
1048:Drivers/STM32F4xx_HAL_Driver/Src/stm32f4xx_hal_i2s_ex.c ****   {
1049:Drivers/STM32F4xx_HAL_Driver/Src/stm32f4xx_hal_i2s_ex.c ****     /* Write Data on DR register */
1050:Drivers/STM32F4xx_HAL_Driver/Src/stm32f4xx_hal_i2s_ex.c ****     I2SxEXT(hi2s->Instance)->DR = (*hi2s->pTxBuffPtr++);
1051:Drivers/STM32F4xx_HAL_Driver/Src/stm32f4xx_hal_i2s_ex.c ****     hi2s->TxXferCount--;
1052:Drivers/STM32F4xx_HAL_Driver/Src/stm32f4xx_hal_i2s_ex.c **** 
1053:Drivers/STM32F4xx_HAL_Driver/Src/stm32f4xx_hal_i2s_ex.c ****     if(hi2s->TxXferCount == 0U)
1054:Drivers/STM32F4xx_HAL_Driver/Src/stm32f4xx_hal_i2s_ex.c ****     {
1055:Drivers/STM32F4xx_HAL_Driver/Src/stm32f4xx_hal_i2s_ex.c ****       /* Disable I2Sext TXE and ERR interrupt */
1056:Drivers/STM32F4xx_HAL_Driver/Src/stm32f4xx_hal_i2s_ex.c ****       __HAL_I2SEXT_DISABLE_IT(hi2s, (I2S_IT_TXE | I2S_IT_ERR));
1057:Drivers/STM32F4xx_HAL_Driver/Src/stm32f4xx_hal_i2s_ex.c **** 
1058:Drivers/STM32F4xx_HAL_Driver/Src/stm32f4xx_hal_i2s_ex.c ****       if(hi2s->RxXferCount == 0U)
1059:Drivers/STM32F4xx_HAL_Driver/Src/stm32f4xx_hal_i2s_ex.c ****       {
1060:Drivers/STM32F4xx_HAL_Driver/Src/stm32f4xx_hal_i2s_ex.c ****         hi2s->State = HAL_I2S_STATE_READY;
1061:Drivers/STM32F4xx_HAL_Driver/Src/stm32f4xx_hal_i2s_ex.c ****         HAL_I2SEx_TxRxCpltCallback(hi2s);
1062:Drivers/STM32F4xx_HAL_Driver/Src/stm32f4xx_hal_i2s_ex.c ****       }
1063:Drivers/STM32F4xx_HAL_Driver/Src/stm32f4xx_hal_i2s_ex.c ****     }
1064:Drivers/STM32F4xx_HAL_Driver/Src/stm32f4xx_hal_i2s_ex.c ****   }
1065:Drivers/STM32F4xx_HAL_Driver/Src/stm32f4xx_hal_i2s_ex.c **** }
1066:Drivers/STM32F4xx_HAL_Driver/Src/stm32f4xx_hal_i2s_ex.c **** 
1067:Drivers/STM32F4xx_HAL_Driver/Src/stm32f4xx_hal_i2s_ex.c **** /**
1068:Drivers/STM32F4xx_HAL_Driver/Src/stm32f4xx_hal_i2s_ex.c ****   * @brief Full-Duplex IT handler receive function
1069:Drivers/STM32F4xx_HAL_Driver/Src/stm32f4xx_hal_i2s_ex.c ****   * @param hi2s I2S handle
1070:Drivers/STM32F4xx_HAL_Driver/Src/stm32f4xx_hal_i2s_ex.c ****   * @param i2sUsed indicate if I2Sx or I2Sx_ext is concerned
1071:Drivers/STM32F4xx_HAL_Driver/Src/stm32f4xx_hal_i2s_ex.c ****   * @retval None
1072:Drivers/STM32F4xx_HAL_Driver/Src/stm32f4xx_hal_i2s_ex.c ****   */
1073:Drivers/STM32F4xx_HAL_Driver/Src/stm32f4xx_hal_i2s_ex.c **** static void I2SEx_FullDuplexRx_IT(I2S_HandleTypeDef *hi2s, I2S_UseTypeDef i2sUsed)
1074:Drivers/STM32F4xx_HAL_Driver/Src/stm32f4xx_hal_i2s_ex.c **** {
1075:Drivers/STM32F4xx_HAL_Driver/Src/stm32f4xx_hal_i2s_ex.c ****   if(i2sUsed == I2S_USE_I2S)
1076:Drivers/STM32F4xx_HAL_Driver/Src/stm32f4xx_hal_i2s_ex.c ****   {
1077:Drivers/STM32F4xx_HAL_Driver/Src/stm32f4xx_hal_i2s_ex.c ****     /* Read Data from DR register */
1078:Drivers/STM32F4xx_HAL_Driver/Src/stm32f4xx_hal_i2s_ex.c ****     (*hi2s->pRxBuffPtr++) = hi2s->Instance->DR;
1079:Drivers/STM32F4xx_HAL_Driver/Src/stm32f4xx_hal_i2s_ex.c ****     hi2s->RxXferCount--;
1080:Drivers/STM32F4xx_HAL_Driver/Src/stm32f4xx_hal_i2s_ex.c **** 
1081:Drivers/STM32F4xx_HAL_Driver/Src/stm32f4xx_hal_i2s_ex.c ****     if(hi2s->RxXferCount == 0U)
1082:Drivers/STM32F4xx_HAL_Driver/Src/stm32f4xx_hal_i2s_ex.c ****     {
1083:Drivers/STM32F4xx_HAL_Driver/Src/stm32f4xx_hal_i2s_ex.c ****       /* Disable RXNE and ERR interrupt */
1084:Drivers/STM32F4xx_HAL_Driver/Src/stm32f4xx_hal_i2s_ex.c ****       __HAL_I2S_DISABLE_IT(hi2s, (I2S_IT_RXNE | I2S_IT_ERR));
1085:Drivers/STM32F4xx_HAL_Driver/Src/stm32f4xx_hal_i2s_ex.c **** 
1086:Drivers/STM32F4xx_HAL_Driver/Src/stm32f4xx_hal_i2s_ex.c ****       if(hi2s->TxXferCount == 0U)
1087:Drivers/STM32F4xx_HAL_Driver/Src/stm32f4xx_hal_i2s_ex.c ****       {
1088:Drivers/STM32F4xx_HAL_Driver/Src/stm32f4xx_hal_i2s_ex.c ****         hi2s->State = HAL_I2S_STATE_READY;
1089:Drivers/STM32F4xx_HAL_Driver/Src/stm32f4xx_hal_i2s_ex.c ****         HAL_I2SEx_TxRxCpltCallback(hi2s);
1090:Drivers/STM32F4xx_HAL_Driver/Src/stm32f4xx_hal_i2s_ex.c ****       }
1091:Drivers/STM32F4xx_HAL_Driver/Src/stm32f4xx_hal_i2s_ex.c ****     }
1092:Drivers/STM32F4xx_HAL_Driver/Src/stm32f4xx_hal_i2s_ex.c ****   }
1093:Drivers/STM32F4xx_HAL_Driver/Src/stm32f4xx_hal_i2s_ex.c ****   else
1094:Drivers/STM32F4xx_HAL_Driver/Src/stm32f4xx_hal_i2s_ex.c ****   {
1095:Drivers/STM32F4xx_HAL_Driver/Src/stm32f4xx_hal_i2s_ex.c ****     /* Read Data from DR register */
1096:Drivers/STM32F4xx_HAL_Driver/Src/stm32f4xx_hal_i2s_ex.c ****     (*hi2s->pRxBuffPtr++) = I2SxEXT(hi2s->Instance)->DR;
1097:Drivers/STM32F4xx_HAL_Driver/Src/stm32f4xx_hal_i2s_ex.c ****     hi2s->RxXferCount--;
1098:Drivers/STM32F4xx_HAL_Driver/Src/stm32f4xx_hal_i2s_ex.c **** 
1099:Drivers/STM32F4xx_HAL_Driver/Src/stm32f4xx_hal_i2s_ex.c ****     if(hi2s->RxXferCount == 0U)
1100:Drivers/STM32F4xx_HAL_Driver/Src/stm32f4xx_hal_i2s_ex.c ****     {
ARM GAS  /tmp/ccPpxa3p.s 			page 22


1101:Drivers/STM32F4xx_HAL_Driver/Src/stm32f4xx_hal_i2s_ex.c ****       /* Disable I2Sext RXNE and ERR interrupt */
1102:Drivers/STM32F4xx_HAL_Driver/Src/stm32f4xx_hal_i2s_ex.c ****       __HAL_I2SEXT_DISABLE_IT(hi2s, (I2S_IT_RXNE | I2S_IT_ERR));
1103:Drivers/STM32F4xx_HAL_Driver/Src/stm32f4xx_hal_i2s_ex.c **** 
1104:Drivers/STM32F4xx_HAL_Driver/Src/stm32f4xx_hal_i2s_ex.c ****       if(hi2s->TxXferCount == 0U)
1105:Drivers/STM32F4xx_HAL_Driver/Src/stm32f4xx_hal_i2s_ex.c ****       {
1106:Drivers/STM32F4xx_HAL_Driver/Src/stm32f4xx_hal_i2s_ex.c ****         hi2s->State = HAL_I2S_STATE_READY;
1107:Drivers/STM32F4xx_HAL_Driver/Src/stm32f4xx_hal_i2s_ex.c ****         HAL_I2SEx_TxRxCpltCallback(hi2s);
1108:Drivers/STM32F4xx_HAL_Driver/Src/stm32f4xx_hal_i2s_ex.c ****       }
1109:Drivers/STM32F4xx_HAL_Driver/Src/stm32f4xx_hal_i2s_ex.c ****     }
1110:Drivers/STM32F4xx_HAL_Driver/Src/stm32f4xx_hal_i2s_ex.c ****   }
1111:Drivers/STM32F4xx_HAL_Driver/Src/stm32f4xx_hal_i2s_ex.c **** }
1112:Drivers/STM32F4xx_HAL_Driver/Src/stm32f4xx_hal_i2s_ex.c **** 
1113:Drivers/STM32F4xx_HAL_Driver/Src/stm32f4xx_hal_i2s_ex.c **** /**
1114:Drivers/STM32F4xx_HAL_Driver/Src/stm32f4xx_hal_i2s_ex.c ****   * @brief This function handles I2S Communication Timeout.
1115:Drivers/STM32F4xx_HAL_Driver/Src/stm32f4xx_hal_i2s_ex.c ****   * @param hi2s I2S handle
1116:Drivers/STM32F4xx_HAL_Driver/Src/stm32f4xx_hal_i2s_ex.c ****   * @param Flag Flag checked
1117:Drivers/STM32F4xx_HAL_Driver/Src/stm32f4xx_hal_i2s_ex.c ****   * @param State Value of the flag expected
1118:Drivers/STM32F4xx_HAL_Driver/Src/stm32f4xx_hal_i2s_ex.c ****   * @param Timeout Duration of the timeout
1119:Drivers/STM32F4xx_HAL_Driver/Src/stm32f4xx_hal_i2s_ex.c ****   * @param i2sUsed I2S instance reference
1120:Drivers/STM32F4xx_HAL_Driver/Src/stm32f4xx_hal_i2s_ex.c ****   * @retval HAL status
1121:Drivers/STM32F4xx_HAL_Driver/Src/stm32f4xx_hal_i2s_ex.c ****   */
1122:Drivers/STM32F4xx_HAL_Driver/Src/stm32f4xx_hal_i2s_ex.c **** static HAL_StatusTypeDef I2SEx_FullDuplexWaitFlagStateUntilTimeout(I2S_HandleTypeDef *hi2s, uint32_
1123:Drivers/STM32F4xx_HAL_Driver/Src/stm32f4xx_hal_i2s_ex.c ****                                                                  uint32_t State, uint32_t Timeout, 
1124:Drivers/STM32F4xx_HAL_Driver/Src/stm32f4xx_hal_i2s_ex.c **** {
 101              		.loc 1 1124 0
 102              		.cfi_startproc
 103              		@ args = 4, pretend = 0, frame = 0
 104              		@ frame_needed = 0, uses_anonymous_args = 0
 105              	.LVL3:
 106 0000 2DE9F041 		push	{r4, r5, r6, r7, r8, lr}
 107              	.LCFI1:
 108              		.cfi_def_cfa_offset 24
 109              		.cfi_offset 4, -24
 110              		.cfi_offset 5, -20
 111              		.cfi_offset 6, -16
 112              		.cfi_offset 7, -12
 113              		.cfi_offset 8, -8
 114              		.cfi_offset 14, -4
 115 0004 0646     		mov	r6, r0
 116 0006 0C46     		mov	r4, r1
 117 0008 1746     		mov	r7, r2
 118 000a 1D46     		mov	r5, r3
1125:Drivers/STM32F4xx_HAL_Driver/Src/stm32f4xx_hal_i2s_ex.c ****   uint32_t tickstart = HAL_GetTick();
 119              		.loc 1 1125 0
 120 000c FFF7FEFF 		bl	HAL_GetTick
 121              	.LVL4:
 122 0010 8046     		mov	r8, r0
 123              	.LVL5:
1126:Drivers/STM32F4xx_HAL_Driver/Src/stm32f4xx_hal_i2s_ex.c **** 
1127:Drivers/STM32F4xx_HAL_Driver/Src/stm32f4xx_hal_i2s_ex.c ****   if(i2sUsed == I2S_USE_I2S)
 124              		.loc 1 1127 0
 125 0012 9DF81830 		ldrb	r3, [sp, #24]	@ zero_extendqisi2
 126 0016 9BB1     		cbz	r3, .L12
 127 0018 32E0     		b	.L17
 128              	.LVL6:
 129              	.L16:
1128:Drivers/STM32F4xx_HAL_Driver/Src/stm32f4xx_hal_i2s_ex.c ****   {
ARM GAS  /tmp/ccPpxa3p.s 			page 23


1129:Drivers/STM32F4xx_HAL_Driver/Src/stm32f4xx_hal_i2s_ex.c ****     /* Wait until flag is reset */
1130:Drivers/STM32F4xx_HAL_Driver/Src/stm32f4xx_hal_i2s_ex.c ****     while(((__HAL_I2S_GET_FLAG(hi2s, Flag)) ? SET : RESET) != State)
1131:Drivers/STM32F4xx_HAL_Driver/Src/stm32f4xx_hal_i2s_ex.c ****     {
1132:Drivers/STM32F4xx_HAL_Driver/Src/stm32f4xx_hal_i2s_ex.c ****       if(Timeout != HAL_MAX_DELAY)
 130              		.loc 1 1132 0
 131 001a B5F1FF3F 		cmp	r5, #-1
 132 001e 0FD0     		beq	.L12
1133:Drivers/STM32F4xx_HAL_Driver/Src/stm32f4xx_hal_i2s_ex.c ****       {
1134:Drivers/STM32F4xx_HAL_Driver/Src/stm32f4xx_hal_i2s_ex.c ****         if((Timeout == 0U) || ((HAL_GetTick()-tickstart) > Timeout))
 133              		.loc 1 1134 0
 134 0020 2DB1     		cbz	r5, .L13
 135              		.loc 1 1134 0 is_stmt 0 discriminator 1
 136 0022 FFF7FEFF 		bl	HAL_GetTick
 137              	.LVL7:
 138 0026 C8EB0000 		rsb	r0, r8, r0
 139 002a A842     		cmp	r0, r5
 140 002c 08D9     		bls	.L12
 141              	.L13:
1135:Drivers/STM32F4xx_HAL_Driver/Src/stm32f4xx_hal_i2s_ex.c ****         {
1136:Drivers/STM32F4xx_HAL_Driver/Src/stm32f4xx_hal_i2s_ex.c ****           /* Set the I2S State ready */
1137:Drivers/STM32F4xx_HAL_Driver/Src/stm32f4xx_hal_i2s_ex.c ****           hi2s->State= HAL_I2S_STATE_READY;
 142              		.loc 1 1137 0 is_stmt 1
 143 002e 0123     		movs	r3, #1
 144 0030 86F84130 		strb	r3, [r6, #65]
1138:Drivers/STM32F4xx_HAL_Driver/Src/stm32f4xx_hal_i2s_ex.c **** 
1139:Drivers/STM32F4xx_HAL_Driver/Src/stm32f4xx_hal_i2s_ex.c ****           /* Process Unlocked */
1140:Drivers/STM32F4xx_HAL_Driver/Src/stm32f4xx_hal_i2s_ex.c ****           __HAL_UNLOCK(hi2s);
 145              		.loc 1 1140 0
 146 0034 0023     		movs	r3, #0
 147 0036 86F84030 		strb	r3, [r6, #64]
1141:Drivers/STM32F4xx_HAL_Driver/Src/stm32f4xx_hal_i2s_ex.c **** 
1142:Drivers/STM32F4xx_HAL_Driver/Src/stm32f4xx_hal_i2s_ex.c ****           return HAL_TIMEOUT;
 148              		.loc 1 1142 0
 149 003a 0320     		movs	r0, #3
 150 003c BDE8F081 		pop	{r4, r5, r6, r7, r8, pc}
 151              	.LVL8:
 152              	.L12:
1130:Drivers/STM32F4xx_HAL_Driver/Src/stm32f4xx_hal_i2s_ex.c ****     {
 153              		.loc 1 1130 0
 154 0040 3368     		ldr	r3, [r6]
 155 0042 9B68     		ldr	r3, [r3, #8]
 156 0044 2340     		ands	r3, r3, r4
 157 0046 A342     		cmp	r3, r4
 158 0048 01D1     		bne	.L22
 159 004a 0123     		movs	r3, #1
 160 004c 00E0     		b	.L15
 161              	.L22:
 162 004e 0023     		movs	r3, #0
 163              	.L15:
1130:Drivers/STM32F4xx_HAL_Driver/Src/stm32f4xx_hal_i2s_ex.c ****     {
 164              		.loc 1 1130 0 is_stmt 0 discriminator 4
 165 0050 BB42     		cmp	r3, r7
 166 0052 E2D1     		bne	.L16
1143:Drivers/STM32F4xx_HAL_Driver/Src/stm32f4xx_hal_i2s_ex.c ****         }
1144:Drivers/STM32F4xx_HAL_Driver/Src/stm32f4xx_hal_i2s_ex.c ****       }
1145:Drivers/STM32F4xx_HAL_Driver/Src/stm32f4xx_hal_i2s_ex.c ****     }
1146:Drivers/STM32F4xx_HAL_Driver/Src/stm32f4xx_hal_i2s_ex.c ****   }
ARM GAS  /tmp/ccPpxa3p.s 			page 24


1147:Drivers/STM32F4xx_HAL_Driver/Src/stm32f4xx_hal_i2s_ex.c ****   else /* i2sUsed == I2S_USE_I2SEXT */
1148:Drivers/STM32F4xx_HAL_Driver/Src/stm32f4xx_hal_i2s_ex.c ****   {
1149:Drivers/STM32F4xx_HAL_Driver/Src/stm32f4xx_hal_i2s_ex.c ****     /* Wait until flag is reset */
1150:Drivers/STM32F4xx_HAL_Driver/Src/stm32f4xx_hal_i2s_ex.c ****     while(((__HAL_I2SEXT_GET_FLAG(hi2s, Flag)) ? SET : RESET) != State)
1151:Drivers/STM32F4xx_HAL_Driver/Src/stm32f4xx_hal_i2s_ex.c ****     {
1152:Drivers/STM32F4xx_HAL_Driver/Src/stm32f4xx_hal_i2s_ex.c ****       if(Timeout != HAL_MAX_DELAY)
1153:Drivers/STM32F4xx_HAL_Driver/Src/stm32f4xx_hal_i2s_ex.c ****       {
1154:Drivers/STM32F4xx_HAL_Driver/Src/stm32f4xx_hal_i2s_ex.c ****         if((Timeout == 0U) || ((HAL_GetTick()-tickstart) > Timeout))
1155:Drivers/STM32F4xx_HAL_Driver/Src/stm32f4xx_hal_i2s_ex.c ****         {
1156:Drivers/STM32F4xx_HAL_Driver/Src/stm32f4xx_hal_i2s_ex.c ****           /* Set the I2S State ready */
1157:Drivers/STM32F4xx_HAL_Driver/Src/stm32f4xx_hal_i2s_ex.c ****           hi2s->State= HAL_I2S_STATE_READY;
1158:Drivers/STM32F4xx_HAL_Driver/Src/stm32f4xx_hal_i2s_ex.c **** 
1159:Drivers/STM32F4xx_HAL_Driver/Src/stm32f4xx_hal_i2s_ex.c ****           /* Process Unlocked */
1160:Drivers/STM32F4xx_HAL_Driver/Src/stm32f4xx_hal_i2s_ex.c ****           __HAL_UNLOCK(hi2s);
1161:Drivers/STM32F4xx_HAL_Driver/Src/stm32f4xx_hal_i2s_ex.c **** 
1162:Drivers/STM32F4xx_HAL_Driver/Src/stm32f4xx_hal_i2s_ex.c ****           return HAL_TIMEOUT;
1163:Drivers/STM32F4xx_HAL_Driver/Src/stm32f4xx_hal_i2s_ex.c ****         }
1164:Drivers/STM32F4xx_HAL_Driver/Src/stm32f4xx_hal_i2s_ex.c ****       }
1165:Drivers/STM32F4xx_HAL_Driver/Src/stm32f4xx_hal_i2s_ex.c ****     }
1166:Drivers/STM32F4xx_HAL_Driver/Src/stm32f4xx_hal_i2s_ex.c ****   }
1167:Drivers/STM32F4xx_HAL_Driver/Src/stm32f4xx_hal_i2s_ex.c ****   return HAL_OK;
 167              		.loc 1 1167 0 is_stmt 1
 168 0054 0020     		movs	r0, #0
 169 0056 BDE8F081 		pop	{r4, r5, r6, r7, r8, pc}
 170              	.LVL9:
 171              	.L21:
1152:Drivers/STM32F4xx_HAL_Driver/Src/stm32f4xx_hal_i2s_ex.c ****       {
 172              		.loc 1 1152 0
 173 005a B5F1FF3F 		cmp	r5, #-1
 174 005e 0FD0     		beq	.L17
1154:Drivers/STM32F4xx_HAL_Driver/Src/stm32f4xx_hal_i2s_ex.c ****         {
 175              		.loc 1 1154 0
 176 0060 2DB1     		cbz	r5, .L18
1154:Drivers/STM32F4xx_HAL_Driver/Src/stm32f4xx_hal_i2s_ex.c ****         {
 177              		.loc 1 1154 0 is_stmt 0 discriminator 1
 178 0062 FFF7FEFF 		bl	HAL_GetTick
 179              	.LVL10:
 180 0066 C8EB0000 		rsb	r0, r8, r0
 181 006a A842     		cmp	r0, r5
 182 006c 08D9     		bls	.L17
 183              	.L18:
1157:Drivers/STM32F4xx_HAL_Driver/Src/stm32f4xx_hal_i2s_ex.c **** 
 184              		.loc 1 1157 0 is_stmt 1
 185 006e 0123     		movs	r3, #1
 186 0070 86F84130 		strb	r3, [r6, #65]
1160:Drivers/STM32F4xx_HAL_Driver/Src/stm32f4xx_hal_i2s_ex.c **** 
 187              		.loc 1 1160 0
 188 0074 0023     		movs	r3, #0
 189 0076 86F84030 		strb	r3, [r6, #64]
1162:Drivers/STM32F4xx_HAL_Driver/Src/stm32f4xx_hal_i2s_ex.c ****         }
 190              		.loc 1 1162 0
 191 007a 0320     		movs	r0, #3
 192 007c BDE8F081 		pop	{r4, r5, r6, r7, r8, pc}
 193              	.LVL11:
 194              	.L17:
1150:Drivers/STM32F4xx_HAL_Driver/Src/stm32f4xx_hal_i2s_ex.c ****     {
 195              		.loc 1 1150 0
ARM GAS  /tmp/ccPpxa3p.s 			page 25


 196 0080 3268     		ldr	r2, [r6]
 197 0082 0A4B     		ldr	r3, .L26
 198 0084 9A42     		cmp	r2, r3
 199 0086 02D1     		bne	.L23
 200 0088 A3F58063 		sub	r3, r3, #1024
 201 008c 01E0     		b	.L19
 202              	.L23:
 203 008e 4FF04023 		mov	r3, #1073758208
 204              	.L19:
1150:Drivers/STM32F4xx_HAL_Driver/Src/stm32f4xx_hal_i2s_ex.c ****     {
 205              		.loc 1 1150 0 is_stmt 0 discriminator 4
 206 0092 9B68     		ldr	r3, [r3, #8]
 207 0094 2340     		ands	r3, r3, r4
 208 0096 A342     		cmp	r3, r4
 209 0098 01D1     		bne	.L24
1150:Drivers/STM32F4xx_HAL_Driver/Src/stm32f4xx_hal_i2s_ex.c ****     {
 210              		.loc 1 1150 0
 211 009a 0123     		movs	r3, #1
 212 009c 00E0     		b	.L20
 213              	.L24:
 214 009e 0023     		movs	r3, #0
 215              	.L20:
1150:Drivers/STM32F4xx_HAL_Driver/Src/stm32f4xx_hal_i2s_ex.c ****     {
 216              		.loc 1 1150 0 discriminator 8
 217 00a0 BB42     		cmp	r3, r7
 218 00a2 DAD1     		bne	.L21
 219              		.loc 1 1167 0 is_stmt 1
 220 00a4 0020     		movs	r0, #0
1168:Drivers/STM32F4xx_HAL_Driver/Src/stm32f4xx_hal_i2s_ex.c **** }
 221              		.loc 1 1168 0
 222 00a6 BDE8F081 		pop	{r4, r5, r6, r7, r8, pc}
 223              	.LVL12:
 224              	.L27:
 225 00aa 00BF     		.align	2
 226              	.L26:
 227 00ac 00380040 		.word	1073756160
 228              		.cfi_endproc
 229              	.LFE134:
 231              		.section	.text.HAL_I2SEx_TransmitReceive,"ax",%progbits
 232              		.align	2
 233              		.global	HAL_I2SEx_TransmitReceive
 234              		.thumb
 235              		.thumb_func
 237              	HAL_I2SEx_TransmitReceive:
 238              	.LFB123:
 217:Drivers/STM32F4xx_HAL_Driver/Src/stm32f4xx_hal_i2s_ex.c ****   uint32_t tmp1 = 0U;
 239              		.loc 1 217 0
 240              		.cfi_startproc
 241              		@ args = 4, pretend = 0, frame = 24
 242              		@ frame_needed = 0, uses_anonymous_args = 0
 243              	.LVL13:
 220:Drivers/STM32F4xx_HAL_Driver/Src/stm32f4xx_hal_i2s_ex.c ****   {
 244              		.loc 1 220 0
 245 0000 0029     		cmp	r1, #0
 246 0002 00F0D881 		beq	.L61
 217:Drivers/STM32F4xx_HAL_Driver/Src/stm32f4xx_hal_i2s_ex.c ****   uint32_t tmp1 = 0U;
 247              		.loc 1 217 0 discriminator 1
ARM GAS  /tmp/ccPpxa3p.s 			page 26


 248 0006 F0B5     		push	{r4, r5, r6, r7, lr}
 249              	.LCFI2:
 250              		.cfi_def_cfa_offset 20
 251              		.cfi_offset 4, -20
 252              		.cfi_offset 5, -16
 253              		.cfi_offset 6, -12
 254              		.cfi_offset 7, -8
 255              		.cfi_offset 14, -4
 256 0008 89B0     		sub	sp, sp, #36
 257              	.LCFI3:
 258              		.cfi_def_cfa_offset 56
 259 000a 0446     		mov	r4, r0
 260 000c 1546     		mov	r5, r2
 261 000e 0846     		mov	r0, r1
 262              	.LVL14:
 220:Drivers/STM32F4xx_HAL_Driver/Src/stm32f4xx_hal_i2s_ex.c ****   {
 263              		.loc 1 220 0 discriminator 1
 264 0010 002A     		cmp	r2, #0
 265 0012 00F0D281 		beq	.L62
 220:Drivers/STM32F4xx_HAL_Driver/Src/stm32f4xx_hal_i2s_ex.c ****   {
 266              		.loc 1 220 0 is_stmt 0 discriminator 2
 267 0016 002B     		cmp	r3, #0
 268 0018 00F0D181 		beq	.L63
 226:Drivers/STM32F4xx_HAL_Driver/Src/stm32f4xx_hal_i2s_ex.c ****   {
 269              		.loc 1 226 0 is_stmt 1
 270 001c 94F84120 		ldrb	r2, [r4, #65]	@ zero_extendqisi2
 271              	.LVL15:
 272 0020 D2B2     		uxtb	r2, r2
 273 0022 012A     		cmp	r2, #1
 274 0024 40F0CD81 		bne	.L64
 228:Drivers/STM32F4xx_HAL_Driver/Src/stm32f4xx_hal_i2s_ex.c ****     /* Check the Data format: When a 16-bit data frame or a 16-bit data frame extended
 275              		.loc 1 228 0
 276 0028 2268     		ldr	r2, [r4]
 277 002a D269     		ldr	r2, [r2, #28]
 278 002c 02F00702 		and	r2, r2, #7
 279              	.LVL16:
 233:Drivers/STM32F4xx_HAL_Driver/Src/stm32f4xx_hal_i2s_ex.c ****     {
 280              		.loc 1 233 0
 281 0030 032A     		cmp	r2, #3
 282 0032 01D0     		beq	.L30
 233:Drivers/STM32F4xx_HAL_Driver/Src/stm32f4xx_hal_i2s_ex.c ****     {
 283              		.loc 1 233 0 is_stmt 0 discriminator 1
 284 0034 052A     		cmp	r2, #5
 285 0036 06D1     		bne	.L31
 286              	.L30:
 235:Drivers/STM32F4xx_HAL_Driver/Src/stm32f4xx_hal_i2s_ex.c ****       hi2s->TxXferCount = (Size << 1U);
 287              		.loc 1 235 0 is_stmt 1
 288 0038 5B00     		lsls	r3, r3, #1
 289              	.LVL17:
 290 003a 9BB2     		uxth	r3, r3
 291 003c 2385     		strh	r3, [r4, #40]	@ movhi
 236:Drivers/STM32F4xx_HAL_Driver/Src/stm32f4xx_hal_i2s_ex.c ****       hi2s->RxXferSize  = (Size << 1U);
 292              		.loc 1 236 0
 293 003e 6385     		strh	r3, [r4, #42]	@ movhi
 237:Drivers/STM32F4xx_HAL_Driver/Src/stm32f4xx_hal_i2s_ex.c ****       hi2s->RxXferCount = (Size << 1U);
 294              		.loc 1 237 0
 295 0040 2386     		strh	r3, [r4, #48]	@ movhi
ARM GAS  /tmp/ccPpxa3p.s 			page 27


 238:Drivers/STM32F4xx_HAL_Driver/Src/stm32f4xx_hal_i2s_ex.c ****     }
 296              		.loc 1 238 0
 297 0042 6386     		strh	r3, [r4, #50]	@ movhi
 298 0044 03E0     		b	.L32
 299              	.LVL18:
 300              	.L31:
 242:Drivers/STM32F4xx_HAL_Driver/Src/stm32f4xx_hal_i2s_ex.c ****       hi2s->TxXferCount = Size;
 301              		.loc 1 242 0
 302 0046 2385     		strh	r3, [r4, #40]	@ movhi
 243:Drivers/STM32F4xx_HAL_Driver/Src/stm32f4xx_hal_i2s_ex.c ****       hi2s->RxXferSize  = Size;
 303              		.loc 1 243 0
 304 0048 6385     		strh	r3, [r4, #42]	@ movhi
 244:Drivers/STM32F4xx_HAL_Driver/Src/stm32f4xx_hal_i2s_ex.c ****       hi2s->RxXferCount = Size;
 305              		.loc 1 244 0
 306 004a 2386     		strh	r3, [r4, #48]	@ movhi
 245:Drivers/STM32F4xx_HAL_Driver/Src/stm32f4xx_hal_i2s_ex.c ****     }
 307              		.loc 1 245 0
 308 004c 6386     		strh	r3, [r4, #50]	@ movhi
 309              	.LVL19:
 310              	.L32:
 249:Drivers/STM32F4xx_HAL_Driver/Src/stm32f4xx_hal_i2s_ex.c **** 
 311              		.loc 1 249 0
 312 004e 94F84030 		ldrb	r3, [r4, #64]	@ zero_extendqisi2
 313 0052 DBB2     		uxtb	r3, r3
 314 0054 012B     		cmp	r3, #1
 315 0056 00F0B681 		beq	.L65
 249:Drivers/STM32F4xx_HAL_Driver/Src/stm32f4xx_hal_i2s_ex.c **** 
 316              		.loc 1 249 0 is_stmt 0 discriminator 2
 317 005a 0123     		movs	r3, #1
 318 005c 84F84030 		strb	r3, [r4, #64]
 251:Drivers/STM32F4xx_HAL_Driver/Src/stm32f4xx_hal_i2s_ex.c **** 
 319              		.loc 1 251 0 is_stmt 1 discriminator 2
 320 0060 0023     		movs	r3, #0
 321 0062 6364     		str	r3, [r4, #68]
 254:Drivers/STM32F4xx_HAL_Driver/Src/stm32f4xx_hal_i2s_ex.c **** 
 322              		.loc 1 254 0 discriminator 2
 323 0064 0523     		movs	r3, #5
 324 0066 84F84130 		strb	r3, [r4, #65]
 256:Drivers/STM32F4xx_HAL_Driver/Src/stm32f4xx_hal_i2s_ex.c ****     /* Check if the I2S_MODE_MASTER_TX or I2S_MODE_SLAVE_TX Mode is selected */
 325              		.loc 1 256 0 discriminator 2
 326 006a 2368     		ldr	r3, [r4]
 327 006c DF69     		ldr	r7, [r3, #28]
 328 006e 07F44077 		and	r7, r7, #768
 329              	.LVL20:
 258:Drivers/STM32F4xx_HAL_Driver/Src/stm32f4xx_hal_i2s_ex.c ****     {
 330              		.loc 1 258 0 discriminator 2
 331 0072 B7F5007F 		cmp	r7, #512
 332 0076 02D0     		beq	.L33
 258:Drivers/STM32F4xx_HAL_Driver/Src/stm32f4xx_hal_i2s_ex.c ****     {
 333              		.loc 1 258 0 is_stmt 0 discriminator 1
 334 0078 002F     		cmp	r7, #0
 335 007a 40F0CD80 		bne	.L34
 336              	.L33:
 261:Drivers/STM32F4xx_HAL_Driver/Src/stm32f4xx_hal_i2s_ex.c ****       hi2s->TxXferCount--;
 337              		.loc 1 261 0 is_stmt 1
 338 007e 861C     		adds	r6, r0, #2
 339              	.LVL21:
ARM GAS  /tmp/ccPpxa3p.s 			page 28


 340 0080 0288     		ldrh	r2, [r0]
 341 0082 DA60     		str	r2, [r3, #12]
 262:Drivers/STM32F4xx_HAL_Driver/Src/stm32f4xx_hal_i2s_ex.c **** 
 342              		.loc 1 262 0
 343 0084 638D     		ldrh	r3, [r4, #42]
 344 0086 013B     		subs	r3, r3, #1
 345 0088 9BB2     		uxth	r3, r3
 346 008a 6385     		strh	r3, [r4, #42]	@ movhi
 265:Drivers/STM32F4xx_HAL_Driver/Src/stm32f4xx_hal_i2s_ex.c **** 
 347              		.loc 1 265 0
 348 008c 2368     		ldr	r3, [r4]
 349 008e A24A     		ldr	r2, .L84
 350 0090 9342     		cmp	r3, r2
 351 0092 02D1     		bne	.L66
 352 0094 A2F58062 		sub	r2, r2, #1024
 353 0098 01E0     		b	.L35
 354              	.L66:
 355 009a 4FF04022 		mov	r2, #1073758208
 356              	.L35:
 265:Drivers/STM32F4xx_HAL_Driver/Src/stm32f4xx_hal_i2s_ex.c **** 
 357              		.loc 1 265 0 is_stmt 0 discriminator 4
 358 009e 9E49     		ldr	r1, .L84
 359 00a0 8B42     		cmp	r3, r1
 360 00a2 01D1     		bne	.L67
 265:Drivers/STM32F4xx_HAL_Driver/Src/stm32f4xx_hal_i2s_ex.c **** 
 361              		.loc 1 265 0
 362 00a4 9D4B     		ldr	r3, .L84+4
 363 00a6 01E0     		b	.L36
 364              	.L67:
 365 00a8 4FF04023 		mov	r3, #1073758208
 366              	.L36:
 265:Drivers/STM32F4xx_HAL_Driver/Src/stm32f4xx_hal_i2s_ex.c **** 
 367              		.loc 1 265 0 discriminator 8
 368 00ac DB69     		ldr	r3, [r3, #28]
 369 00ae 43F48063 		orr	r3, r3, #1024
 370 00b2 D361     		str	r3, [r2, #28]
 268:Drivers/STM32F4xx_HAL_Driver/Src/stm32f4xx_hal_i2s_ex.c **** 
 371              		.loc 1 268 0 is_stmt 1 discriminator 8
 372 00b4 2268     		ldr	r2, [r4]
 373 00b6 D369     		ldr	r3, [r2, #28]
 374 00b8 43F48063 		orr	r3, r3, #1024
 375 00bc D361     		str	r3, [r2, #28]
 271:Drivers/STM32F4xx_HAL_Driver/Src/stm32f4xx_hal_i2s_ex.c ****       {
 376              		.loc 1 271 0 discriminator 8
 377 00be 2268     		ldr	r2, [r4]
 378 00c0 D369     		ldr	r3, [r2, #28]
 379 00c2 03F44073 		and	r3, r3, #768
 380 00c6 B3F5007F 		cmp	r3, #512
 381 00ca 40F09A80 		bne	.L40
 382              	.LBB2:
 275:Drivers/STM32F4xx_HAL_Driver/Src/stm32f4xx_hal_i2s_ex.c ****       }
 383              		.loc 1 275 0
 384 00ce 0023     		movs	r3, #0
 385 00d0 0293     		str	r3, [sp, #8]
 386 00d2 914B     		ldr	r3, .L84
 387 00d4 9A42     		cmp	r2, r3
 388 00d6 02D1     		bne	.L68
ARM GAS  /tmp/ccPpxa3p.s 			page 29


 389 00d8 A3F58063 		sub	r3, r3, #1024
 390 00dc 01E0     		b	.L38
 391              	.L68:
 392 00de 4FF04023 		mov	r3, #1073758208
 393              	.L38:
 275:Drivers/STM32F4xx_HAL_Driver/Src/stm32f4xx_hal_i2s_ex.c ****       }
 394              		.loc 1 275 0 is_stmt 0 discriminator 4
 395 00e2 DB68     		ldr	r3, [r3, #12]
 396 00e4 0293     		str	r3, [sp, #8]
 397 00e6 8C4B     		ldr	r3, .L84
 398 00e8 9A42     		cmp	r2, r3
 399 00ea 02D1     		bne	.L69
 275:Drivers/STM32F4xx_HAL_Driver/Src/stm32f4xx_hal_i2s_ex.c ****       }
 400              		.loc 1 275 0
 401 00ec A3F58063 		sub	r3, r3, #1024
 402 00f0 01E0     		b	.L39
 403              	.L69:
 404 00f2 4FF04023 		mov	r3, #1073758208
 405              	.L39:
 275:Drivers/STM32F4xx_HAL_Driver/Src/stm32f4xx_hal_i2s_ex.c ****       }
 406              		.loc 1 275 0 discriminator 8
 407 00f6 9B68     		ldr	r3, [r3, #8]
 408 00f8 0293     		str	r3, [sp, #8]
 409 00fa 029B     		ldr	r3, [sp, #8]
 410 00fc 81E0     		b	.L40
 411              	.L47:
 412              	.LBE2:
 280:Drivers/STM32F4xx_HAL_Driver/Src/stm32f4xx_hal_i2s_ex.c ****         {
 413              		.loc 1 280 0 is_stmt 1
 414 00fe 638D     		ldrh	r3, [r4, #42]
 415 0100 9BB2     		uxth	r3, r3
 416 0102 002B     		cmp	r3, #0
 417 0104 35D0     		beq	.L41
 283:Drivers/STM32F4xx_HAL_Driver/Src/stm32f4xx_hal_i2s_ex.c ****           {
 418              		.loc 1 283 0
 419 0106 0023     		movs	r3, #0
 420 0108 0093     		str	r3, [sp]
 421 010a 2046     		mov	r0, r4
 422 010c 0221     		movs	r1, #2
 423 010e 0122     		movs	r2, #1
 424 0110 0E9B     		ldr	r3, [sp, #56]
 425 0112 FFF7FEFF 		bl	I2SEx_FullDuplexWaitFlagStateUntilTimeout
 426              	.LVL22:
 427 0116 40B1     		cbz	r0, .L42
 286:Drivers/STM32F4xx_HAL_Driver/Src/stm32f4xx_hal_i2s_ex.c ****             HAL_I2S_ErrorCallback(hi2s);
 428              		.loc 1 286 0
 429 0118 636C     		ldr	r3, [r4, #68]
 430 011a 43F00103 		orr	r3, r3, #1
 431 011e 6364     		str	r3, [r4, #68]
 287:Drivers/STM32F4xx_HAL_Driver/Src/stm32f4xx_hal_i2s_ex.c ****             return HAL_TIMEOUT;
 432              		.loc 1 287 0
 433 0120 2046     		mov	r0, r4
 434 0122 FFF7FEFF 		bl	HAL_I2S_ErrorCallback
 435              	.LVL23:
 288:Drivers/STM32F4xx_HAL_Driver/Src/stm32f4xx_hal_i2s_ex.c ****           }
 436              		.loc 1 288 0
 437 0126 0320     		movs	r0, #3
ARM GAS  /tmp/ccPpxa3p.s 			page 30


 438 0128 4EE1     		b	.L29
 439              	.L42:
 291:Drivers/STM32F4xx_HAL_Driver/Src/stm32f4xx_hal_i2s_ex.c ****           hi2s->TxXferCount--;
 440              		.loc 1 291 0
 441 012a 2368     		ldr	r3, [r4]
 442 012c B11C     		adds	r1, r6, #2
 443              	.LVL24:
 444 012e 3288     		ldrh	r2, [r6]
 445 0130 DA60     		str	r2, [r3, #12]
 292:Drivers/STM32F4xx_HAL_Driver/Src/stm32f4xx_hal_i2s_ex.c **** 
 446              		.loc 1 292 0
 447 0132 638D     		ldrh	r3, [r4, #42]
 448 0134 013B     		subs	r3, r3, #1
 449 0136 9BB2     		uxth	r3, r3
 450 0138 6385     		strh	r3, [r4, #42]	@ movhi
 295:Drivers/STM32F4xx_HAL_Driver/Src/stm32f4xx_hal_i2s_ex.c ****           {
 451              		.loc 1 295 0
 452 013a 2368     		ldr	r3, [r4]
 453 013c 9A68     		ldr	r2, [r3, #8]
 454 013e 12F0080F 		tst	r2, #8
 455 0142 13D0     		beq	.L70
 295:Drivers/STM32F4xx_HAL_Driver/Src/stm32f4xx_hal_i2s_ex.c ****           {
 456              		.loc 1 295 0 is_stmt 0 discriminator 1
 457 0144 A7B9     		cbnz	r7, .L71
 458              	.LBB3:
 298:Drivers/STM32F4xx_HAL_Driver/Src/stm32f4xx_hal_i2s_ex.c **** 
 459              		.loc 1 298 0 is_stmt 1
 460 0146 0022     		movs	r2, #0
 461 0148 0392     		str	r2, [sp, #12]
 462 014a 9B68     		ldr	r3, [r3, #8]
 463 014c 0393     		str	r3, [sp, #12]
 464 014e 039B     		ldr	r3, [sp, #12]
 465              	.LBE3:
 301:Drivers/STM32F4xx_HAL_Driver/Src/stm32f4xx_hal_i2s_ex.c **** 
 466              		.loc 1 301 0
 467 0150 0125     		movs	r5, #1
 468              	.LVL25:
 469 0152 84F84150 		strb	r5, [r4, #65]
 304:Drivers/STM32F4xx_HAL_Driver/Src/stm32f4xx_hal_i2s_ex.c **** 
 470              		.loc 1 304 0
 471 0156 84F84020 		strb	r2, [r4, #64]
 307:Drivers/STM32F4xx_HAL_Driver/Src/stm32f4xx_hal_i2s_ex.c ****             HAL_I2S_ErrorCallback(hi2s);
 472              		.loc 1 307 0
 473 015a 636C     		ldr	r3, [r4, #68]
 474 015c 43F00403 		orr	r3, r3, #4
 475 0160 6364     		str	r3, [r4, #68]
 308:Drivers/STM32F4xx_HAL_Driver/Src/stm32f4xx_hal_i2s_ex.c **** 
 476              		.loc 1 308 0
 477 0162 2046     		mov	r0, r4
 478 0164 FFF7FEFF 		bl	HAL_I2S_ErrorCallback
 479              	.LVL26:
 310:Drivers/STM32F4xx_HAL_Driver/Src/stm32f4xx_hal_i2s_ex.c ****           }
 480              		.loc 1 310 0
 481 0168 2846     		mov	r0, r5
 482 016a 2DE1     		b	.L29
 483              	.LVL27:
 484              	.L70:
ARM GAS  /tmp/ccPpxa3p.s 			page 31


 291:Drivers/STM32F4xx_HAL_Driver/Src/stm32f4xx_hal_i2s_ex.c ****           hi2s->TxXferCount--;
 485              		.loc 1 291 0
 486 016c 0E46     		mov	r6, r1
 487 016e 00E0     		b	.L41
 488              	.L71:
 489 0170 0E46     		mov	r6, r1
 490              	.LVL28:
 491              	.L41:
 313:Drivers/STM32F4xx_HAL_Driver/Src/stm32f4xx_hal_i2s_ex.c ****         {
 492              		.loc 1 313 0
 493 0172 638E     		ldrh	r3, [r4, #50]
 494 0174 9BB2     		uxth	r3, r3
 495 0176 002B     		cmp	r3, #0
 496 0178 43D0     		beq	.L40
 316:Drivers/STM32F4xx_HAL_Driver/Src/stm32f4xx_hal_i2s_ex.c ****           {
 497              		.loc 1 316 0
 498 017a 0122     		movs	r2, #1
 499 017c 0092     		str	r2, [sp]
 500 017e 2046     		mov	r0, r4
 501 0180 1146     		mov	r1, r2
 502 0182 0E9B     		ldr	r3, [sp, #56]
 503 0184 FFF7FEFF 		bl	I2SEx_FullDuplexWaitFlagStateUntilTimeout
 504              	.LVL29:
 505 0188 40B1     		cbz	r0, .L44
 319:Drivers/STM32F4xx_HAL_Driver/Src/stm32f4xx_hal_i2s_ex.c ****             HAL_I2S_ErrorCallback(hi2s);
 506              		.loc 1 319 0
 507 018a 636C     		ldr	r3, [r4, #68]
 508 018c 43F00103 		orr	r3, r3, #1
 509 0190 6364     		str	r3, [r4, #68]
 320:Drivers/STM32F4xx_HAL_Driver/Src/stm32f4xx_hal_i2s_ex.c ****             return HAL_TIMEOUT;
 510              		.loc 1 320 0
 511 0192 2046     		mov	r0, r4
 512 0194 FFF7FEFF 		bl	HAL_I2S_ErrorCallback
 513              	.LVL30:
 321:Drivers/STM32F4xx_HAL_Driver/Src/stm32f4xx_hal_i2s_ex.c ****           }
 514              		.loc 1 321 0
 515 0198 0320     		movs	r0, #3
 516 019a 15E1     		b	.L29
 517              	.L44:
 324:Drivers/STM32F4xx_HAL_Driver/Src/stm32f4xx_hal_i2s_ex.c ****           hi2s->RxXferCount--;
 518              		.loc 1 324 0
 519 019c A91C     		adds	r1, r5, #2
 520              	.LVL31:
 521 019e 2268     		ldr	r2, [r4]
 522 01a0 5D4B     		ldr	r3, .L84
 523 01a2 9A42     		cmp	r2, r3
 524 01a4 02D1     		bne	.L72
 525 01a6 A3F58063 		sub	r3, r3, #1024
 526 01aa 01E0     		b	.L45
 527              	.L72:
 528 01ac 4FF04023 		mov	r3, #1073758208
 529              	.L45:
 324:Drivers/STM32F4xx_HAL_Driver/Src/stm32f4xx_hal_i2s_ex.c ****           hi2s->RxXferCount--;
 530              		.loc 1 324 0 is_stmt 0 discriminator 4
 531 01b0 DB68     		ldr	r3, [r3, #12]
 532 01b2 2B80     		strh	r3, [r5]	@ movhi
 325:Drivers/STM32F4xx_HAL_Driver/Src/stm32f4xx_hal_i2s_ex.c **** 
ARM GAS  /tmp/ccPpxa3p.s 			page 32


 533              		.loc 1 325 0 is_stmt 1 discriminator 4
 534 01b4 638E     		ldrh	r3, [r4, #50]
 535 01b6 013B     		subs	r3, r3, #1
 536 01b8 9BB2     		uxth	r3, r3
 537 01ba 6386     		strh	r3, [r4, #50]	@ movhi
 328:Drivers/STM32F4xx_HAL_Driver/Src/stm32f4xx_hal_i2s_ex.c ****           {
 538              		.loc 1 328 0 discriminator 4
 539 01bc 2368     		ldr	r3, [r4]
 540 01be 564A     		ldr	r2, .L84
 541 01c0 9342     		cmp	r3, r2
 542 01c2 02D1     		bne	.L73
 328:Drivers/STM32F4xx_HAL_Driver/Src/stm32f4xx_hal_i2s_ex.c ****           {
 543              		.loc 1 328 0 is_stmt 0
 544 01c4 A2F58062 		sub	r2, r2, #1024
 545 01c8 01E0     		b	.L46
 546              	.L73:
 547 01ca 4FF04022 		mov	r2, #1073758208
 548              	.L46:
 328:Drivers/STM32F4xx_HAL_Driver/Src/stm32f4xx_hal_i2s_ex.c ****           {
 549              		.loc 1 328 0 discriminator 4
 550 01ce 9268     		ldr	r2, [r2, #8]
 551 01d0 12F0400F 		tst	r2, #64
 552 01d4 14D0     		beq	.L74
 553              	.LBB4:
 331:Drivers/STM32F4xx_HAL_Driver/Src/stm32f4xx_hal_i2s_ex.c **** 
 554              		.loc 1 331 0 is_stmt 1
 555 01d6 0022     		movs	r2, #0
 556 01d8 0492     		str	r2, [sp, #16]
 557 01da D968     		ldr	r1, [r3, #12]
 558              	.LVL32:
 559 01dc 0491     		str	r1, [sp, #16]
 560 01de 9B68     		ldr	r3, [r3, #8]
 561 01e0 0493     		str	r3, [sp, #16]
 562 01e2 049B     		ldr	r3, [sp, #16]
 563              	.LBE4:
 334:Drivers/STM32F4xx_HAL_Driver/Src/stm32f4xx_hal_i2s_ex.c **** 
 564              		.loc 1 334 0
 565 01e4 0125     		movs	r5, #1
 566              	.LVL33:
 567 01e6 84F84150 		strb	r5, [r4, #65]
 337:Drivers/STM32F4xx_HAL_Driver/Src/stm32f4xx_hal_i2s_ex.c **** 
 568              		.loc 1 337 0
 569 01ea 84F84020 		strb	r2, [r4, #64]
 340:Drivers/STM32F4xx_HAL_Driver/Src/stm32f4xx_hal_i2s_ex.c ****             HAL_I2S_ErrorCallback(hi2s);
 570              		.loc 1 340 0
 571 01ee 636C     		ldr	r3, [r4, #68]
 572 01f0 43F00203 		orr	r3, r3, #2
 573 01f4 6364     		str	r3, [r4, #68]
 341:Drivers/STM32F4xx_HAL_Driver/Src/stm32f4xx_hal_i2s_ex.c **** 
 574              		.loc 1 341 0
 575 01f6 2046     		mov	r0, r4
 576 01f8 FFF7FEFF 		bl	HAL_I2S_ErrorCallback
 577              	.LVL34:
 343:Drivers/STM32F4xx_HAL_Driver/Src/stm32f4xx_hal_i2s_ex.c ****           }
 578              		.loc 1 343 0
 579 01fc 2846     		mov	r0, r5
 580 01fe E3E0     		b	.L29
ARM GAS  /tmp/ccPpxa3p.s 			page 33


 581              	.LVL35:
 582              	.L74:
 324:Drivers/STM32F4xx_HAL_Driver/Src/stm32f4xx_hal_i2s_ex.c ****           hi2s->RxXferCount--;
 583              		.loc 1 324 0
 584 0200 0D46     		mov	r5, r1
 585              	.LVL36:
 586              	.L40:
 278:Drivers/STM32F4xx_HAL_Driver/Src/stm32f4xx_hal_i2s_ex.c ****       {
 587              		.loc 1 278 0
 588 0202 638E     		ldrh	r3, [r4, #50]
 589 0204 9BB2     		uxth	r3, r3
 590 0206 002B     		cmp	r3, #0
 591 0208 7FF479AF 		bne	.L47
 278:Drivers/STM32F4xx_HAL_Driver/Src/stm32f4xx_hal_i2s_ex.c ****       {
 592              		.loc 1 278 0 is_stmt 0 discriminator 1
 593 020c 638D     		ldrh	r3, [r4, #42]
 594 020e 9BB2     		uxth	r3, r3
 595 0210 002B     		cmp	r3, #0
 596 0212 7FF474AF 		bne	.L47
 597 0216 C7E0     		b	.L48
 598              	.LVL37:
 599              	.L34:
 352:Drivers/STM32F4xx_HAL_Driver/Src/stm32f4xx_hal_i2s_ex.c ****       hi2s->TxXferCount--;
 600              		.loc 1 352 0 is_stmt 1
 601 0218 3F4A     		ldr	r2, .L84
 602 021a 9342     		cmp	r3, r2
 603 021c 01D1     		bne	.L75
 604 021e 3F4B     		ldr	r3, .L84+4
 605 0220 01E0     		b	.L49
 606              	.L75:
 607 0222 4FF04023 		mov	r3, #1073758208
 608              	.L49:
 352:Drivers/STM32F4xx_HAL_Driver/Src/stm32f4xx_hal_i2s_ex.c ****       hi2s->TxXferCount--;
 609              		.loc 1 352 0 is_stmt 0 discriminator 4
 610 0226 861C     		adds	r6, r0, #2
 611              	.LVL38:
 612 0228 0288     		ldrh	r2, [r0]
 613 022a DA60     		str	r2, [r3, #12]
 353:Drivers/STM32F4xx_HAL_Driver/Src/stm32f4xx_hal_i2s_ex.c **** 
 614              		.loc 1 353 0 is_stmt 1 discriminator 4
 615 022c 638D     		ldrh	r3, [r4, #42]
 616 022e 013B     		subs	r3, r3, #1
 617 0230 9BB2     		uxth	r3, r3
 618 0232 6385     		strh	r3, [r4, #42]	@ movhi
 356:Drivers/STM32F4xx_HAL_Driver/Src/stm32f4xx_hal_i2s_ex.c ****       
 619              		.loc 1 356 0 discriminator 4
 620 0234 2368     		ldr	r3, [r4]
 621 0236 384A     		ldr	r2, .L84
 622 0238 9342     		cmp	r3, r2
 623 023a 02D1     		bne	.L76
 356:Drivers/STM32F4xx_HAL_Driver/Src/stm32f4xx_hal_i2s_ex.c ****       
 624              		.loc 1 356 0 is_stmt 0
 625 023c A2F58062 		sub	r2, r2, #1024
 626 0240 01E0     		b	.L50
 627              	.L76:
 628 0242 4FF04022 		mov	r2, #1073758208
 629              	.L50:
ARM GAS  /tmp/ccPpxa3p.s 			page 34


 356:Drivers/STM32F4xx_HAL_Driver/Src/stm32f4xx_hal_i2s_ex.c ****       
 630              		.loc 1 356 0 discriminator 4
 631 0246 3449     		ldr	r1, .L84
 632 0248 8B42     		cmp	r3, r1
 633 024a 01D1     		bne	.L77
 356:Drivers/STM32F4xx_HAL_Driver/Src/stm32f4xx_hal_i2s_ex.c ****       
 634              		.loc 1 356 0
 635 024c 334B     		ldr	r3, .L84+4
 636 024e 01E0     		b	.L51
 637              	.L77:
 638 0250 4FF04023 		mov	r3, #1073758208
 639              	.L51:
 356:Drivers/STM32F4xx_HAL_Driver/Src/stm32f4xx_hal_i2s_ex.c ****       
 640              		.loc 1 356 0 discriminator 8
 641 0254 DB69     		ldr	r3, [r3, #28]
 642 0256 43F48063 		orr	r3, r3, #1024
 643 025a D361     		str	r3, [r2, #28]
 359:Drivers/STM32F4xx_HAL_Driver/Src/stm32f4xx_hal_i2s_ex.c **** 
 644              		.loc 1 359 0 is_stmt 1 discriminator 8
 645 025c 2268     		ldr	r2, [r4]
 646 025e D369     		ldr	r3, [r2, #28]
 647 0260 43F48063 		orr	r3, r3, #1024
 648 0264 D361     		str	r3, [r2, #28]
 362:Drivers/STM32F4xx_HAL_Driver/Src/stm32f4xx_hal_i2s_ex.c ****       {
 649              		.loc 1 362 0 discriminator 8
 650 0266 2268     		ldr	r2, [r4]
 651 0268 D369     		ldr	r3, [r2, #28]
 652 026a 03F44073 		and	r3, r3, #768
 653 026e B3F5407F 		cmp	r3, #768
 654 0272 40F08F80 		bne	.L53
 655              	.LBB5:
 366:Drivers/STM32F4xx_HAL_Driver/Src/stm32f4xx_hal_i2s_ex.c ****       }
 656              		.loc 1 366 0
 657 0276 0023     		movs	r3, #0
 658 0278 0593     		str	r3, [sp, #20]
 659 027a D368     		ldr	r3, [r2, #12]
 660 027c 0593     		str	r3, [sp, #20]
 661 027e 9368     		ldr	r3, [r2, #8]
 662 0280 0593     		str	r3, [sp, #20]
 663 0282 059B     		ldr	r3, [sp, #20]
 664 0284 86E0     		b	.L53
 665              	.L60:
 666              	.LBE5:
 371:Drivers/STM32F4xx_HAL_Driver/Src/stm32f4xx_hal_i2s_ex.c ****         {
 667              		.loc 1 371 0
 668 0286 638D     		ldrh	r3, [r4, #42]
 669 0288 9BB2     		uxth	r3, r3
 670 028a 002B     		cmp	r3, #0
 671 028c 49D0     		beq	.L54
 374:Drivers/STM32F4xx_HAL_Driver/Src/stm32f4xx_hal_i2s_ex.c ****           {
 672              		.loc 1 374 0
 673 028e 0122     		movs	r2, #1
 674 0290 0092     		str	r2, [sp]
 675 0292 2046     		mov	r0, r4
 676 0294 0221     		movs	r1, #2
 677 0296 0E9B     		ldr	r3, [sp, #56]
 678 0298 FFF7FEFF 		bl	I2SEx_FullDuplexWaitFlagStateUntilTimeout
ARM GAS  /tmp/ccPpxa3p.s 			page 35


 679              	.LVL39:
 680 029c 40B1     		cbz	r0, .L55
 377:Drivers/STM32F4xx_HAL_Driver/Src/stm32f4xx_hal_i2s_ex.c ****             HAL_I2S_ErrorCallback(hi2s);
 681              		.loc 1 377 0
 682 029e 636C     		ldr	r3, [r4, #68]
 683 02a0 43F00103 		orr	r3, r3, #1
 684 02a4 6364     		str	r3, [r4, #68]
 378:Drivers/STM32F4xx_HAL_Driver/Src/stm32f4xx_hal_i2s_ex.c ****             return HAL_TIMEOUT;
 685              		.loc 1 378 0
 686 02a6 2046     		mov	r0, r4
 687 02a8 FFF7FEFF 		bl	HAL_I2S_ErrorCallback
 688              	.LVL40:
 379:Drivers/STM32F4xx_HAL_Driver/Src/stm32f4xx_hal_i2s_ex.c ****           }
 689              		.loc 1 379 0
 690 02ac 0320     		movs	r0, #3
 691 02ae 8BE0     		b	.L29
 692              	.L55:
 382:Drivers/STM32F4xx_HAL_Driver/Src/stm32f4xx_hal_i2s_ex.c ****           hi2s->TxXferCount--;
 693              		.loc 1 382 0
 694 02b0 2268     		ldr	r2, [r4]
 695 02b2 194B     		ldr	r3, .L84
 696 02b4 9A42     		cmp	r2, r3
 697 02b6 01D1     		bne	.L78
 698 02b8 184A     		ldr	r2, .L84+4
 699 02ba 01E0     		b	.L56
 700              	.L78:
 701 02bc 4FF04022 		mov	r2, #1073758208
 702              	.L56:
 382:Drivers/STM32F4xx_HAL_Driver/Src/stm32f4xx_hal_i2s_ex.c ****           hi2s->TxXferCount--;
 703              		.loc 1 382 0 is_stmt 0 discriminator 4
 704 02c0 B11C     		adds	r1, r6, #2
 705              	.LVL41:
 706 02c2 3388     		ldrh	r3, [r6]
 707 02c4 D360     		str	r3, [r2, #12]
 383:Drivers/STM32F4xx_HAL_Driver/Src/stm32f4xx_hal_i2s_ex.c **** 
 708              		.loc 1 383 0 is_stmt 1 discriminator 4
 709 02c6 638D     		ldrh	r3, [r4, #42]
 710 02c8 013B     		subs	r3, r3, #1
 711 02ca 9BB2     		uxth	r3, r3
 712 02cc 6385     		strh	r3, [r4, #42]	@ movhi
 386:Drivers/STM32F4xx_HAL_Driver/Src/stm32f4xx_hal_i2s_ex.c ****           {
 713              		.loc 1 386 0 discriminator 4
 714 02ce 2368     		ldr	r3, [r4]
 715 02d0 114A     		ldr	r2, .L84
 716 02d2 9342     		cmp	r3, r2
 717 02d4 02D1     		bne	.L79
 386:Drivers/STM32F4xx_HAL_Driver/Src/stm32f4xx_hal_i2s_ex.c ****           {
 718              		.loc 1 386 0 is_stmt 0
 719 02d6 A2F58062 		sub	r2, r2, #1024
 720 02da 01E0     		b	.L57
 721              	.L79:
 722 02dc 4FF04022 		mov	r2, #1073758208
 723              	.L57:
 386:Drivers/STM32F4xx_HAL_Driver/Src/stm32f4xx_hal_i2s_ex.c ****           {
 724              		.loc 1 386 0 discriminator 4
 725 02e0 9268     		ldr	r2, [r2, #8]
 726 02e2 12F0080F 		tst	r2, #8
ARM GAS  /tmp/ccPpxa3p.s 			page 36


 727 02e6 15D0     		beq	.L80
 386:Drivers/STM32F4xx_HAL_Driver/Src/stm32f4xx_hal_i2s_ex.c ****           {
 728              		.loc 1 386 0 discriminator 5
 729 02e8 B7F5807F 		cmp	r7, #256
 730 02ec 18D1     		bne	.L81
 731              	.LBB6:
 389:Drivers/STM32F4xx_HAL_Driver/Src/stm32f4xx_hal_i2s_ex.c **** 
 732              		.loc 1 389 0 is_stmt 1
 733 02ee 0022     		movs	r2, #0
 734 02f0 0692     		str	r2, [sp, #24]
 735 02f2 9B68     		ldr	r3, [r3, #8]
 736 02f4 0693     		str	r3, [sp, #24]
 737 02f6 069B     		ldr	r3, [sp, #24]
 738              	.LBE6:
 392:Drivers/STM32F4xx_HAL_Driver/Src/stm32f4xx_hal_i2s_ex.c **** 
 739              		.loc 1 392 0
 740 02f8 0125     		movs	r5, #1
 741              	.LVL42:
 742 02fa 84F84150 		strb	r5, [r4, #65]
 395:Drivers/STM32F4xx_HAL_Driver/Src/stm32f4xx_hal_i2s_ex.c **** 
 743              		.loc 1 395 0
 744 02fe 84F84020 		strb	r2, [r4, #64]
 398:Drivers/STM32F4xx_HAL_Driver/Src/stm32f4xx_hal_i2s_ex.c ****             HAL_I2S_ErrorCallback(hi2s);
 745              		.loc 1 398 0
 746 0302 636C     		ldr	r3, [r4, #68]
 747 0304 43F00403 		orr	r3, r3, #4
 748 0308 6364     		str	r3, [r4, #68]
 399:Drivers/STM32F4xx_HAL_Driver/Src/stm32f4xx_hal_i2s_ex.c **** 
 749              		.loc 1 399 0
 750 030a 2046     		mov	r0, r4
 751 030c FFF7FEFF 		bl	HAL_I2S_ErrorCallback
 752              	.LVL43:
 401:Drivers/STM32F4xx_HAL_Driver/Src/stm32f4xx_hal_i2s_ex.c ****           }
 753              		.loc 1 401 0
 754 0310 2846     		mov	r0, r5
 755 0312 59E0     		b	.L29
 756              	.LVL44:
 757              	.L80:
 382:Drivers/STM32F4xx_HAL_Driver/Src/stm32f4xx_hal_i2s_ex.c ****           hi2s->TxXferCount--;
 758              		.loc 1 382 0
 759 0314 0E46     		mov	r6, r1
 760 0316 04E0     		b	.L54
 761              	.L85:
 762              		.align	2
 763              	.L84:
 764 0318 00380040 		.word	1073756160
 765 031c 00340040 		.word	1073755136
 766              	.L81:
 767 0320 0E46     		mov	r6, r1
 768              	.LVL45:
 769              	.L54:
 404:Drivers/STM32F4xx_HAL_Driver/Src/stm32f4xx_hal_i2s_ex.c ****         {
 770              		.loc 1 404 0
 771 0322 638E     		ldrh	r3, [r4, #50]
 772 0324 9BB2     		uxth	r3, r3
 773 0326 002B     		cmp	r3, #0
 774 0328 34D0     		beq	.L53
ARM GAS  /tmp/ccPpxa3p.s 			page 37


 407:Drivers/STM32F4xx_HAL_Driver/Src/stm32f4xx_hal_i2s_ex.c ****           {
 775              		.loc 1 407 0
 776 032a 0023     		movs	r3, #0
 777 032c 0093     		str	r3, [sp]
 778 032e 2046     		mov	r0, r4
 779 0330 0121     		movs	r1, #1
 780 0332 0A46     		mov	r2, r1
 781 0334 0E9B     		ldr	r3, [sp, #56]
 782 0336 FFF7FEFF 		bl	I2SEx_FullDuplexWaitFlagStateUntilTimeout
 783              	.LVL46:
 784 033a 40B1     		cbz	r0, .L59
 410:Drivers/STM32F4xx_HAL_Driver/Src/stm32f4xx_hal_i2s_ex.c ****             HAL_I2S_ErrorCallback(hi2s);
 785              		.loc 1 410 0
 786 033c 636C     		ldr	r3, [r4, #68]
 787 033e 43F00103 		orr	r3, r3, #1
 788 0342 6364     		str	r3, [r4, #68]
 411:Drivers/STM32F4xx_HAL_Driver/Src/stm32f4xx_hal_i2s_ex.c ****             return HAL_TIMEOUT;
 789              		.loc 1 411 0
 790 0344 2046     		mov	r0, r4
 791 0346 FFF7FEFF 		bl	HAL_I2S_ErrorCallback
 792              	.LVL47:
 412:Drivers/STM32F4xx_HAL_Driver/Src/stm32f4xx_hal_i2s_ex.c ****           }
 793              		.loc 1 412 0
 794 034a 0320     		movs	r0, #3
 795 034c 3CE0     		b	.L29
 796              	.L59:
 415:Drivers/STM32F4xx_HAL_Driver/Src/stm32f4xx_hal_i2s_ex.c ****           hi2s->RxXferCount--;
 797              		.loc 1 415 0
 798 034e A91C     		adds	r1, r5, #2
 799              	.LVL48:
 800 0350 2368     		ldr	r3, [r4]
 801 0352 DB68     		ldr	r3, [r3, #12]
 802 0354 2B80     		strh	r3, [r5]	@ movhi
 416:Drivers/STM32F4xx_HAL_Driver/Src/stm32f4xx_hal_i2s_ex.c **** 
 803              		.loc 1 416 0
 804 0356 638E     		ldrh	r3, [r4, #50]
 805 0358 013B     		subs	r3, r3, #1
 806 035a 9BB2     		uxth	r3, r3
 807 035c 6386     		strh	r3, [r4, #50]	@ movhi
 419:Drivers/STM32F4xx_HAL_Driver/Src/stm32f4xx_hal_i2s_ex.c ****           {
 808              		.loc 1 419 0
 809 035e 2368     		ldr	r3, [r4]
 810 0360 9A68     		ldr	r2, [r3, #8]
 811 0362 12F0400F 		tst	r2, #64
 812 0366 14D0     		beq	.L82
 813              	.LBB7:
 422:Drivers/STM32F4xx_HAL_Driver/Src/stm32f4xx_hal_i2s_ex.c **** 
 814              		.loc 1 422 0
 815 0368 0022     		movs	r2, #0
 816 036a 0792     		str	r2, [sp, #28]
 817 036c D968     		ldr	r1, [r3, #12]
 818              	.LVL49:
 819 036e 0791     		str	r1, [sp, #28]
 820 0370 9B68     		ldr	r3, [r3, #8]
 821 0372 0793     		str	r3, [sp, #28]
 822 0374 079B     		ldr	r3, [sp, #28]
 823              	.LBE7:
ARM GAS  /tmp/ccPpxa3p.s 			page 38


 425:Drivers/STM32F4xx_HAL_Driver/Src/stm32f4xx_hal_i2s_ex.c **** 
 824              		.loc 1 425 0
 825 0376 0125     		movs	r5, #1
 826              	.LVL50:
 827 0378 84F84150 		strb	r5, [r4, #65]
 428:Drivers/STM32F4xx_HAL_Driver/Src/stm32f4xx_hal_i2s_ex.c **** 
 828              		.loc 1 428 0
 829 037c 84F84020 		strb	r2, [r4, #64]
 431:Drivers/STM32F4xx_HAL_Driver/Src/stm32f4xx_hal_i2s_ex.c ****             HAL_I2S_ErrorCallback(hi2s);
 830              		.loc 1 431 0
 831 0380 636C     		ldr	r3, [r4, #68]
 832 0382 43F00203 		orr	r3, r3, #2
 833 0386 6364     		str	r3, [r4, #68]
 432:Drivers/STM32F4xx_HAL_Driver/Src/stm32f4xx_hal_i2s_ex.c **** 
 834              		.loc 1 432 0
 835 0388 2046     		mov	r0, r4
 836 038a FFF7FEFF 		bl	HAL_I2S_ErrorCallback
 837              	.LVL51:
 434:Drivers/STM32F4xx_HAL_Driver/Src/stm32f4xx_hal_i2s_ex.c ****           }
 838              		.loc 1 434 0
 839 038e 2846     		mov	r0, r5
 840 0390 1AE0     		b	.L29
 841              	.LVL52:
 842              	.L82:
 415:Drivers/STM32F4xx_HAL_Driver/Src/stm32f4xx_hal_i2s_ex.c ****           hi2s->RxXferCount--;
 843              		.loc 1 415 0
 844 0392 0D46     		mov	r5, r1
 845              	.LVL53:
 846              	.L53:
 369:Drivers/STM32F4xx_HAL_Driver/Src/stm32f4xx_hal_i2s_ex.c ****       {
 847              		.loc 1 369 0
 848 0394 638E     		ldrh	r3, [r4, #50]
 849 0396 9BB2     		uxth	r3, r3
 850 0398 002B     		cmp	r3, #0
 851 039a 7FF474AF 		bne	.L60
 369:Drivers/STM32F4xx_HAL_Driver/Src/stm32f4xx_hal_i2s_ex.c ****       {
 852              		.loc 1 369 0 is_stmt 0 discriminator 1
 853 039e 638D     		ldrh	r3, [r4, #42]
 854 03a0 9BB2     		uxth	r3, r3
 855 03a2 002B     		cmp	r3, #0
 856 03a4 7FF46FAF 		bne	.L60
 857              	.L48:
 441:Drivers/STM32F4xx_HAL_Driver/Src/stm32f4xx_hal_i2s_ex.c **** 
 858              		.loc 1 441 0 is_stmt 1
 859 03a8 0123     		movs	r3, #1
 860 03aa 84F84130 		strb	r3, [r4, #65]
 444:Drivers/STM32F4xx_HAL_Driver/Src/stm32f4xx_hal_i2s_ex.c **** 
 861              		.loc 1 444 0
 862 03ae 0020     		movs	r0, #0
 863 03b0 84F84000 		strb	r0, [r4, #64]
 446:Drivers/STM32F4xx_HAL_Driver/Src/stm32f4xx_hal_i2s_ex.c ****   }
 864              		.loc 1 446 0
 865 03b4 08E0     		b	.L29
 866              	.LVL54:
 867              	.L61:
 868              	.LCFI4:
 869              		.cfi_def_cfa_offset 0
ARM GAS  /tmp/ccPpxa3p.s 			page 39


 870              		.cfi_restore 4
 871              		.cfi_restore 5
 872              		.cfi_restore 6
 873              		.cfi_restore 7
 874              		.cfi_restore 14
 222:Drivers/STM32F4xx_HAL_Driver/Src/stm32f4xx_hal_i2s_ex.c ****   }
 875              		.loc 1 222 0
 876 03b6 0120     		movs	r0, #1
 877              	.LVL55:
 452:Drivers/STM32F4xx_HAL_Driver/Src/stm32f4xx_hal_i2s_ex.c **** 
 878              		.loc 1 452 0
 879 03b8 7047     		bx	lr
 880              	.LVL56:
 881              	.L62:
 882              	.LCFI5:
 883              		.cfi_def_cfa_offset 56
 884              		.cfi_offset 4, -20
 885              		.cfi_offset 5, -16
 886              		.cfi_offset 6, -12
 887              		.cfi_offset 7, -8
 888              		.cfi_offset 14, -4
 222:Drivers/STM32F4xx_HAL_Driver/Src/stm32f4xx_hal_i2s_ex.c ****   }
 889              		.loc 1 222 0
 890 03ba 0120     		movs	r0, #1
 891              	.LVL57:
 892 03bc 04E0     		b	.L29
 893              	.LVL58:
 894              	.L63:
 895 03be 0120     		movs	r0, #1
 896              	.LVL59:
 897 03c0 02E0     		b	.L29
 898              	.LVL60:
 899              	.L64:
 450:Drivers/STM32F4xx_HAL_Driver/Src/stm32f4xx_hal_i2s_ex.c ****   }
 900              		.loc 1 450 0
 901 03c2 0220     		movs	r0, #2
 902              	.LVL61:
 903 03c4 00E0     		b	.L29
 904              	.LVL62:
 905              	.L65:
 249:Drivers/STM32F4xx_HAL_Driver/Src/stm32f4xx_hal_i2s_ex.c **** 
 906              		.loc 1 249 0
 907 03c6 0220     		movs	r0, #2
 908              	.LVL63:
 909              	.L29:
 452:Drivers/STM32F4xx_HAL_Driver/Src/stm32f4xx_hal_i2s_ex.c **** 
 910              		.loc 1 452 0
 911 03c8 09B0     		add	sp, sp, #36
 912              	.LCFI6:
 913              		.cfi_def_cfa_offset 20
 914              		@ sp needed
 915 03ca F0BD     		pop	{r4, r5, r6, r7, pc}
 916              		.cfi_endproc
 917              	.LFE123:
 919              		.section	.text.HAL_I2SEx_TransmitReceive_DMA,"ax",%progbits
 920              		.align	2
 921              		.global	HAL_I2SEx_TransmitReceive_DMA
ARM GAS  /tmp/ccPpxa3p.s 			page 40


 922              		.thumb
 923              		.thumb_func
 925              	HAL_I2SEx_TransmitReceive_DMA:
 926              	.LFB125:
 627:Drivers/STM32F4xx_HAL_Driver/Src/stm32f4xx_hal_i2s_ex.c ****   uint32_t *tmp = NULL;
 927              		.loc 1 627 0
 928              		.cfi_startproc
 929              		@ args = 0, pretend = 0, frame = 8
 930              		@ frame_needed = 0, uses_anonymous_args = 0
 931              	.LVL64:
 631:Drivers/STM32F4xx_HAL_Driver/Src/stm32f4xx_hal_i2s_ex.c ****   {
 932              		.loc 1 631 0
 933 0000 0029     		cmp	r1, #0
 934 0002 00F0F580 		beq	.L105
 627:Drivers/STM32F4xx_HAL_Driver/Src/stm32f4xx_hal_i2s_ex.c ****   uint32_t *tmp = NULL;
 935              		.loc 1 627 0 discriminator 1
 936 0006 70B5     		push	{r4, r5, r6, lr}
 937              	.LCFI7:
 938              		.cfi_def_cfa_offset 16
 939              		.cfi_offset 4, -16
 940              		.cfi_offset 5, -12
 941              		.cfi_offset 6, -8
 942              		.cfi_offset 14, -4
 943 0008 82B0     		sub	sp, sp, #8
 944              	.LCFI8:
 945              		.cfi_def_cfa_offset 24
 946 000a 0446     		mov	r4, r0
 947 000c 1546     		mov	r5, r2
 948 000e 0E46     		mov	r6, r1
 631:Drivers/STM32F4xx_HAL_Driver/Src/stm32f4xx_hal_i2s_ex.c ****   {
 949              		.loc 1 631 0 discriminator 1
 950 0010 002A     		cmp	r2, #0
 951 0012 00F0EF80 		beq	.L106
 631:Drivers/STM32F4xx_HAL_Driver/Src/stm32f4xx_hal_i2s_ex.c ****   {
 952              		.loc 1 631 0 is_stmt 0 discriminator 2
 953 0016 002B     		cmp	r3, #0
 954 0018 00F0EE80 		beq	.L107
 636:Drivers/STM32F4xx_HAL_Driver/Src/stm32f4xx_hal_i2s_ex.c ****   {
 955              		.loc 1 636 0 is_stmt 1
 956 001c 90F84120 		ldrb	r2, [r0, #65]	@ zero_extendqisi2
 957              	.LVL65:
 958 0020 D2B2     		uxtb	r2, r2
 959 0022 012A     		cmp	r2, #1
 960 0024 40F0EA80 		bne	.L108
 638:Drivers/STM32F4xx_HAL_Driver/Src/stm32f4xx_hal_i2s_ex.c ****     hi2s->pRxBuffPtr = pRxData;
 961              		.loc 1 638 0
 962 0028 6162     		str	r1, [r4, #36]
 639:Drivers/STM32F4xx_HAL_Driver/Src/stm32f4xx_hal_i2s_ex.c **** 
 963              		.loc 1 639 0
 964 002a C562     		str	r5, [r0, #44]
 641:Drivers/STM32F4xx_HAL_Driver/Src/stm32f4xx_hal_i2s_ex.c ****     /* Check the Data format: When a 16-bit data frame or a 16-bit data frame extended
 965              		.loc 1 641 0
 966 002c 0268     		ldr	r2, [r0]
 967 002e D269     		ldr	r2, [r2, #28]
 968 0030 02F00702 		and	r2, r2, #7
 969              	.LVL66:
 646:Drivers/STM32F4xx_HAL_Driver/Src/stm32f4xx_hal_i2s_ex.c ****     {
ARM GAS  /tmp/ccPpxa3p.s 			page 41


 970              		.loc 1 646 0
 971 0034 032A     		cmp	r2, #3
 972 0036 01D0     		beq	.L88
 646:Drivers/STM32F4xx_HAL_Driver/Src/stm32f4xx_hal_i2s_ex.c ****     {
 973              		.loc 1 646 0 is_stmt 0 discriminator 1
 974 0038 052A     		cmp	r2, #5
 975 003a 06D1     		bne	.L89
 976              	.L88:
 648:Drivers/STM32F4xx_HAL_Driver/Src/stm32f4xx_hal_i2s_ex.c ****       hi2s->TxXferCount = (Size << 1U);
 977              		.loc 1 648 0 is_stmt 1
 978 003c 5B00     		lsls	r3, r3, #1
 979              	.LVL67:
 980 003e 9BB2     		uxth	r3, r3
 981 0040 2385     		strh	r3, [r4, #40]	@ movhi
 649:Drivers/STM32F4xx_HAL_Driver/Src/stm32f4xx_hal_i2s_ex.c ****       hi2s->RxXferSize  = (Size << 1U);
 982              		.loc 1 649 0
 983 0042 6385     		strh	r3, [r4, #42]	@ movhi
 650:Drivers/STM32F4xx_HAL_Driver/Src/stm32f4xx_hal_i2s_ex.c ****       hi2s->RxXferCount = (Size << 1U);
 984              		.loc 1 650 0
 985 0044 2386     		strh	r3, [r4, #48]	@ movhi
 651:Drivers/STM32F4xx_HAL_Driver/Src/stm32f4xx_hal_i2s_ex.c ****     }
 986              		.loc 1 651 0
 987 0046 6386     		strh	r3, [r4, #50]	@ movhi
 988 0048 03E0     		b	.L90
 989              	.LVL68:
 990              	.L89:
 655:Drivers/STM32F4xx_HAL_Driver/Src/stm32f4xx_hal_i2s_ex.c ****       hi2s->TxXferCount = Size;
 991              		.loc 1 655 0
 992 004a 0385     		strh	r3, [r0, #40]	@ movhi
 656:Drivers/STM32F4xx_HAL_Driver/Src/stm32f4xx_hal_i2s_ex.c ****       hi2s->RxXferSize  = Size;
 993              		.loc 1 656 0
 994 004c 4385     		strh	r3, [r0, #42]	@ movhi
 657:Drivers/STM32F4xx_HAL_Driver/Src/stm32f4xx_hal_i2s_ex.c ****       hi2s->RxXferCount = Size;
 995              		.loc 1 657 0
 996 004e 0386     		strh	r3, [r0, #48]	@ movhi
 658:Drivers/STM32F4xx_HAL_Driver/Src/stm32f4xx_hal_i2s_ex.c ****     }
 997              		.loc 1 658 0
 998 0050 4386     		strh	r3, [r0, #50]	@ movhi
 999              	.LVL69:
 1000              	.L90:
 662:Drivers/STM32F4xx_HAL_Driver/Src/stm32f4xx_hal_i2s_ex.c **** 
 1001              		.loc 1 662 0
 1002 0052 94F84030 		ldrb	r3, [r4, #64]	@ zero_extendqisi2
 1003 0056 DBB2     		uxtb	r3, r3
 1004 0058 012B     		cmp	r3, #1
 1005 005a 00F0D180 		beq	.L109
 662:Drivers/STM32F4xx_HAL_Driver/Src/stm32f4xx_hal_i2s_ex.c **** 
 1006              		.loc 1 662 0 is_stmt 0 discriminator 2
 1007 005e 0123     		movs	r3, #1
 1008 0060 84F84030 		strb	r3, [r4, #64]
 664:Drivers/STM32F4xx_HAL_Driver/Src/stm32f4xx_hal_i2s_ex.c ****     hi2s->State     = HAL_I2S_STATE_BUSY_TX_RX;
 1009              		.loc 1 664 0 is_stmt 1 discriminator 2
 1010 0064 0023     		movs	r3, #0
 1011 0066 6364     		str	r3, [r4, #68]
 665:Drivers/STM32F4xx_HAL_Driver/Src/stm32f4xx_hal_i2s_ex.c **** 
 1012              		.loc 1 665 0 discriminator 2
 1013 0068 0523     		movs	r3, #5
ARM GAS  /tmp/ccPpxa3p.s 			page 42


 1014 006a 84F84130 		strb	r3, [r4, #65]
 668:Drivers/STM32F4xx_HAL_Driver/Src/stm32f4xx_hal_i2s_ex.c **** 
 1015              		.loc 1 668 0 discriminator 2
 1016 006e E36B     		ldr	r3, [r4, #60]
 1017 0070 6549     		ldr	r1, .L121
 1018              	.LVL70:
 1019 0072 1964     		str	r1, [r3, #64]
 671:Drivers/STM32F4xx_HAL_Driver/Src/stm32f4xx_hal_i2s_ex.c **** 
 1020              		.loc 1 671 0 discriminator 2
 1021 0074 E36B     		ldr	r3, [r4, #60]
 1022 0076 654A     		ldr	r2, .L121+4
 1023              	.LVL71:
 1024 0078 DA63     		str	r2, [r3, #60]
 674:Drivers/STM32F4xx_HAL_Driver/Src/stm32f4xx_hal_i2s_ex.c **** 
 1025              		.loc 1 674 0 discriminator 2
 1026 007a E06B     		ldr	r0, [r4, #60]
 1027              	.LVL72:
 1028 007c 644B     		ldr	r3, .L121+8
 1029 007e C364     		str	r3, [r0, #76]
 677:Drivers/STM32F4xx_HAL_Driver/Src/stm32f4xx_hal_i2s_ex.c **** 
 1030              		.loc 1 677 0 discriminator 2
 1031 0080 A06B     		ldr	r0, [r4, #56]
 1032 0082 0164     		str	r1, [r0, #64]
 680:Drivers/STM32F4xx_HAL_Driver/Src/stm32f4xx_hal_i2s_ex.c **** 
 1033              		.loc 1 680 0 discriminator 2
 1034 0084 A16B     		ldr	r1, [r4, #56]
 1035 0086 CA63     		str	r2, [r1, #60]
 683:Drivers/STM32F4xx_HAL_Driver/Src/stm32f4xx_hal_i2s_ex.c **** 
 1036              		.loc 1 683 0 discriminator 2
 1037 0088 A26B     		ldr	r2, [r4, #56]
 1038 008a D364     		str	r3, [r2, #76]
 685:Drivers/STM32F4xx_HAL_Driver/Src/stm32f4xx_hal_i2s_ex.c ****     /* Check if the I2S_MODE_MASTER_TX or I2S_MODE_SLAVE_TX Mode is selected */
 1039              		.loc 1 685 0 discriminator 2
 1040 008c 2268     		ldr	r2, [r4]
 1041 008e D369     		ldr	r3, [r2, #28]
 1042 0090 03F44073 		and	r3, r3, #768
 1043              	.LVL73:
 687:Drivers/STM32F4xx_HAL_Driver/Src/stm32f4xx_hal_i2s_ex.c ****     {
 1044              		.loc 1 687 0 discriminator 2
 1045 0094 B3F5007F 		cmp	r3, #512
 1046 0098 01D0     		beq	.L91
 687:Drivers/STM32F4xx_HAL_Driver/Src/stm32f4xx_hal_i2s_ex.c ****     {
 1047              		.loc 1 687 0 is_stmt 0 discriminator 1
 1048 009a 002B     		cmp	r3, #0
 1049 009c 4CD1     		bne	.L92
 1050              	.L91:
 1051              	.LVL74:
 691:Drivers/STM32F4xx_HAL_Driver/Src/stm32f4xx_hal_i2s_ex.c **** 
 1052              		.loc 1 691 0 is_stmt 1
 1053 009e E06B     		ldr	r0, [r4, #60]
 1054 00a0 5C4B     		ldr	r3, .L121+12
 1055              	.LVL75:
 1056 00a2 9A42     		cmp	r2, r3
 1057 00a4 01D1     		bne	.L110
 1058 00a6 5C49     		ldr	r1, .L121+16
 1059 00a8 01E0     		b	.L93
 1060              	.L110:
ARM GAS  /tmp/ccPpxa3p.s 			page 43


 1061 00aa 4FF04021 		mov	r1, #1073758208
 1062              	.L93:
 691:Drivers/STM32F4xx_HAL_Driver/Src/stm32f4xx_hal_i2s_ex.c **** 
 1063              		.loc 1 691 0 is_stmt 0 discriminator 4
 1064 00ae 238E     		ldrh	r3, [r4, #48]
 1065 00b0 0C31     		adds	r1, r1, #12
 1066 00b2 2A46     		mov	r2, r5
 1067 00b4 9BB2     		uxth	r3, r3
 1068 00b6 FFF7FEFF 		bl	HAL_DMA_Start_IT
 1069              	.LVL76:
 694:Drivers/STM32F4xx_HAL_Driver/Src/stm32f4xx_hal_i2s_ex.c **** 
 1070              		.loc 1 694 0 is_stmt 1 discriminator 4
 1071 00ba 2368     		ldr	r3, [r4]
 1072 00bc 554A     		ldr	r2, .L121+12
 1073 00be 9342     		cmp	r3, r2
 1074 00c0 02D1     		bne	.L111
 694:Drivers/STM32F4xx_HAL_Driver/Src/stm32f4xx_hal_i2s_ex.c **** 
 1075              		.loc 1 694 0 is_stmt 0
 1076 00c2 A2F58062 		sub	r2, r2, #1024
 1077 00c6 01E0     		b	.L94
 1078              	.L111:
 1079 00c8 4FF04022 		mov	r2, #1073758208
 1080              	.L94:
 694:Drivers/STM32F4xx_HAL_Driver/Src/stm32f4xx_hal_i2s_ex.c **** 
 1081              		.loc 1 694 0 discriminator 4
 1082 00cc 5149     		ldr	r1, .L121+12
 1083 00ce 8B42     		cmp	r3, r1
 1084 00d0 01D1     		bne	.L112
 694:Drivers/STM32F4xx_HAL_Driver/Src/stm32f4xx_hal_i2s_ex.c **** 
 1085              		.loc 1 694 0
 1086 00d2 514B     		ldr	r3, .L121+16
 1087 00d4 01E0     		b	.L95
 1088              	.L112:
 1089 00d6 4FF04023 		mov	r3, #1073758208
 1090              	.L95:
 694:Drivers/STM32F4xx_HAL_Driver/Src/stm32f4xx_hal_i2s_ex.c **** 
 1091              		.loc 1 694 0 discriminator 8
 1092 00da 5B68     		ldr	r3, [r3, #4]
 1093 00dc 43F00103 		orr	r3, r3, #1
 1094 00e0 5360     		str	r3, [r2, #4]
 1095              	.LVL77:
 698:Drivers/STM32F4xx_HAL_Driver/Src/stm32f4xx_hal_i2s_ex.c **** 
 1096              		.loc 1 698 0 is_stmt 1 discriminator 8
 1097 00e2 2268     		ldr	r2, [r4]
 1098 00e4 238D     		ldrh	r3, [r4, #40]
 1099 00e6 A06B     		ldr	r0, [r4, #56]
 1100 00e8 3146     		mov	r1, r6
 1101 00ea 0C32     		adds	r2, r2, #12
 1102 00ec 9BB2     		uxth	r3, r3
 1103 00ee FFF7FEFF 		bl	HAL_DMA_Start_IT
 1104              	.LVL78:
 701:Drivers/STM32F4xx_HAL_Driver/Src/stm32f4xx_hal_i2s_ex.c **** 
 1105              		.loc 1 701 0 discriminator 8
 1106 00f2 2268     		ldr	r2, [r4]
 1107 00f4 5368     		ldr	r3, [r2, #4]
 1108 00f6 43F00203 		orr	r3, r3, #2
 1109 00fa 5360     		str	r3, [r2, #4]
ARM GAS  /tmp/ccPpxa3p.s 			page 44


 704:Drivers/STM32F4xx_HAL_Driver/Src/stm32f4xx_hal_i2s_ex.c ****       {
 1110              		.loc 1 704 0 discriminator 8
 1111 00fc 2368     		ldr	r3, [r4]
 1112 00fe DA69     		ldr	r2, [r3, #28]
 1113 0100 12F4806F 		tst	r2, #1024
 1114 0104 70D1     		bne	.L96
 707:Drivers/STM32F4xx_HAL_Driver/Src/stm32f4xx_hal_i2s_ex.c **** 
 1115              		.loc 1 707 0
 1116 0106 434A     		ldr	r2, .L121+12
 1117 0108 9342     		cmp	r3, r2
 1118 010a 02D1     		bne	.L113
 1119 010c A2F58062 		sub	r2, r2, #1024
 1120 0110 01E0     		b	.L97
 1121              	.L113:
 1122 0112 4FF04022 		mov	r2, #1073758208
 1123              	.L97:
 707:Drivers/STM32F4xx_HAL_Driver/Src/stm32f4xx_hal_i2s_ex.c **** 
 1124              		.loc 1 707 0 is_stmt 0 discriminator 4
 1125 0116 3F49     		ldr	r1, .L121+12
 1126 0118 8B42     		cmp	r3, r1
 1127 011a 01D1     		bne	.L114
 707:Drivers/STM32F4xx_HAL_Driver/Src/stm32f4xx_hal_i2s_ex.c **** 
 1128              		.loc 1 707 0
 1129 011c 3E4B     		ldr	r3, .L121+16
 1130 011e 01E0     		b	.L98
 1131              	.L114:
 1132 0120 4FF04023 		mov	r3, #1073758208
 1133              	.L98:
 707:Drivers/STM32F4xx_HAL_Driver/Src/stm32f4xx_hal_i2s_ex.c **** 
 1134              		.loc 1 707 0 discriminator 8
 1135 0124 DB69     		ldr	r3, [r3, #28]
 1136 0126 43F48063 		orr	r3, r3, #1024
 1137 012a D361     		str	r3, [r2, #28]
 710:Drivers/STM32F4xx_HAL_Driver/Src/stm32f4xx_hal_i2s_ex.c ****       }
 1138              		.loc 1 710 0 is_stmt 1 discriminator 8
 1139 012c 2268     		ldr	r2, [r4]
 1140 012e D369     		ldr	r3, [r2, #28]
 1141 0130 43F48063 		orr	r3, r3, #1024
 1142 0134 D361     		str	r3, [r2, #28]
 1143 0136 57E0     		b	.L96
 1144              	.LVL79:
 1145              	.L92:
 716:Drivers/STM32F4xx_HAL_Driver/Src/stm32f4xx_hal_i2s_ex.c ****       {
 1146              		.loc 1 716 0
 1147 0138 D369     		ldr	r3, [r2, #28]
 1148              	.LVL80:
 1149 013a 03F44073 		and	r3, r3, #768
 1150 013e B3F5407F 		cmp	r3, #768
 1151 0142 06D1     		bne	.L99
 1152              	.LBB8:
 720:Drivers/STM32F4xx_HAL_Driver/Src/stm32f4xx_hal_i2s_ex.c ****       }
 1153              		.loc 1 720 0
 1154 0144 0023     		movs	r3, #0
 1155 0146 0193     		str	r3, [sp, #4]
 1156 0148 D368     		ldr	r3, [r2, #12]
 1157 014a 0193     		str	r3, [sp, #4]
 1158 014c 9368     		ldr	r3, [r2, #8]
ARM GAS  /tmp/ccPpxa3p.s 			page 45


 1159 014e 0193     		str	r3, [sp, #4]
 1160 0150 019B     		ldr	r3, [sp, #4]
 1161              	.L99:
 1162              	.LVL81:
 1163              	.LBE8:
 724:Drivers/STM32F4xx_HAL_Driver/Src/stm32f4xx_hal_i2s_ex.c **** 
 1164              		.loc 1 724 0
 1165 0152 A06B     		ldr	r0, [r4, #56]
 1166 0154 2F4B     		ldr	r3, .L121+12
 1167 0156 9A42     		cmp	r2, r3
 1168 0158 01D1     		bne	.L115
 1169 015a 2F4A     		ldr	r2, .L121+16
 1170 015c 01E0     		b	.L100
 1171              	.L115:
 1172 015e 4FF04022 		mov	r2, #1073758208
 1173              	.L100:
 724:Drivers/STM32F4xx_HAL_Driver/Src/stm32f4xx_hal_i2s_ex.c **** 
 1174              		.loc 1 724 0 is_stmt 0 discriminator 4
 1175 0162 238D     		ldrh	r3, [r4, #40]
 1176 0164 3146     		mov	r1, r6
 1177 0166 0C32     		adds	r2, r2, #12
 1178 0168 9BB2     		uxth	r3, r3
 1179 016a FFF7FEFF 		bl	HAL_DMA_Start_IT
 1180              	.LVL82:
 727:Drivers/STM32F4xx_HAL_Driver/Src/stm32f4xx_hal_i2s_ex.c **** 
 1181              		.loc 1 727 0 is_stmt 1 discriminator 4
 1182 016e 2368     		ldr	r3, [r4]
 1183 0170 284A     		ldr	r2, .L121+12
 1184 0172 9342     		cmp	r3, r2
 1185 0174 02D1     		bne	.L116
 727:Drivers/STM32F4xx_HAL_Driver/Src/stm32f4xx_hal_i2s_ex.c **** 
 1186              		.loc 1 727 0 is_stmt 0
 1187 0176 A2F58062 		sub	r2, r2, #1024
 1188 017a 01E0     		b	.L101
 1189              	.L116:
 1190 017c 4FF04022 		mov	r2, #1073758208
 1191              	.L101:
 727:Drivers/STM32F4xx_HAL_Driver/Src/stm32f4xx_hal_i2s_ex.c **** 
 1192              		.loc 1 727 0 discriminator 4
 1193 0180 2449     		ldr	r1, .L121+12
 1194 0182 8B42     		cmp	r3, r1
 1195 0184 01D1     		bne	.L117
 727:Drivers/STM32F4xx_HAL_Driver/Src/stm32f4xx_hal_i2s_ex.c **** 
 1196              		.loc 1 727 0
 1197 0186 244B     		ldr	r3, .L121+16
 1198 0188 01E0     		b	.L102
 1199              	.L117:
 1200 018a 4FF04023 		mov	r3, #1073758208
 1201              	.L102:
 727:Drivers/STM32F4xx_HAL_Driver/Src/stm32f4xx_hal_i2s_ex.c **** 
 1202              		.loc 1 727 0 discriminator 8
 1203 018e 5B68     		ldr	r3, [r3, #4]
 1204 0190 43F00203 		orr	r3, r3, #2
 1205 0194 5360     		str	r3, [r2, #4]
 1206              	.LVL83:
 731:Drivers/STM32F4xx_HAL_Driver/Src/stm32f4xx_hal_i2s_ex.c **** 
 1207              		.loc 1 731 0 is_stmt 1 discriminator 8
ARM GAS  /tmp/ccPpxa3p.s 			page 46


 1208 0196 2168     		ldr	r1, [r4]
 1209 0198 238E     		ldrh	r3, [r4, #48]
 1210 019a E06B     		ldr	r0, [r4, #60]
 1211 019c 0C31     		adds	r1, r1, #12
 1212 019e 2A46     		mov	r2, r5
 1213 01a0 9BB2     		uxth	r3, r3
 1214 01a2 FFF7FEFF 		bl	HAL_DMA_Start_IT
 1215              	.LVL84:
 734:Drivers/STM32F4xx_HAL_Driver/Src/stm32f4xx_hal_i2s_ex.c **** 
 1216              		.loc 1 734 0 discriminator 8
 1217 01a6 2268     		ldr	r2, [r4]
 1218 01a8 5368     		ldr	r3, [r2, #4]
 1219 01aa 43F00103 		orr	r3, r3, #1
 1220 01ae 5360     		str	r3, [r2, #4]
 737:Drivers/STM32F4xx_HAL_Driver/Src/stm32f4xx_hal_i2s_ex.c ****       {
 1221              		.loc 1 737 0 discriminator 8
 1222 01b0 2368     		ldr	r3, [r4]
 1223 01b2 DA69     		ldr	r2, [r3, #28]
 1224 01b4 12F4806F 		tst	r2, #1024
 1225 01b8 16D1     		bne	.L96
 740:Drivers/STM32F4xx_HAL_Driver/Src/stm32f4xx_hal_i2s_ex.c ****         /* Enable I2S peripheral before the I2Sext */
 1226              		.loc 1 740 0
 1227 01ba 164A     		ldr	r2, .L121+12
 1228 01bc 9342     		cmp	r3, r2
 1229 01be 01D1     		bne	.L118
 1230 01c0 1549     		ldr	r1, .L121+16
 1231 01c2 01E0     		b	.L103
 1232              	.L118:
 1233 01c4 4FF04021 		mov	r1, #1073758208
 1234              	.L103:
 740:Drivers/STM32F4xx_HAL_Driver/Src/stm32f4xx_hal_i2s_ex.c ****         /* Enable I2S peripheral before the I2Sext */
 1235              		.loc 1 740 0 is_stmt 0 discriminator 4
 1236 01c8 124A     		ldr	r2, .L121+12
 1237 01ca 9342     		cmp	r3, r2
 1238 01cc 01D1     		bne	.L119
 740:Drivers/STM32F4xx_HAL_Driver/Src/stm32f4xx_hal_i2s_ex.c ****         /* Enable I2S peripheral before the I2Sext */
 1239              		.loc 1 740 0
 1240 01ce 124B     		ldr	r3, .L121+16
 1241 01d0 01E0     		b	.L104
 1242              	.L119:
 1243 01d2 4FF04023 		mov	r3, #1073758208
 1244              	.L104:
 740:Drivers/STM32F4xx_HAL_Driver/Src/stm32f4xx_hal_i2s_ex.c ****         /* Enable I2S peripheral before the I2Sext */
 1245              		.loc 1 740 0 discriminator 8
 1246 01d6 DB69     		ldr	r3, [r3, #28]
 1247 01d8 43F48063 		orr	r3, r3, #1024
 1248 01dc CB61     		str	r3, [r1, #28]
 742:Drivers/STM32F4xx_HAL_Driver/Src/stm32f4xx_hal_i2s_ex.c ****       }
 1249              		.loc 1 742 0 is_stmt 1 discriminator 8
 1250 01de 2268     		ldr	r2, [r4]
 1251 01e0 D369     		ldr	r3, [r2, #28]
 1252 01e2 43F48063 		orr	r3, r3, #1024
 1253 01e6 D361     		str	r3, [r2, #28]
 1254              	.LVL85:
 1255              	.L96:
 747:Drivers/STM32F4xx_HAL_Driver/Src/stm32f4xx_hal_i2s_ex.c **** 
 1256              		.loc 1 747 0
ARM GAS  /tmp/ccPpxa3p.s 			page 47


 1257 01e8 0020     		movs	r0, #0
 1258 01ea 84F84000 		strb	r0, [r4, #64]
 749:Drivers/STM32F4xx_HAL_Driver/Src/stm32f4xx_hal_i2s_ex.c ****   }
 1259              		.loc 1 749 0
 1260 01ee 08E0     		b	.L87
 1261              	.LVL86:
 1262              	.L105:
 1263              	.LCFI9:
 1264              		.cfi_def_cfa_offset 0
 1265              		.cfi_restore 4
 1266              		.cfi_restore 5
 1267              		.cfi_restore 6
 1268              		.cfi_restore 14
 633:Drivers/STM32F4xx_HAL_Driver/Src/stm32f4xx_hal_i2s_ex.c ****   }
 1269              		.loc 1 633 0
 1270 01f0 0120     		movs	r0, #1
 1271              	.LVL87:
 755:Drivers/STM32F4xx_HAL_Driver/Src/stm32f4xx_hal_i2s_ex.c **** 
 1272              		.loc 1 755 0
 1273 01f2 7047     		bx	lr
 1274              	.LVL88:
 1275              	.L106:
 1276              	.LCFI10:
 1277              		.cfi_def_cfa_offset 24
 1278              		.cfi_offset 4, -16
 1279              		.cfi_offset 5, -12
 1280              		.cfi_offset 6, -8
 1281              		.cfi_offset 14, -4
 633:Drivers/STM32F4xx_HAL_Driver/Src/stm32f4xx_hal_i2s_ex.c ****   }
 1282              		.loc 1 633 0
 1283 01f4 0120     		movs	r0, #1
 1284              	.LVL89:
 1285 01f6 04E0     		b	.L87
 1286              	.LVL90:
 1287              	.L107:
 1288 01f8 0120     		movs	r0, #1
 1289              	.LVL91:
 1290 01fa 02E0     		b	.L87
 1291              	.LVL92:
 1292              	.L108:
 753:Drivers/STM32F4xx_HAL_Driver/Src/stm32f4xx_hal_i2s_ex.c ****   }
 1293              		.loc 1 753 0
 1294 01fc 0220     		movs	r0, #2
 1295              	.LVL93:
 1296 01fe 00E0     		b	.L87
 1297              	.LVL94:
 1298              	.L109:
 662:Drivers/STM32F4xx_HAL_Driver/Src/stm32f4xx_hal_i2s_ex.c **** 
 1299              		.loc 1 662 0
 1300 0200 0220     		movs	r0, #2
 1301              	.LVL95:
 1302              	.L87:
 755:Drivers/STM32F4xx_HAL_Driver/Src/stm32f4xx_hal_i2s_ex.c **** 
 1303              		.loc 1 755 0
 1304 0202 02B0     		add	sp, sp, #8
 1305              	.LCFI11:
 1306              		.cfi_def_cfa_offset 16
ARM GAS  /tmp/ccPpxa3p.s 			page 48


 1307              		@ sp needed
 1308 0204 70BD     		pop	{r4, r5, r6, pc}
 1309              	.LVL96:
 1310              	.L122:
 1311 0206 00BF     		.align	2
 1312              	.L121:
 1313 0208 00000000 		.word	I2SEx_TxRxDMAHalfCplt
 1314 020c 00000000 		.word	I2SEx_TxRxDMACplt
 1315 0210 00000000 		.word	I2SEx_TxRxDMAError
 1316 0214 00380040 		.word	1073756160
 1317 0218 00340040 		.word	1073755136
 1318              		.cfi_endproc
 1319              	.LFE125:
 1321              		.section	.text.HAL_I2SEx_TxRxHalfCpltCallback,"ax",%progbits
 1322              		.align	2
 1323              		.weak	HAL_I2SEx_TxRxHalfCpltCallback
 1324              		.thumb
 1325              		.thumb_func
 1327              	HAL_I2SEx_TxRxHalfCpltCallback:
 1328              	.LFB127:
 888:Drivers/STM32F4xx_HAL_Driver/Src/stm32f4xx_hal_i2s_ex.c ****   /* Prevent unused argument(s) compilation warning */
 1329              		.loc 1 888 0
 1330              		.cfi_startproc
 1331              		@ args = 0, pretend = 0, frame = 0
 1332              		@ frame_needed = 0, uses_anonymous_args = 0
 1333              		@ link register save eliminated.
 1334              	.LVL97:
 1335 0000 7047     		bx	lr
 1336              		.cfi_endproc
 1337              	.LFE127:
 1339 0002 00BF     		.section	.text.I2SEx_TxRxDMAHalfCplt,"ax",%progbits
 1340              		.align	2
 1341              		.thumb
 1342              		.thumb_func
 1344              	I2SEx_TxRxDMAHalfCplt:
 1345              	.LFB129:
 931:Drivers/STM32F4xx_HAL_Driver/Src/stm32f4xx_hal_i2s_ex.c ****   I2S_HandleTypeDef* hi2s = (I2S_HandleTypeDef*)((DMA_HandleTypeDef*)hdma)->Parent;
 1346              		.loc 1 931 0
 1347              		.cfi_startproc
 1348              		@ args = 0, pretend = 0, frame = 0
 1349              		@ frame_needed = 0, uses_anonymous_args = 0
 1350              	.LVL98:
 931:Drivers/STM32F4xx_HAL_Driver/Src/stm32f4xx_hal_i2s_ex.c ****   I2S_HandleTypeDef* hi2s = (I2S_HandleTypeDef*)((DMA_HandleTypeDef*)hdma)->Parent;
 1351              		.loc 1 931 0
 1352 0000 08B5     		push	{r3, lr}
 1353              	.LCFI12:
 1354              		.cfi_def_cfa_offset 8
 1355              		.cfi_offset 3, -8
 1356              		.cfi_offset 14, -4
 1357              	.LVL99:
 934:Drivers/STM32F4xx_HAL_Driver/Src/stm32f4xx_hal_i2s_ex.c **** }
 1358              		.loc 1 934 0
 1359 0002 806B     		ldr	r0, [r0, #56]
 1360              	.LVL100:
 1361 0004 FFF7FEFF 		bl	HAL_I2SEx_TxRxHalfCpltCallback
 1362              	.LVL101:
 1363 0008 08BD     		pop	{r3, pc}
ARM GAS  /tmp/ccPpxa3p.s 			page 49


 1364              		.cfi_endproc
 1365              	.LFE129:
 1367 000a 00BF     		.section	.text.HAL_I2SEx_TxRxCpltCallback,"ax",%progbits
 1368              		.align	2
 1369              		.weak	HAL_I2SEx_TxRxCpltCallback
 1370              		.thumb
 1371              		.thumb_func
 1373              	HAL_I2SEx_TxRxCpltCallback:
 1374              	.LFB128:
 903:Drivers/STM32F4xx_HAL_Driver/Src/stm32f4xx_hal_i2s_ex.c ****   /* Prevent unused argument(s) compilation warning */
 1375              		.loc 1 903 0
 1376              		.cfi_startproc
 1377              		@ args = 0, pretend = 0, frame = 0
 1378              		@ frame_needed = 0, uses_anonymous_args = 0
 1379              		@ link register save eliminated.
 1380              	.LVL102:
 1381 0000 7047     		bx	lr
 1382              		.cfi_endproc
 1383              	.LFE128:
 1385 0002 00BF     		.section	.text.HAL_I2SEx_TransmitReceive_IT,"ax",%progbits
 1386              		.align	2
 1387              		.global	HAL_I2SEx_TransmitReceive_IT
 1388              		.thumb
 1389              		.thumb_func
 1391              	HAL_I2SEx_TransmitReceive_IT:
 1392              	.LFB124:
 471:Drivers/STM32F4xx_HAL_Driver/Src/stm32f4xx_hal_i2s_ex.c ****   uint32_t tmp1 = 0U;
 1393              		.loc 1 471 0
 1394              		.cfi_startproc
 1395              		@ args = 0, pretend = 0, frame = 0
 1396              		@ frame_needed = 0, uses_anonymous_args = 0
 1397              	.LVL103:
 471:Drivers/STM32F4xx_HAL_Driver/Src/stm32f4xx_hal_i2s_ex.c ****   uint32_t tmp1 = 0U;
 1398              		.loc 1 471 0
 1399 0000 10B5     		push	{r4, lr}
 1400              	.LCFI13:
 1401              		.cfi_def_cfa_offset 8
 1402              		.cfi_offset 4, -8
 1403              		.cfi_offset 14, -4
 1404 0002 0446     		mov	r4, r0
 1405              	.LVL104:
 474:Drivers/STM32F4xx_HAL_Driver/Src/stm32f4xx_hal_i2s_ex.c ****   {
 1406              		.loc 1 474 0
 1407 0004 90F84100 		ldrb	r0, [r0, #65]	@ zero_extendqisi2
 1408              	.LVL105:
 1409 0008 C0B2     		uxtb	r0, r0
 1410 000a 0128     		cmp	r0, #1
 1411 000c 40F01F81 		bne	.L150
 476:Drivers/STM32F4xx_HAL_Driver/Src/stm32f4xx_hal_i2s_ex.c ****     {
 1412              		.loc 1 476 0
 1413 0010 0029     		cmp	r1, #0
 1414 0012 00F01E81 		beq	.L151
 476:Drivers/STM32F4xx_HAL_Driver/Src/stm32f4xx_hal_i2s_ex.c ****     {
 1415              		.loc 1 476 0 is_stmt 0 discriminator 1
 1416 0016 002A     		cmp	r2, #0
 1417 0018 00F01D81 		beq	.L152
 476:Drivers/STM32F4xx_HAL_Driver/Src/stm32f4xx_hal_i2s_ex.c ****     {
ARM GAS  /tmp/ccPpxa3p.s 			page 50


 1418              		.loc 1 476 0 discriminator 2
 1419 001c 002B     		cmp	r3, #0
 1420 001e 00F01C81 		beq	.L153
 481:Drivers/STM32F4xx_HAL_Driver/Src/stm32f4xx_hal_i2s_ex.c ****     hi2s->pRxBuffPtr = pRxData;
 1421              		.loc 1 481 0 is_stmt 1
 1422 0022 6162     		str	r1, [r4, #36]
 482:Drivers/STM32F4xx_HAL_Driver/Src/stm32f4xx_hal_i2s_ex.c **** 
 1423              		.loc 1 482 0
 1424 0024 E262     		str	r2, [r4, #44]
 484:Drivers/STM32F4xx_HAL_Driver/Src/stm32f4xx_hal_i2s_ex.c ****     /* Check the Data format: When a 16-bit data frame or a 16-bit data frame extended
 1425              		.loc 1 484 0
 1426 0026 2268     		ldr	r2, [r4]
 1427              	.LVL106:
 1428 0028 D269     		ldr	r2, [r2, #28]
 1429 002a 02F00702 		and	r2, r2, #7
 1430              	.LVL107:
 489:Drivers/STM32F4xx_HAL_Driver/Src/stm32f4xx_hal_i2s_ex.c ****     {
 1431              		.loc 1 489 0
 1432 002e 032A     		cmp	r2, #3
 1433 0030 01D0     		beq	.L129
 489:Drivers/STM32F4xx_HAL_Driver/Src/stm32f4xx_hal_i2s_ex.c ****     {
 1434              		.loc 1 489 0 is_stmt 0 discriminator 1
 1435 0032 052A     		cmp	r2, #5
 1436 0034 06D1     		bne	.L130
 1437              	.L129:
 491:Drivers/STM32F4xx_HAL_Driver/Src/stm32f4xx_hal_i2s_ex.c ****       hi2s->TxXferCount = (Size << 1U);
 1438              		.loc 1 491 0 is_stmt 1
 1439 0036 5B00     		lsls	r3, r3, #1
 1440              	.LVL108:
 1441 0038 9BB2     		uxth	r3, r3
 1442 003a 2385     		strh	r3, [r4, #40]	@ movhi
 492:Drivers/STM32F4xx_HAL_Driver/Src/stm32f4xx_hal_i2s_ex.c ****       hi2s->RxXferSize  = (Size << 1U);
 1443              		.loc 1 492 0
 1444 003c 6385     		strh	r3, [r4, #42]	@ movhi
 493:Drivers/STM32F4xx_HAL_Driver/Src/stm32f4xx_hal_i2s_ex.c ****       hi2s->RxXferCount = (Size << 1U);
 1445              		.loc 1 493 0
 1446 003e 2386     		strh	r3, [r4, #48]	@ movhi
 494:Drivers/STM32F4xx_HAL_Driver/Src/stm32f4xx_hal_i2s_ex.c ****     }
 1447              		.loc 1 494 0
 1448 0040 6386     		strh	r3, [r4, #50]	@ movhi
 1449 0042 03E0     		b	.L131
 1450              	.LVL109:
 1451              	.L130:
 498:Drivers/STM32F4xx_HAL_Driver/Src/stm32f4xx_hal_i2s_ex.c ****       hi2s->TxXferCount = Size;
 1452              		.loc 1 498 0
 1453 0044 2385     		strh	r3, [r4, #40]	@ movhi
 499:Drivers/STM32F4xx_HAL_Driver/Src/stm32f4xx_hal_i2s_ex.c ****       hi2s->RxXferSize  = Size;
 1454              		.loc 1 499 0
 1455 0046 6385     		strh	r3, [r4, #42]	@ movhi
 500:Drivers/STM32F4xx_HAL_Driver/Src/stm32f4xx_hal_i2s_ex.c ****       hi2s->RxXferCount = Size;
 1456              		.loc 1 500 0
 1457 0048 2386     		strh	r3, [r4, #48]	@ movhi
 501:Drivers/STM32F4xx_HAL_Driver/Src/stm32f4xx_hal_i2s_ex.c ****     }
 1458              		.loc 1 501 0
 1459 004a 6386     		strh	r3, [r4, #50]	@ movhi
 1460              	.LVL110:
 1461              	.L131:
ARM GAS  /tmp/ccPpxa3p.s 			page 51


 505:Drivers/STM32F4xx_HAL_Driver/Src/stm32f4xx_hal_i2s_ex.c **** 
 1462              		.loc 1 505 0
 1463 004c 94F84030 		ldrb	r3, [r4, #64]	@ zero_extendqisi2
 1464 0050 DBB2     		uxtb	r3, r3
 1465 0052 012B     		cmp	r3, #1
 1466 0054 00F00381 		beq	.L154
 505:Drivers/STM32F4xx_HAL_Driver/Src/stm32f4xx_hal_i2s_ex.c **** 
 1467              		.loc 1 505 0 is_stmt 0 discriminator 2
 1468 0058 0123     		movs	r3, #1
 1469 005a 84F84030 		strb	r3, [r4, #64]
 507:Drivers/STM32F4xx_HAL_Driver/Src/stm32f4xx_hal_i2s_ex.c ****     hi2s->State     = HAL_I2S_STATE_BUSY_TX_RX;
 1470              		.loc 1 507 0 is_stmt 1 discriminator 2
 1471 005e 0023     		movs	r3, #0
 1472 0060 6364     		str	r3, [r4, #68]
 508:Drivers/STM32F4xx_HAL_Driver/Src/stm32f4xx_hal_i2s_ex.c **** 
 1473              		.loc 1 508 0 discriminator 2
 1474 0062 0523     		movs	r3, #5
 1475 0064 84F84130 		strb	r3, [r4, #65]
 510:Drivers/STM32F4xx_HAL_Driver/Src/stm32f4xx_hal_i2s_ex.c ****     /* Check if the I2S_MODE_MASTER_TX or I2S_MODE_SLAVE_TX Mode is selected */
 1476              		.loc 1 510 0 discriminator 2
 1477 0068 2268     		ldr	r2, [r4]
 1478              	.LVL111:
 1479 006a D369     		ldr	r3, [r2, #28]
 1480 006c 03F44073 		and	r3, r3, #768
 1481              	.LVL112:
 512:Drivers/STM32F4xx_HAL_Driver/Src/stm32f4xx_hal_i2s_ex.c ****     {
 1482              		.loc 1 512 0 discriminator 2
 1483 0070 B3F5007F 		cmp	r3, #512
 1484 0074 01D0     		beq	.L132
 512:Drivers/STM32F4xx_HAL_Driver/Src/stm32f4xx_hal_i2s_ex.c ****     {
 1485              		.loc 1 512 0 is_stmt 0 discriminator 1
 1486 0076 002B     		cmp	r3, #0
 1487 0078 6FD1     		bne	.L133
 1488              	.L132:
 515:Drivers/STM32F4xx_HAL_Driver/Src/stm32f4xx_hal_i2s_ex.c **** 
 1489              		.loc 1 515 0 is_stmt 1
 1490 007a 7A4B     		ldr	r3, .L169
 1491              	.LVL113:
 1492 007c 9A42     		cmp	r2, r3
 1493 007e 01D1     		bne	.L155
 1494 0080 7949     		ldr	r1, .L169+4
 1495              	.LVL114:
 1496 0082 01E0     		b	.L134
 1497              	.LVL115:
 1498              	.L155:
 1499 0084 4FF04021 		mov	r1, #1073758208
 1500              	.LVL116:
 1501              	.L134:
 515:Drivers/STM32F4xx_HAL_Driver/Src/stm32f4xx_hal_i2s_ex.c **** 
 1502              		.loc 1 515 0 is_stmt 0 discriminator 4
 1503 0088 764B     		ldr	r3, .L169
 1504 008a 9A42     		cmp	r2, r3
 1505 008c 02D1     		bne	.L156
 515:Drivers/STM32F4xx_HAL_Driver/Src/stm32f4xx_hal_i2s_ex.c **** 
 1506              		.loc 1 515 0
 1507 008e A3F58063 		sub	r3, r3, #1024
 1508 0092 01E0     		b	.L135
ARM GAS  /tmp/ccPpxa3p.s 			page 52


 1509              	.L156:
 1510 0094 4FF04023 		mov	r3, #1073758208
 1511              	.L135:
 515:Drivers/STM32F4xx_HAL_Driver/Src/stm32f4xx_hal_i2s_ex.c **** 
 1512              		.loc 1 515 0 discriminator 8
 1513 0098 5B68     		ldr	r3, [r3, #4]
 1514 009a 43F06003 		orr	r3, r3, #96
 1515 009e 4B60     		str	r3, [r1, #4]
 1516              	.LVL117:
 518:Drivers/STM32F4xx_HAL_Driver/Src/stm32f4xx_hal_i2s_ex.c **** 
 1517              		.loc 1 518 0 is_stmt 1 discriminator 8
 1518 00a0 2268     		ldr	r2, [r4]
 1519 00a2 5368     		ldr	r3, [r2, #4]
 1520 00a4 43F0A003 		orr	r3, r3, #160
 1521 00a8 5360     		str	r3, [r2, #4]
 521:Drivers/STM32F4xx_HAL_Driver/Src/stm32f4xx_hal_i2s_ex.c ****       {
 1522              		.loc 1 521 0 discriminator 8
 1523 00aa 2368     		ldr	r3, [r4]
 1524 00ac DA69     		ldr	r2, [r3, #28]
 1525 00ae 12F4806F 		tst	r2, #1024
 1526 00b2 40F0C880 		bne	.L136
 523:Drivers/STM32F4xx_HAL_Driver/Src/stm32f4xx_hal_i2s_ex.c ****         {
 1527              		.loc 1 523 0
 1528 00b6 DA69     		ldr	r2, [r3, #28]
 1529 00b8 12F4407F 		tst	r2, #768
 1530 00bc 33D1     		bne	.L137
 526:Drivers/STM32F4xx_HAL_Driver/Src/stm32f4xx_hal_i2s_ex.c ****           {
 1531              		.loc 1 526 0
 1532 00be 628D     		ldrh	r2, [r4, #42]
 1533 00c0 92B2     		uxth	r2, r2
 1534 00c2 002A     		cmp	r2, #0
 1535 00c4 2FD0     		beq	.L137
 529:Drivers/STM32F4xx_HAL_Driver/Src/stm32f4xx_hal_i2s_ex.c ****             hi2s->TxXferCount--;
 1536              		.loc 1 529 0
 1537 00c6 626A     		ldr	r2, [r4, #36]
 1538 00c8 911C     		adds	r1, r2, #2
 1539 00ca 6162     		str	r1, [r4, #36]
 1540 00cc 1288     		ldrh	r2, [r2]
 1541 00ce DA60     		str	r2, [r3, #12]
 530:Drivers/STM32F4xx_HAL_Driver/Src/stm32f4xx_hal_i2s_ex.c **** 
 1542              		.loc 1 530 0
 1543 00d0 638D     		ldrh	r3, [r4, #42]
 1544 00d2 013B     		subs	r3, r3, #1
 1545 00d4 9BB2     		uxth	r3, r3
 1546 00d6 6385     		strh	r3, [r4, #42]	@ movhi
 532:Drivers/STM32F4xx_HAL_Driver/Src/stm32f4xx_hal_i2s_ex.c ****             {
 1547              		.loc 1 532 0
 1548 00d8 638D     		ldrh	r3, [r4, #42]
 1549 00da 9BB2     		uxth	r3, r3
 1550 00dc 1BBB     		cbnz	r3, .L137
 535:Drivers/STM32F4xx_HAL_Driver/Src/stm32f4xx_hal_i2s_ex.c **** 
 1551              		.loc 1 535 0
 1552 00de 2268     		ldr	r2, [r4]
 1553 00e0 5368     		ldr	r3, [r2, #4]
 1554 00e2 23F0A003 		bic	r3, r3, #160
 1555 00e6 1B04     		lsls	r3, r3, #16
 1556 00e8 1B0C     		lsrs	r3, r3, #16
ARM GAS  /tmp/ccPpxa3p.s 			page 53


 1557 00ea 5360     		str	r3, [r2, #4]
 537:Drivers/STM32F4xx_HAL_Driver/Src/stm32f4xx_hal_i2s_ex.c ****               {
 1558              		.loc 1 537 0
 1559 00ec 638E     		ldrh	r3, [r4, #50]
 1560 00ee 9BB2     		uxth	r3, r3
 1561 00f0 CBB9     		cbnz	r3, .L137
 540:Drivers/STM32F4xx_HAL_Driver/Src/stm32f4xx_hal_i2s_ex.c **** 
 1562              		.loc 1 540 0
 1563 00f2 2368     		ldr	r3, [r4]
 1564 00f4 5B4A     		ldr	r2, .L169
 1565 00f6 9342     		cmp	r3, r2
 1566 00f8 02D1     		bne	.L157
 1567 00fa A2F58062 		sub	r2, r2, #1024
 1568 00fe 01E0     		b	.L138
 1569              	.L157:
 1570 0100 4FF04022 		mov	r2, #1073758208
 1571              	.L138:
 540:Drivers/STM32F4xx_HAL_Driver/Src/stm32f4xx_hal_i2s_ex.c **** 
 1572              		.loc 1 540 0 is_stmt 0 discriminator 4
 1573 0104 5749     		ldr	r1, .L169
 1574 0106 8B42     		cmp	r3, r1
 1575 0108 01D1     		bne	.L158
 540:Drivers/STM32F4xx_HAL_Driver/Src/stm32f4xx_hal_i2s_ex.c **** 
 1576              		.loc 1 540 0
 1577 010a 574B     		ldr	r3, .L169+4
 1578 010c 01E0     		b	.L139
 1579              	.L158:
 1580 010e 4FF04023 		mov	r3, #1073758208
 1581              	.L139:
 540:Drivers/STM32F4xx_HAL_Driver/Src/stm32f4xx_hal_i2s_ex.c **** 
 1582              		.loc 1 540 0 discriminator 8
 1583 0112 5B68     		ldr	r3, [r3, #4]
 1584 0114 23F06003 		bic	r3, r3, #96
 1585 0118 5360     		str	r3, [r2, #4]
 542:Drivers/STM32F4xx_HAL_Driver/Src/stm32f4xx_hal_i2s_ex.c ****                 HAL_I2SEx_TxRxCpltCallback(hi2s);
 1586              		.loc 1 542 0 is_stmt 1 discriminator 8
 1587 011a 0123     		movs	r3, #1
 1588 011c 84F84130 		strb	r3, [r4, #65]
 543:Drivers/STM32F4xx_HAL_Driver/Src/stm32f4xx_hal_i2s_ex.c ****               }
 1589              		.loc 1 543 0 discriminator 8
 1590 0120 2046     		mov	r0, r4
 1591 0122 FFF7FEFF 		bl	HAL_I2SEx_TxRxCpltCallback
 1592              	.LVL118:
 1593              	.L137:
 549:Drivers/STM32F4xx_HAL_Driver/Src/stm32f4xx_hal_i2s_ex.c **** 
 1594              		.loc 1 549 0
 1595 0126 2368     		ldr	r3, [r4]
 1596 0128 4E4A     		ldr	r2, .L169
 1597 012a 9342     		cmp	r3, r2
 1598 012c 02D1     		bne	.L159
 1599 012e A2F58062 		sub	r2, r2, #1024
 1600 0132 01E0     		b	.L140
 1601              	.L159:
 1602 0134 4FF04022 		mov	r2, #1073758208
 1603              	.L140:
 549:Drivers/STM32F4xx_HAL_Driver/Src/stm32f4xx_hal_i2s_ex.c **** 
 1604              		.loc 1 549 0 is_stmt 0 discriminator 4
ARM GAS  /tmp/ccPpxa3p.s 			page 54


 1605 0138 4A49     		ldr	r1, .L169
 1606 013a 8B42     		cmp	r3, r1
 1607 013c 01D1     		bne	.L160
 549:Drivers/STM32F4xx_HAL_Driver/Src/stm32f4xx_hal_i2s_ex.c **** 
 1608              		.loc 1 549 0
 1609 013e 4A4B     		ldr	r3, .L169+4
 1610 0140 01E0     		b	.L141
 1611              	.L160:
 1612 0142 4FF04023 		mov	r3, #1073758208
 1613              	.L141:
 549:Drivers/STM32F4xx_HAL_Driver/Src/stm32f4xx_hal_i2s_ex.c **** 
 1614              		.loc 1 549 0 discriminator 8
 1615 0146 DB69     		ldr	r3, [r3, #28]
 1616 0148 43F48063 		orr	r3, r3, #1024
 1617 014c D361     		str	r3, [r2, #28]
 552:Drivers/STM32F4xx_HAL_Driver/Src/stm32f4xx_hal_i2s_ex.c ****       }
 1618              		.loc 1 552 0 is_stmt 1 discriminator 8
 1619 014e 2268     		ldr	r2, [r4]
 1620 0150 D369     		ldr	r3, [r2, #28]
 1621 0152 43F48063 		orr	r3, r3, #1024
 1622 0156 D361     		str	r3, [r2, #28]
 1623 0158 75E0     		b	.L136
 1624              	.LVL119:
 1625              	.L133:
 559:Drivers/STM32F4xx_HAL_Driver/Src/stm32f4xx_hal_i2s_ex.c **** 
 1626              		.loc 1 559 0
 1627 015a 424B     		ldr	r3, .L169
 1628              	.LVL120:
 1629 015c 9A42     		cmp	r2, r3
 1630 015e 01D1     		bne	.L161
 1631 0160 4149     		ldr	r1, .L169+4
 1632              	.LVL121:
 1633 0162 01E0     		b	.L142
 1634              	.LVL122:
 1635              	.L161:
 1636 0164 4FF04021 		mov	r1, #1073758208
 1637              	.LVL123:
 1638              	.L142:
 559:Drivers/STM32F4xx_HAL_Driver/Src/stm32f4xx_hal_i2s_ex.c **** 
 1639              		.loc 1 559 0 is_stmt 0 discriminator 4
 1640 0168 3E4B     		ldr	r3, .L169
 1641 016a 9A42     		cmp	r2, r3
 1642 016c 02D1     		bne	.L162
 559:Drivers/STM32F4xx_HAL_Driver/Src/stm32f4xx_hal_i2s_ex.c **** 
 1643              		.loc 1 559 0
 1644 016e A3F58063 		sub	r3, r3, #1024
 1645 0172 01E0     		b	.L143
 1646              	.L162:
 1647 0174 4FF04023 		mov	r3, #1073758208
 1648              	.L143:
 559:Drivers/STM32F4xx_HAL_Driver/Src/stm32f4xx_hal_i2s_ex.c **** 
 1649              		.loc 1 559 0 discriminator 8
 1650 0178 5B68     		ldr	r3, [r3, #4]
 1651 017a 43F0A003 		orr	r3, r3, #160
 1652 017e 4B60     		str	r3, [r1, #4]
 1653              	.LVL124:
 562:Drivers/STM32F4xx_HAL_Driver/Src/stm32f4xx_hal_i2s_ex.c **** 
ARM GAS  /tmp/ccPpxa3p.s 			page 55


 1654              		.loc 1 562 0 is_stmt 1 discriminator 8
 1655 0180 2268     		ldr	r2, [r4]
 1656 0182 5368     		ldr	r3, [r2, #4]
 1657 0184 43F06003 		orr	r3, r3, #96
 1658 0188 5360     		str	r3, [r2, #4]
 565:Drivers/STM32F4xx_HAL_Driver/Src/stm32f4xx_hal_i2s_ex.c ****       {
 1659              		.loc 1 565 0 discriminator 8
 1660 018a 2368     		ldr	r3, [r4]
 1661 018c DA69     		ldr	r2, [r3, #28]
 1662 018e 12F4806F 		tst	r2, #1024
 1663 0192 58D1     		bne	.L136
 568:Drivers/STM32F4xx_HAL_Driver/Src/stm32f4xx_hal_i2s_ex.c ****         {
 1664              		.loc 1 568 0
 1665 0194 DA69     		ldr	r2, [r3, #28]
 1666 0196 02F44072 		and	r2, r2, #768
 1667 019a B2F5407F 		cmp	r2, #768
 1668 019e 3AD1     		bne	.L144
 571:Drivers/STM32F4xx_HAL_Driver/Src/stm32f4xx_hal_i2s_ex.c ****           {
 1669              		.loc 1 571 0
 1670 01a0 628D     		ldrh	r2, [r4, #42]
 1671 01a2 92B2     		uxth	r2, r2
 1672 01a4 002A     		cmp	r2, #0
 1673 01a6 36D0     		beq	.L144
 574:Drivers/STM32F4xx_HAL_Driver/Src/stm32f4xx_hal_i2s_ex.c ****             hi2s->TxXferCount--;
 1674              		.loc 1 574 0
 1675 01a8 2E4A     		ldr	r2, .L169
 1676 01aa 9342     		cmp	r3, r2
 1677 01ac 01D1     		bne	.L163
 1678 01ae 2E4B     		ldr	r3, .L169+4
 1679 01b0 01E0     		b	.L145
 1680              	.L163:
 1681 01b2 4FF04023 		mov	r3, #1073758208
 1682              	.L145:
 574:Drivers/STM32F4xx_HAL_Driver/Src/stm32f4xx_hal_i2s_ex.c ****             hi2s->TxXferCount--;
 1683              		.loc 1 574 0 is_stmt 0 discriminator 4
 1684 01b6 626A     		ldr	r2, [r4, #36]
 1685 01b8 911C     		adds	r1, r2, #2
 1686 01ba 6162     		str	r1, [r4, #36]
 1687 01bc 1288     		ldrh	r2, [r2]
 1688 01be DA60     		str	r2, [r3, #12]
 575:Drivers/STM32F4xx_HAL_Driver/Src/stm32f4xx_hal_i2s_ex.c **** 
 1689              		.loc 1 575 0 is_stmt 1 discriminator 4
 1690 01c0 638D     		ldrh	r3, [r4, #42]
 1691 01c2 013B     		subs	r3, r3, #1
 1692 01c4 9BB2     		uxth	r3, r3
 1693 01c6 6385     		strh	r3, [r4, #42]	@ movhi
 577:Drivers/STM32F4xx_HAL_Driver/Src/stm32f4xx_hal_i2s_ex.c ****             {
 1694              		.loc 1 577 0 discriminator 4
 1695 01c8 638D     		ldrh	r3, [r4, #42]
 1696 01ca 9BB2     		uxth	r3, r3
 1697 01cc 1BBB     		cbnz	r3, .L144
 580:Drivers/STM32F4xx_HAL_Driver/Src/stm32f4xx_hal_i2s_ex.c ****               if(hi2s->RxXferCount == 0U)
 1698              		.loc 1 580 0
 1699 01ce 2368     		ldr	r3, [r4]
 1700 01d0 244A     		ldr	r2, .L169
 1701 01d2 9342     		cmp	r3, r2
 1702 01d4 02D1     		bne	.L164
ARM GAS  /tmp/ccPpxa3p.s 			page 56


 1703 01d6 A2F58062 		sub	r2, r2, #1024
 1704 01da 01E0     		b	.L146
 1705              	.L164:
 1706 01dc 4FF04022 		mov	r2, #1073758208
 1707              	.L146:
 580:Drivers/STM32F4xx_HAL_Driver/Src/stm32f4xx_hal_i2s_ex.c ****               if(hi2s->RxXferCount == 0U)
 1708              		.loc 1 580 0 is_stmt 0 discriminator 4
 1709 01e0 2049     		ldr	r1, .L169
 1710 01e2 8B42     		cmp	r3, r1
 1711 01e4 01D1     		bne	.L165
 580:Drivers/STM32F4xx_HAL_Driver/Src/stm32f4xx_hal_i2s_ex.c ****               if(hi2s->RxXferCount == 0U)
 1712              		.loc 1 580 0
 1713 01e6 204B     		ldr	r3, .L169+4
 1714 01e8 01E0     		b	.L147
 1715              	.L165:
 1716 01ea 4FF04023 		mov	r3, #1073758208
 1717              	.L147:
 580:Drivers/STM32F4xx_HAL_Driver/Src/stm32f4xx_hal_i2s_ex.c ****               if(hi2s->RxXferCount == 0U)
 1718              		.loc 1 580 0 discriminator 8
 1719 01ee 5B68     		ldr	r3, [r3, #4]
 1720 01f0 23F0A003 		bic	r3, r3, #160
 1721 01f4 5360     		str	r3, [r2, #4]
 581:Drivers/STM32F4xx_HAL_Driver/Src/stm32f4xx_hal_i2s_ex.c ****               {
 1722              		.loc 1 581 0 is_stmt 1 discriminator 8
 1723 01f6 638E     		ldrh	r3, [r4, #50]
 1724 01f8 9BB2     		uxth	r3, r3
 1725 01fa 63B9     		cbnz	r3, .L144
 584:Drivers/STM32F4xx_HAL_Driver/Src/stm32f4xx_hal_i2s_ex.c **** 
 1726              		.loc 1 584 0
 1727 01fc 2268     		ldr	r2, [r4]
 1728 01fe 5368     		ldr	r3, [r2, #4]
 1729 0200 23F06003 		bic	r3, r3, #96
 1730 0204 1B04     		lsls	r3, r3, #16
 1731 0206 1B0C     		lsrs	r3, r3, #16
 1732 0208 5360     		str	r3, [r2, #4]
 586:Drivers/STM32F4xx_HAL_Driver/Src/stm32f4xx_hal_i2s_ex.c ****                 HAL_I2SEx_TxRxCpltCallback(hi2s);
 1733              		.loc 1 586 0
 1734 020a 0123     		movs	r3, #1
 1735 020c 84F84130 		strb	r3, [r4, #65]
 587:Drivers/STM32F4xx_HAL_Driver/Src/stm32f4xx_hal_i2s_ex.c ****               }
 1736              		.loc 1 587 0
 1737 0210 2046     		mov	r0, r4
 1738 0212 FFF7FEFF 		bl	HAL_I2SEx_TxRxCpltCallback
 1739              	.LVL125:
 1740              	.L144:
 593:Drivers/STM32F4xx_HAL_Driver/Src/stm32f4xx_hal_i2s_ex.c **** 
 1741              		.loc 1 593 0
 1742 0216 2368     		ldr	r3, [r4]
 1743 0218 124A     		ldr	r2, .L169
 1744 021a 9342     		cmp	r3, r2
 1745 021c 01D1     		bne	.L166
 1746 021e 1249     		ldr	r1, .L169+4
 1747 0220 01E0     		b	.L148
 1748              	.L166:
 1749 0222 4FF04021 		mov	r1, #1073758208
 1750              	.L148:
 593:Drivers/STM32F4xx_HAL_Driver/Src/stm32f4xx_hal_i2s_ex.c **** 
ARM GAS  /tmp/ccPpxa3p.s 			page 57


 1751              		.loc 1 593 0 is_stmt 0 discriminator 4
 1752 0226 0F4A     		ldr	r2, .L169
 1753 0228 9342     		cmp	r3, r2
 1754 022a 01D1     		bne	.L167
 593:Drivers/STM32F4xx_HAL_Driver/Src/stm32f4xx_hal_i2s_ex.c **** 
 1755              		.loc 1 593 0
 1756 022c 0E4B     		ldr	r3, .L169+4
 1757 022e 01E0     		b	.L149
 1758              	.L167:
 1759 0230 4FF04023 		mov	r3, #1073758208
 1760              	.L149:
 593:Drivers/STM32F4xx_HAL_Driver/Src/stm32f4xx_hal_i2s_ex.c **** 
 1761              		.loc 1 593 0 discriminator 8
 1762 0234 DB69     		ldr	r3, [r3, #28]
 1763 0236 43F48063 		orr	r3, r3, #1024
 1764 023a CB61     		str	r3, [r1, #28]
 596:Drivers/STM32F4xx_HAL_Driver/Src/stm32f4xx_hal_i2s_ex.c ****       }
 1765              		.loc 1 596 0 is_stmt 1 discriminator 8
 1766 023c 2268     		ldr	r2, [r4]
 1767 023e D369     		ldr	r3, [r2, #28]
 1768 0240 43F48063 		orr	r3, r3, #1024
 1769 0244 D361     		str	r3, [r2, #28]
 1770              	.L136:
 600:Drivers/STM32F4xx_HAL_Driver/Src/stm32f4xx_hal_i2s_ex.c **** 
 1771              		.loc 1 600 0
 1772 0246 0020     		movs	r0, #0
 1773 0248 84F84000 		strb	r0, [r4, #64]
 602:Drivers/STM32F4xx_HAL_Driver/Src/stm32f4xx_hal_i2s_ex.c ****   }
 1774              		.loc 1 602 0
 1775 024c 10BD     		pop	{r4, pc}
 1776              	.LVL126:
 1777              	.L150:
 606:Drivers/STM32F4xx_HAL_Driver/Src/stm32f4xx_hal_i2s_ex.c ****   }
 1778              		.loc 1 606 0
 1779 024e 0220     		movs	r0, #2
 1780 0250 10BD     		pop	{r4, pc}
 1781              	.LVL127:
 1782              	.L151:
 478:Drivers/STM32F4xx_HAL_Driver/Src/stm32f4xx_hal_i2s_ex.c ****     }
 1783              		.loc 1 478 0
 1784 0252 0120     		movs	r0, #1
 1785 0254 10BD     		pop	{r4, pc}
 1786              	.LVL128:
 1787              	.L152:
 1788 0256 0120     		movs	r0, #1
 1789 0258 10BD     		pop	{r4, pc}
 1790              	.LVL129:
 1791              	.L153:
 1792 025a 0120     		movs	r0, #1
 1793 025c 10BD     		pop	{r4, pc}
 1794              	.LVL130:
 1795              	.L154:
 505:Drivers/STM32F4xx_HAL_Driver/Src/stm32f4xx_hal_i2s_ex.c **** 
 1796              		.loc 1 505 0
 1797 025e 0220     		movs	r0, #2
 608:Drivers/STM32F4xx_HAL_Driver/Src/stm32f4xx_hal_i2s_ex.c **** 
 1798              		.loc 1 608 0
ARM GAS  /tmp/ccPpxa3p.s 			page 58


 1799 0260 10BD     		pop	{r4, pc}
 1800              	.LVL131:
 1801              	.L170:
 1802 0262 00BF     		.align	2
 1803              	.L169:
 1804 0264 00380040 		.word	1073756160
 1805 0268 00340040 		.word	1073755136
 1806              		.cfi_endproc
 1807              	.LFE124:
 1809              		.section	.text.I2SEx_TxRxDMACplt,"ax",%progbits
 1810              		.align	2
 1811              		.thumb
 1812              		.thumb_func
 1814              	I2SEx_TxRxDMACplt:
 1815              	.LFB130:
 944:Drivers/STM32F4xx_HAL_Driver/Src/stm32f4xx_hal_i2s_ex.c ****   I2S_HandleTypeDef* hi2s = (I2S_HandleTypeDef*)((DMA_HandleTypeDef*)hdma)->Parent;
 1816              		.loc 1 944 0
 1817              		.cfi_startproc
 1818              		@ args = 0, pretend = 0, frame = 0
 1819              		@ frame_needed = 0, uses_anonymous_args = 0
 1820              	.LVL132:
 1821 0000 38B5     		push	{r3, r4, r5, lr}
 1822              	.LCFI14:
 1823              		.cfi_def_cfa_offset 16
 1824              		.cfi_offset 3, -16
 1825              		.cfi_offset 4, -12
 1826              		.cfi_offset 5, -8
 1827              		.cfi_offset 14, -4
 945:Drivers/STM32F4xx_HAL_Driver/Src/stm32f4xx_hal_i2s_ex.c **** 
 1828              		.loc 1 945 0
 1829 0002 856B     		ldr	r5, [r0, #56]
 1830              	.LVL133:
 948:Drivers/STM32F4xx_HAL_Driver/Src/stm32f4xx_hal_i2s_ex.c ****   {
 1831              		.loc 1 948 0
 1832 0004 0368     		ldr	r3, [r0]
 1833 0006 1B68     		ldr	r3, [r3]
 1834 0008 13F4807F 		tst	r3, #256
 1835 000c 61D1     		bne	.L171
 1836 000e 0446     		mov	r4, r0
 950:Drivers/STM32F4xx_HAL_Driver/Src/stm32f4xx_hal_i2s_ex.c ****     {
 1837              		.loc 1 950 0
 1838 0010 EB6B     		ldr	r3, [r5, #60]
 1839 0012 8342     		cmp	r3, r0
 1840 0014 2CD1     		bne	.L173
 953:Drivers/STM32F4xx_HAL_Driver/Src/stm32f4xx_hal_i2s_ex.c ****           ((hi2s->Instance->I2SCFGR & SPI_I2SCFGR_I2SCFG) == I2S_MODE_SLAVE_TX))
 1841              		.loc 1 953 0
 1842 0016 2B68     		ldr	r3, [r5]
 1843 0018 DA69     		ldr	r2, [r3, #28]
 1844 001a 02F44072 		and	r2, r2, #768
 1845 001e B2F5007F 		cmp	r2, #512
 1846 0022 03D0     		beq	.L174
 954:Drivers/STM32F4xx_HAL_Driver/Src/stm32f4xx_hal_i2s_ex.c ****       {
 1847              		.loc 1 954 0 discriminator 1
 1848 0024 DA69     		ldr	r2, [r3, #28]
 953:Drivers/STM32F4xx_HAL_Driver/Src/stm32f4xx_hal_i2s_ex.c ****           ((hi2s->Instance->I2SCFGR & SPI_I2SCFGR_I2SCFG) == I2S_MODE_SLAVE_TX))
 1849              		.loc 1 953 0 discriminator 1
 1850 0026 12F4407F 		tst	r2, #768
ARM GAS  /tmp/ccPpxa3p.s 			page 59


 1851 002a 12D1     		bne	.L175
 1852              	.L174:
 956:Drivers/STM32F4xx_HAL_Driver/Src/stm32f4xx_hal_i2s_ex.c ****       }
 1853              		.loc 1 956 0
 1854 002c 294A     		ldr	r2, .L189
 1855 002e 9342     		cmp	r3, r2
 1856 0030 01D1     		bne	.L184
 1857 0032 2949     		ldr	r1, .L189+4
 1858 0034 01E0     		b	.L176
 1859              	.L184:
 1860 0036 4FF04021 		mov	r1, #1073758208
 1861              	.L176:
 956:Drivers/STM32F4xx_HAL_Driver/Src/stm32f4xx_hal_i2s_ex.c ****       }
 1862              		.loc 1 956 0 is_stmt 0 discriminator 4
 1863 003a 264A     		ldr	r2, .L189
 1864 003c 9342     		cmp	r3, r2
 1865 003e 01D1     		bne	.L185
 956:Drivers/STM32F4xx_HAL_Driver/Src/stm32f4xx_hal_i2s_ex.c ****       }
 1866              		.loc 1 956 0
 1867 0040 254B     		ldr	r3, .L189+4
 1868 0042 01E0     		b	.L177
 1869              	.L185:
 1870 0044 4FF04023 		mov	r3, #1073758208
 1871              	.L177:
 956:Drivers/STM32F4xx_HAL_Driver/Src/stm32f4xx_hal_i2s_ex.c ****       }
 1872              		.loc 1 956 0 discriminator 8
 1873 0048 5B68     		ldr	r3, [r3, #4]
 1874 004a 23F00103 		bic	r3, r3, #1
 1875 004e 4B60     		str	r3, [r1, #4]
 1876 0050 03E0     		b	.L178
 1877              	.L175:
 960:Drivers/STM32F4xx_HAL_Driver/Src/stm32f4xx_hal_i2s_ex.c ****       }
 1878              		.loc 1 960 0 is_stmt 1
 1879 0052 5A68     		ldr	r2, [r3, #4]
 1880 0054 22F00102 		bic	r2, r2, #1
 1881 0058 5A60     		str	r2, [r3, #4]
 1882              	.L178:
 963:Drivers/STM32F4xx_HAL_Driver/Src/stm32f4xx_hal_i2s_ex.c **** 
 1883              		.loc 1 963 0
 1884 005a 0023     		movs	r3, #0
 1885 005c 6B86     		strh	r3, [r5, #50]	@ movhi
 965:Drivers/STM32F4xx_HAL_Driver/Src/stm32f4xx_hal_i2s_ex.c ****       {
 1886              		.loc 1 965 0
 1887 005e 6B8D     		ldrh	r3, [r5, #42]
 1888 0060 9BB2     		uxth	r3, r3
 1889 0062 2BB9     		cbnz	r3, .L173
 967:Drivers/STM32F4xx_HAL_Driver/Src/stm32f4xx_hal_i2s_ex.c **** 
 1890              		.loc 1 967 0
 1891 0064 0123     		movs	r3, #1
 1892 0066 85F84130 		strb	r3, [r5, #65]
 969:Drivers/STM32F4xx_HAL_Driver/Src/stm32f4xx_hal_i2s_ex.c ****       }
 1893              		.loc 1 969 0
 1894 006a 2846     		mov	r0, r5
 1895              	.LVL134:
 1896 006c FFF7FEFF 		bl	HAL_I2SEx_TxRxCpltCallback
 1897              	.LVL135:
 1898              	.L173:
ARM GAS  /tmp/ccPpxa3p.s 			page 60


 973:Drivers/STM32F4xx_HAL_Driver/Src/stm32f4xx_hal_i2s_ex.c ****     {
 1899              		.loc 1 973 0
 1900 0070 AB6B     		ldr	r3, [r5, #56]
 1901 0072 A342     		cmp	r3, r4
 1902 0074 2DD1     		bne	.L171
 976:Drivers/STM32F4xx_HAL_Driver/Src/stm32f4xx_hal_i2s_ex.c ****           ((hi2s->Instance->I2SCFGR & SPI_I2SCFGR_I2SCFG) == I2S_MODE_SLAVE_TX))
 1903              		.loc 1 976 0
 1904 0076 2B68     		ldr	r3, [r5]
 1905 0078 DA69     		ldr	r2, [r3, #28]
 1906 007a 02F44072 		and	r2, r2, #768
 1907 007e B2F5007F 		cmp	r2, #512
 1908 0082 03D0     		beq	.L179
 977:Drivers/STM32F4xx_HAL_Driver/Src/stm32f4xx_hal_i2s_ex.c ****       {
 1909              		.loc 1 977 0 discriminator 1
 1910 0084 DA69     		ldr	r2, [r3, #28]
 976:Drivers/STM32F4xx_HAL_Driver/Src/stm32f4xx_hal_i2s_ex.c ****           ((hi2s->Instance->I2SCFGR & SPI_I2SCFGR_I2SCFG) == I2S_MODE_SLAVE_TX))
 1911              		.loc 1 976 0 discriminator 1
 1912 0086 12F4407F 		tst	r2, #768
 1913 008a 04D1     		bne	.L180
 1914              	.L179:
 979:Drivers/STM32F4xx_HAL_Driver/Src/stm32f4xx_hal_i2s_ex.c ****       }
 1915              		.loc 1 979 0
 1916 008c 5A68     		ldr	r2, [r3, #4]
 1917 008e 22F00202 		bic	r2, r2, #2
 1918 0092 5A60     		str	r2, [r3, #4]
 1919 0094 12E0     		b	.L181
 1920              	.L180:
 983:Drivers/STM32F4xx_HAL_Driver/Src/stm32f4xx_hal_i2s_ex.c ****       }
 1921              		.loc 1 983 0
 1922 0096 0F4A     		ldr	r2, .L189
 1923 0098 9342     		cmp	r3, r2
 1924 009a 02D1     		bne	.L186
 1925 009c A2F58062 		sub	r2, r2, #1024
 1926 00a0 01E0     		b	.L182
 1927              	.L186:
 1928 00a2 4FF04022 		mov	r2, #1073758208
 1929              	.L182:
 983:Drivers/STM32F4xx_HAL_Driver/Src/stm32f4xx_hal_i2s_ex.c ****       }
 1930              		.loc 1 983 0 is_stmt 0 discriminator 4
 1931 00a6 0B49     		ldr	r1, .L189
 1932 00a8 8B42     		cmp	r3, r1
 1933 00aa 01D1     		bne	.L187
 983:Drivers/STM32F4xx_HAL_Driver/Src/stm32f4xx_hal_i2s_ex.c ****       }
 1934              		.loc 1 983 0
 1935 00ac 0A4B     		ldr	r3, .L189+4
 1936 00ae 01E0     		b	.L183
 1937              	.L187:
 1938 00b0 4FF04023 		mov	r3, #1073758208
 1939              	.L183:
 983:Drivers/STM32F4xx_HAL_Driver/Src/stm32f4xx_hal_i2s_ex.c ****       }
 1940              		.loc 1 983 0 discriminator 8
 1941 00b4 5B68     		ldr	r3, [r3, #4]
 1942 00b6 23F00203 		bic	r3, r3, #2
 1943 00ba 5360     		str	r3, [r2, #4]
 1944              	.L181:
 986:Drivers/STM32F4xx_HAL_Driver/Src/stm32f4xx_hal_i2s_ex.c **** 
 1945              		.loc 1 986 0 is_stmt 1
ARM GAS  /tmp/ccPpxa3p.s 			page 61


 1946 00bc 0023     		movs	r3, #0
 1947 00be 6B85     		strh	r3, [r5, #42]	@ movhi
 988:Drivers/STM32F4xx_HAL_Driver/Src/stm32f4xx_hal_i2s_ex.c ****       {
 1948              		.loc 1 988 0
 1949 00c0 6B8E     		ldrh	r3, [r5, #50]
 1950 00c2 9BB2     		uxth	r3, r3
 1951 00c4 2BB9     		cbnz	r3, .L171
 990:Drivers/STM32F4xx_HAL_Driver/Src/stm32f4xx_hal_i2s_ex.c **** 
 1952              		.loc 1 990 0
 1953 00c6 0123     		movs	r3, #1
 1954 00c8 85F84130 		strb	r3, [r5, #65]
 992:Drivers/STM32F4xx_HAL_Driver/Src/stm32f4xx_hal_i2s_ex.c ****       }
 1955              		.loc 1 992 0
 1956 00cc 2846     		mov	r0, r5
 1957 00ce FFF7FEFF 		bl	HAL_I2SEx_TxRxCpltCallback
 1958              	.LVL136:
 1959              	.L171:
 1960 00d2 38BD     		pop	{r3, r4, r5, pc}
 1961              	.LVL137:
 1962              	.L190:
 1963              		.align	2
 1964              	.L189:
 1965 00d4 00380040 		.word	1073756160
 1966 00d8 00340040 		.word	1073755136
 1967              		.cfi_endproc
 1968              	.LFE130:
 1970              		.section	.text.I2SEx_FullDuplexTx_IT,"ax",%progbits
 1971              		.align	2
 1972              		.thumb
 1973              		.thumb_func
 1975              	I2SEx_FullDuplexTx_IT:
 1976              	.LFB132:
1028:Drivers/STM32F4xx_HAL_Driver/Src/stm32f4xx_hal_i2s_ex.c ****   if(i2sUsed == I2S_USE_I2S)
 1977              		.loc 1 1028 0
 1978              		.cfi_startproc
 1979              		@ args = 0, pretend = 0, frame = 0
 1980              		@ frame_needed = 0, uses_anonymous_args = 0
 1981              	.LVL138:
 1982 0000 08B5     		push	{r3, lr}
 1983              	.LCFI15:
 1984              		.cfi_def_cfa_offset 8
 1985              		.cfi_offset 3, -8
 1986              		.cfi_offset 14, -4
1029:Drivers/STM32F4xx_HAL_Driver/Src/stm32f4xx_hal_i2s_ex.c ****   {
 1987              		.loc 1 1029 0
 1988 0002 F1B9     		cbnz	r1, .L192
1032:Drivers/STM32F4xx_HAL_Driver/Src/stm32f4xx_hal_i2s_ex.c ****     hi2s->TxXferCount--;
 1989              		.loc 1 1032 0
 1990 0004 0268     		ldr	r2, [r0]
 1991 0006 436A     		ldr	r3, [r0, #36]
 1992 0008 991C     		adds	r1, r3, #2
 1993              	.LVL139:
 1994 000a 4162     		str	r1, [r0, #36]
 1995 000c 1B88     		ldrh	r3, [r3]
 1996 000e D360     		str	r3, [r2, #12]
1033:Drivers/STM32F4xx_HAL_Driver/Src/stm32f4xx_hal_i2s_ex.c **** 
 1997              		.loc 1 1033 0
ARM GAS  /tmp/ccPpxa3p.s 			page 62


 1998 0010 438D     		ldrh	r3, [r0, #42]
 1999 0012 013B     		subs	r3, r3, #1
 2000 0014 9BB2     		uxth	r3, r3
 2001 0016 4385     		strh	r3, [r0, #42]	@ movhi
1035:Drivers/STM32F4xx_HAL_Driver/Src/stm32f4xx_hal_i2s_ex.c ****     {
 2002              		.loc 1 1035 0
 2003 0018 438D     		ldrh	r3, [r0, #42]
 2004 001a 9BB2     		uxth	r3, r3
 2005 001c 002B     		cmp	r3, #0
 2006 001e 3FD1     		bne	.L191
1038:Drivers/STM32F4xx_HAL_Driver/Src/stm32f4xx_hal_i2s_ex.c **** 
 2007              		.loc 1 1038 0
 2008 0020 0268     		ldr	r2, [r0]
 2009 0022 5368     		ldr	r3, [r2, #4]
 2010 0024 23F0A003 		bic	r3, r3, #160
 2011 0028 1B04     		lsls	r3, r3, #16
 2012 002a 1B0C     		lsrs	r3, r3, #16
 2013 002c 5360     		str	r3, [r2, #4]
1040:Drivers/STM32F4xx_HAL_Driver/Src/stm32f4xx_hal_i2s_ex.c ****       {
 2014              		.loc 1 1040 0
 2015 002e 438E     		ldrh	r3, [r0, #50]
 2016 0030 9BB2     		uxth	r3, r3
 2017 0032 002B     		cmp	r3, #0
 2018 0034 34D1     		bne	.L191
1042:Drivers/STM32F4xx_HAL_Driver/Src/stm32f4xx_hal_i2s_ex.c ****         HAL_I2SEx_TxRxCpltCallback(hi2s);
 2019              		.loc 1 1042 0
 2020 0036 0123     		movs	r3, #1
 2021 0038 80F84130 		strb	r3, [r0, #65]
1043:Drivers/STM32F4xx_HAL_Driver/Src/stm32f4xx_hal_i2s_ex.c ****       }
 2022              		.loc 1 1043 0
 2023 003c FFF7FEFF 		bl	HAL_I2SEx_TxRxCpltCallback
 2024              	.LVL140:
 2025 0040 08BD     		pop	{r3, pc}
 2026              	.LVL141:
 2027              	.L192:
1050:Drivers/STM32F4xx_HAL_Driver/Src/stm32f4xx_hal_i2s_ex.c ****     hi2s->TxXferCount--;
 2028              		.loc 1 1050 0
 2029 0042 0268     		ldr	r2, [r0]
 2030 0044 174B     		ldr	r3, .L201
 2031 0046 9A42     		cmp	r2, r3
 2032 0048 01D1     		bne	.L197
 2033 004a 174A     		ldr	r2, .L201+4
 2034 004c 01E0     		b	.L194
 2035              	.L197:
 2036 004e 4FF04022 		mov	r2, #1073758208
 2037              	.L194:
1050:Drivers/STM32F4xx_HAL_Driver/Src/stm32f4xx_hal_i2s_ex.c ****     hi2s->TxXferCount--;
 2038              		.loc 1 1050 0 is_stmt 0 discriminator 4
 2039 0052 436A     		ldr	r3, [r0, #36]
 2040 0054 991C     		adds	r1, r3, #2
 2041              	.LVL142:
 2042 0056 4162     		str	r1, [r0, #36]
 2043 0058 1B88     		ldrh	r3, [r3]
 2044 005a D360     		str	r3, [r2, #12]
1051:Drivers/STM32F4xx_HAL_Driver/Src/stm32f4xx_hal_i2s_ex.c **** 
 2045              		.loc 1 1051 0 is_stmt 1 discriminator 4
 2046 005c 438D     		ldrh	r3, [r0, #42]
ARM GAS  /tmp/ccPpxa3p.s 			page 63


 2047 005e 013B     		subs	r3, r3, #1
 2048 0060 9BB2     		uxth	r3, r3
 2049 0062 4385     		strh	r3, [r0, #42]	@ movhi
1053:Drivers/STM32F4xx_HAL_Driver/Src/stm32f4xx_hal_i2s_ex.c ****     {
 2050              		.loc 1 1053 0 discriminator 4
 2051 0064 438D     		ldrh	r3, [r0, #42]
 2052 0066 9BB2     		uxth	r3, r3
 2053 0068 D3B9     		cbnz	r3, .L191
1056:Drivers/STM32F4xx_HAL_Driver/Src/stm32f4xx_hal_i2s_ex.c **** 
 2054              		.loc 1 1056 0
 2055 006a 0368     		ldr	r3, [r0]
 2056 006c 0D4A     		ldr	r2, .L201
 2057 006e 9342     		cmp	r3, r2
 2058 0070 01D1     		bne	.L198
 2059 0072 0D49     		ldr	r1, .L201+4
 2060 0074 01E0     		b	.L195
 2061              	.L198:
 2062 0076 4FF04021 		mov	r1, #1073758208
 2063              	.L195:
1056:Drivers/STM32F4xx_HAL_Driver/Src/stm32f4xx_hal_i2s_ex.c **** 
 2064              		.loc 1 1056 0 is_stmt 0 discriminator 4
 2065 007a 0A4A     		ldr	r2, .L201
 2066 007c 9342     		cmp	r3, r2
 2067 007e 01D1     		bne	.L199
1056:Drivers/STM32F4xx_HAL_Driver/Src/stm32f4xx_hal_i2s_ex.c **** 
 2068              		.loc 1 1056 0
 2069 0080 094B     		ldr	r3, .L201+4
 2070 0082 01E0     		b	.L196
 2071              	.L199:
 2072 0084 4FF04023 		mov	r3, #1073758208
 2073              	.L196:
1056:Drivers/STM32F4xx_HAL_Driver/Src/stm32f4xx_hal_i2s_ex.c **** 
 2074              		.loc 1 1056 0 discriminator 8
 2075 0088 5B68     		ldr	r3, [r3, #4]
 2076 008a 23F0A003 		bic	r3, r3, #160
 2077 008e 4B60     		str	r3, [r1, #4]
1058:Drivers/STM32F4xx_HAL_Driver/Src/stm32f4xx_hal_i2s_ex.c ****       {
 2078              		.loc 1 1058 0 is_stmt 1 discriminator 8
 2079 0090 438E     		ldrh	r3, [r0, #50]
 2080 0092 9BB2     		uxth	r3, r3
 2081 0094 23B9     		cbnz	r3, .L191
1060:Drivers/STM32F4xx_HAL_Driver/Src/stm32f4xx_hal_i2s_ex.c ****         HAL_I2SEx_TxRxCpltCallback(hi2s);
 2082              		.loc 1 1060 0
 2083 0096 0123     		movs	r3, #1
 2084 0098 80F84130 		strb	r3, [r0, #65]
1061:Drivers/STM32F4xx_HAL_Driver/Src/stm32f4xx_hal_i2s_ex.c ****       }
 2085              		.loc 1 1061 0
 2086 009c FFF7FEFF 		bl	HAL_I2SEx_TxRxCpltCallback
 2087              	.LVL143:
 2088              	.L191:
 2089 00a0 08BD     		pop	{r3, pc}
 2090              	.L202:
 2091 00a2 00BF     		.align	2
 2092              	.L201:
 2093 00a4 00380040 		.word	1073756160
 2094 00a8 00340040 		.word	1073755136
 2095              		.cfi_endproc
ARM GAS  /tmp/ccPpxa3p.s 			page 64


 2096              	.LFE132:
 2098              		.section	.text.I2SEx_FullDuplexRx_IT,"ax",%progbits
 2099              		.align	2
 2100              		.thumb
 2101              		.thumb_func
 2103              	I2SEx_FullDuplexRx_IT:
 2104              	.LFB133:
1074:Drivers/STM32F4xx_HAL_Driver/Src/stm32f4xx_hal_i2s_ex.c ****   if(i2sUsed == I2S_USE_I2S)
 2105              		.loc 1 1074 0
 2106              		.cfi_startproc
 2107              		@ args = 0, pretend = 0, frame = 0
 2108              		@ frame_needed = 0, uses_anonymous_args = 0
 2109              	.LVL144:
 2110 0000 08B5     		push	{r3, lr}
 2111              	.LCFI16:
 2112              		.cfi_def_cfa_offset 8
 2113              		.cfi_offset 3, -8
 2114              		.cfi_offset 14, -4
1075:Drivers/STM32F4xx_HAL_Driver/Src/stm32f4xx_hal_i2s_ex.c ****   {
 2115              		.loc 1 1075 0
 2116 0002 F1B9     		cbnz	r1, .L204
1078:Drivers/STM32F4xx_HAL_Driver/Src/stm32f4xx_hal_i2s_ex.c ****     hi2s->RxXferCount--;
 2117              		.loc 1 1078 0
 2118 0004 C36A     		ldr	r3, [r0, #44]
 2119 0006 9A1C     		adds	r2, r3, #2
 2120 0008 C262     		str	r2, [r0, #44]
 2121 000a 0268     		ldr	r2, [r0]
 2122 000c D268     		ldr	r2, [r2, #12]
 2123 000e 1A80     		strh	r2, [r3]	@ movhi
1079:Drivers/STM32F4xx_HAL_Driver/Src/stm32f4xx_hal_i2s_ex.c **** 
 2124              		.loc 1 1079 0
 2125 0010 438E     		ldrh	r3, [r0, #50]
 2126 0012 013B     		subs	r3, r3, #1
 2127 0014 9BB2     		uxth	r3, r3
 2128 0016 4386     		strh	r3, [r0, #50]	@ movhi
1081:Drivers/STM32F4xx_HAL_Driver/Src/stm32f4xx_hal_i2s_ex.c ****     {
 2129              		.loc 1 1081 0
 2130 0018 438E     		ldrh	r3, [r0, #50]
 2131 001a 9BB2     		uxth	r3, r3
 2132 001c 002B     		cmp	r3, #0
 2133 001e 40D1     		bne	.L203
1084:Drivers/STM32F4xx_HAL_Driver/Src/stm32f4xx_hal_i2s_ex.c **** 
 2134              		.loc 1 1084 0
 2135 0020 0268     		ldr	r2, [r0]
 2136 0022 5368     		ldr	r3, [r2, #4]
 2137 0024 23F06003 		bic	r3, r3, #96
 2138 0028 1B04     		lsls	r3, r3, #16
 2139 002a 1B0C     		lsrs	r3, r3, #16
 2140 002c 5360     		str	r3, [r2, #4]
1086:Drivers/STM32F4xx_HAL_Driver/Src/stm32f4xx_hal_i2s_ex.c ****       {
 2141              		.loc 1 1086 0
 2142 002e 438D     		ldrh	r3, [r0, #42]
 2143 0030 9BB2     		uxth	r3, r3
 2144 0032 002B     		cmp	r3, #0
 2145 0034 35D1     		bne	.L203
1088:Drivers/STM32F4xx_HAL_Driver/Src/stm32f4xx_hal_i2s_ex.c ****         HAL_I2SEx_TxRxCpltCallback(hi2s);
 2146              		.loc 1 1088 0
ARM GAS  /tmp/ccPpxa3p.s 			page 65


 2147 0036 0123     		movs	r3, #1
 2148 0038 80F84130 		strb	r3, [r0, #65]
1089:Drivers/STM32F4xx_HAL_Driver/Src/stm32f4xx_hal_i2s_ex.c ****       }
 2149              		.loc 1 1089 0
 2150 003c FFF7FEFF 		bl	HAL_I2SEx_TxRxCpltCallback
 2151              	.LVL145:
 2152 0040 08BD     		pop	{r3, pc}
 2153              	.LVL146:
 2154              	.L204:
1096:Drivers/STM32F4xx_HAL_Driver/Src/stm32f4xx_hal_i2s_ex.c ****     hi2s->RxXferCount--;
 2155              		.loc 1 1096 0
 2156 0042 C36A     		ldr	r3, [r0, #44]
 2157 0044 9A1C     		adds	r2, r3, #2
 2158 0046 C262     		str	r2, [r0, #44]
 2159 0048 0168     		ldr	r1, [r0]
 2160              	.LVL147:
 2161 004a 164A     		ldr	r2, .L213
 2162 004c 9142     		cmp	r1, r2
 2163 004e 02D1     		bne	.L209
 2164 0050 A2F58062 		sub	r2, r2, #1024
 2165 0054 01E0     		b	.L206
 2166              	.L209:
 2167 0056 4FF04022 		mov	r2, #1073758208
 2168              	.L206:
1096:Drivers/STM32F4xx_HAL_Driver/Src/stm32f4xx_hal_i2s_ex.c ****     hi2s->RxXferCount--;
 2169              		.loc 1 1096 0 is_stmt 0 discriminator 4
 2170 005a D268     		ldr	r2, [r2, #12]
 2171 005c 1A80     		strh	r2, [r3]	@ movhi
1097:Drivers/STM32F4xx_HAL_Driver/Src/stm32f4xx_hal_i2s_ex.c **** 
 2172              		.loc 1 1097 0 is_stmt 1 discriminator 4
 2173 005e 438E     		ldrh	r3, [r0, #50]
 2174 0060 013B     		subs	r3, r3, #1
 2175 0062 9BB2     		uxth	r3, r3
 2176 0064 4386     		strh	r3, [r0, #50]	@ movhi
1099:Drivers/STM32F4xx_HAL_Driver/Src/stm32f4xx_hal_i2s_ex.c ****     {
 2177              		.loc 1 1099 0 discriminator 4
 2178 0066 438E     		ldrh	r3, [r0, #50]
 2179 0068 9BB2     		uxth	r3, r3
 2180 006a D3B9     		cbnz	r3, .L203
1102:Drivers/STM32F4xx_HAL_Driver/Src/stm32f4xx_hal_i2s_ex.c **** 
 2181              		.loc 1 1102 0
 2182 006c 0368     		ldr	r3, [r0]
 2183 006e 0D4A     		ldr	r2, .L213
 2184 0070 9342     		cmp	r3, r2
 2185 0072 01D1     		bne	.L210
 2186 0074 0C49     		ldr	r1, .L213+4
 2187 0076 01E0     		b	.L207
 2188              	.L210:
 2189 0078 4FF04021 		mov	r1, #1073758208
 2190              	.L207:
1102:Drivers/STM32F4xx_HAL_Driver/Src/stm32f4xx_hal_i2s_ex.c **** 
 2191              		.loc 1 1102 0 is_stmt 0 discriminator 4
 2192 007c 094A     		ldr	r2, .L213
 2193 007e 9342     		cmp	r3, r2
 2194 0080 01D1     		bne	.L211
1102:Drivers/STM32F4xx_HAL_Driver/Src/stm32f4xx_hal_i2s_ex.c **** 
 2195              		.loc 1 1102 0
ARM GAS  /tmp/ccPpxa3p.s 			page 66


 2196 0082 094B     		ldr	r3, .L213+4
 2197 0084 01E0     		b	.L208
 2198              	.L211:
 2199 0086 4FF04023 		mov	r3, #1073758208
 2200              	.L208:
1102:Drivers/STM32F4xx_HAL_Driver/Src/stm32f4xx_hal_i2s_ex.c **** 
 2201              		.loc 1 1102 0 discriminator 8
 2202 008a 5B68     		ldr	r3, [r3, #4]
 2203 008c 23F06003 		bic	r3, r3, #96
 2204 0090 4B60     		str	r3, [r1, #4]
1104:Drivers/STM32F4xx_HAL_Driver/Src/stm32f4xx_hal_i2s_ex.c ****       {
 2205              		.loc 1 1104 0 is_stmt 1 discriminator 8
 2206 0092 438D     		ldrh	r3, [r0, #42]
 2207 0094 9BB2     		uxth	r3, r3
 2208 0096 23B9     		cbnz	r3, .L203
1106:Drivers/STM32F4xx_HAL_Driver/Src/stm32f4xx_hal_i2s_ex.c ****         HAL_I2SEx_TxRxCpltCallback(hi2s);
 2209              		.loc 1 1106 0
 2210 0098 0123     		movs	r3, #1
 2211 009a 80F84130 		strb	r3, [r0, #65]
1107:Drivers/STM32F4xx_HAL_Driver/Src/stm32f4xx_hal_i2s_ex.c ****       }
 2212              		.loc 1 1107 0
 2213 009e FFF7FEFF 		bl	HAL_I2SEx_TxRxCpltCallback
 2214              	.LVL148:
 2215              	.L203:
 2216 00a2 08BD     		pop	{r3, pc}
 2217              	.L214:
 2218              		.align	2
 2219              	.L213:
 2220 00a4 00380040 		.word	1073756160
 2221 00a8 00340040 		.word	1073755136
 2222              		.cfi_endproc
 2223              	.LFE133:
 2225              		.section	.text.HAL_I2SEx_FullDuplex_IRQHandler,"ax",%progbits
 2226              		.align	2
 2227              		.global	HAL_I2SEx_FullDuplex_IRQHandler
 2228              		.thumb
 2229              		.thumb_func
 2231              	HAL_I2SEx_FullDuplex_IRQHandler:
 2232              	.LFB126:
 763:Drivers/STM32F4xx_HAL_Driver/Src/stm32f4xx_hal_i2s_ex.c ****   __IO uint32_t i2ssr    = hi2s->Instance->SR ;
 2233              		.loc 1 763 0
 2234              		.cfi_startproc
 2235              		@ args = 0, pretend = 0, frame = 16
 2236              		@ frame_needed = 0, uses_anonymous_args = 0
 2237              	.LVL149:
 2238 0000 10B5     		push	{r4, lr}
 2239              	.LCFI17:
 2240              		.cfi_def_cfa_offset 8
 2241              		.cfi_offset 4, -8
 2242              		.cfi_offset 14, -4
 2243 0002 84B0     		sub	sp, sp, #16
 2244              	.LCFI18:
 2245              		.cfi_def_cfa_offset 24
 2246 0004 0446     		mov	r4, r0
 764:Drivers/STM32F4xx_HAL_Driver/Src/stm32f4xx_hal_i2s_ex.c ****   __IO uint32_t i2sextsr = I2SxEXT(hi2s->Instance)->SR;
 2247              		.loc 1 764 0
 2248 0006 0368     		ldr	r3, [r0]
ARM GAS  /tmp/ccPpxa3p.s 			page 67


 2249 0008 9A68     		ldr	r2, [r3, #8]
 2250 000a 0392     		str	r2, [sp, #12]
 765:Drivers/STM32F4xx_HAL_Driver/Src/stm32f4xx_hal_i2s_ex.c **** 
 2251              		.loc 1 765 0
 2252 000c 944A     		ldr	r2, .L252
 2253 000e 9342     		cmp	r3, r2
 2254 0010 02D1     		bne	.L238
 2255 0012 A2F58062 		sub	r2, r2, #1024
 2256 0016 01E0     		b	.L216
 2257              	.L238:
 2258 0018 4FF04022 		mov	r2, #1073758208
 2259              	.L216:
 765:Drivers/STM32F4xx_HAL_Driver/Src/stm32f4xx_hal_i2s_ex.c **** 
 2260              		.loc 1 765 0 is_stmt 0 discriminator 4
 2261 001c 9268     		ldr	r2, [r2, #8]
 2262 001e 0292     		str	r2, [sp, #8]
 768:Drivers/STM32F4xx_HAL_Driver/Src/stm32f4xx_hal_i2s_ex.c ****       || ((hi2s->Instance->I2SCFGR & SPI_I2SCFGR_I2SCFG) == I2S_MODE_SLAVE_TX))
 2263              		.loc 1 768 0 is_stmt 1 discriminator 4
 2264 0020 DA69     		ldr	r2, [r3, #28]
 2265 0022 02F44072 		and	r2, r2, #768
 2266 0026 B2F5007F 		cmp	r2, #512
 2267 002a 04D0     		beq	.L217
 769:Drivers/STM32F4xx_HAL_Driver/Src/stm32f4xx_hal_i2s_ex.c ****   {
 2268              		.loc 1 769 0
 2269 002c DA69     		ldr	r2, [r3, #28]
 2270 002e 12F4407F 		tst	r2, #768
 2271 0032 40F09380 		bne	.L218
 2272              	.L217:
 772:Drivers/STM32F4xx_HAL_Driver/Src/stm32f4xx_hal_i2s_ex.c ****     {
 2273              		.loc 1 772 0
 2274 0036 039A     		ldr	r2, [sp, #12]
 2275 0038 12F0020F 		tst	r2, #2
 2276 003c 07D0     		beq	.L219
 772:Drivers/STM32F4xx_HAL_Driver/Src/stm32f4xx_hal_i2s_ex.c ****     {
 2277              		.loc 1 772 0 is_stmt 0 discriminator 1
 2278 003e 5B68     		ldr	r3, [r3, #4]
 2279 0040 13F0800F 		tst	r3, #128
 2280 0044 03D0     		beq	.L219
 776:Drivers/STM32F4xx_HAL_Driver/Src/stm32f4xx_hal_i2s_ex.c ****     }
 2281              		.loc 1 776 0 is_stmt 1
 2282 0046 2046     		mov	r0, r4
 2283              	.LVL150:
 2284 0048 0021     		movs	r1, #0
 2285 004a FFF7FEFF 		bl	I2SEx_FullDuplexTx_IT
 2286              	.LVL151:
 2287              	.L219:
 780:Drivers/STM32F4xx_HAL_Driver/Src/stm32f4xx_hal_i2s_ex.c ****     {
 2288              		.loc 1 780 0
 2289 004e 029B     		ldr	r3, [sp, #8]
 2290 0050 13F0010F 		tst	r3, #1
 2291 0054 10D0     		beq	.L220
 780:Drivers/STM32F4xx_HAL_Driver/Src/stm32f4xx_hal_i2s_ex.c ****     {
 2292              		.loc 1 780 0 is_stmt 0 discriminator 1
 2293 0056 2268     		ldr	r2, [r4]
 2294 0058 814B     		ldr	r3, .L252
 2295 005a 9A42     		cmp	r2, r3
 2296 005c 02D1     		bne	.L239
ARM GAS  /tmp/ccPpxa3p.s 			page 68


 780:Drivers/STM32F4xx_HAL_Driver/Src/stm32f4xx_hal_i2s_ex.c ****     {
 2297              		.loc 1 780 0
 2298 005e A3F58063 		sub	r3, r3, #1024
 2299 0062 01E0     		b	.L221
 2300              	.L239:
 2301 0064 4FF04023 		mov	r3, #1073758208
 2302              	.L221:
 780:Drivers/STM32F4xx_HAL_Driver/Src/stm32f4xx_hal_i2s_ex.c ****     {
 2303              		.loc 1 780 0 discriminator 5
 2304 0068 5B68     		ldr	r3, [r3, #4]
 2305 006a 13F0400F 		tst	r3, #64
 2306 006e 03D0     		beq	.L220
 784:Drivers/STM32F4xx_HAL_Driver/Src/stm32f4xx_hal_i2s_ex.c ****     }
 2307              		.loc 1 784 0 is_stmt 1
 2308 0070 2046     		mov	r0, r4
 2309 0072 0121     		movs	r1, #1
 2310 0074 FFF7FEFF 		bl	I2SEx_FullDuplexRx_IT
 2311              	.LVL152:
 2312              	.L220:
 788:Drivers/STM32F4xx_HAL_Driver/Src/stm32f4xx_hal_i2s_ex.c ****     {
 2313              		.loc 1 788 0
 2314 0078 029B     		ldr	r3, [sp, #8]
 2315 007a 13F0400F 		tst	r3, #64
 2316 007e 38D0     		beq	.L222
 788:Drivers/STM32F4xx_HAL_Driver/Src/stm32f4xx_hal_i2s_ex.c ****     {
 2317              		.loc 1 788 0 is_stmt 0 discriminator 1
 2318 0080 2368     		ldr	r3, [r4]
 2319 0082 774A     		ldr	r2, .L252
 2320 0084 9342     		cmp	r3, r2
 2321 0086 02D1     		bne	.L240
 788:Drivers/STM32F4xx_HAL_Driver/Src/stm32f4xx_hal_i2s_ex.c ****     {
 2322              		.loc 1 788 0
 2323 0088 A2F58062 		sub	r2, r2, #1024
 2324 008c 01E0     		b	.L223
 2325              	.L240:
 2326 008e 4FF04022 		mov	r2, #1073758208
 2327              	.L223:
 788:Drivers/STM32F4xx_HAL_Driver/Src/stm32f4xx_hal_i2s_ex.c ****     {
 2328              		.loc 1 788 0 discriminator 5
 2329 0092 5268     		ldr	r2, [r2, #4]
 2330 0094 12F0200F 		tst	r2, #32
 2331 0098 2BD0     		beq	.L222
 791:Drivers/STM32F4xx_HAL_Driver/Src/stm32f4xx_hal_i2s_ex.c **** 
 2332              		.loc 1 791 0 is_stmt 1
 2333 009a 714A     		ldr	r2, .L252
 2334 009c 9342     		cmp	r3, r2
 2335 009e 02D1     		bne	.L241
 2336 00a0 A2F58062 		sub	r2, r2, #1024
 2337 00a4 01E0     		b	.L224
 2338              	.L241:
 2339 00a6 4FF04022 		mov	r2, #1073758208
 2340              	.L224:
 791:Drivers/STM32F4xx_HAL_Driver/Src/stm32f4xx_hal_i2s_ex.c **** 
 2341              		.loc 1 791 0 is_stmt 0 discriminator 4
 2342 00aa 6D49     		ldr	r1, .L252
 2343 00ac 8B42     		cmp	r3, r1
 2344 00ae 01D1     		bne	.L242
ARM GAS  /tmp/ccPpxa3p.s 			page 69


 791:Drivers/STM32F4xx_HAL_Driver/Src/stm32f4xx_hal_i2s_ex.c **** 
 2345              		.loc 1 791 0
 2346 00b0 6C4B     		ldr	r3, .L252+4
 2347 00b2 01E0     		b	.L225
 2348              	.L242:
 2349 00b4 4FF04023 		mov	r3, #1073758208
 2350              	.L225:
 791:Drivers/STM32F4xx_HAL_Driver/Src/stm32f4xx_hal_i2s_ex.c **** 
 2351              		.loc 1 791 0 discriminator 8
 2352 00b8 5B68     		ldr	r3, [r3, #4]
 2353 00ba 23F06003 		bic	r3, r3, #96
 2354 00be 5360     		str	r3, [r2, #4]
 794:Drivers/STM32F4xx_HAL_Driver/Src/stm32f4xx_hal_i2s_ex.c **** 
 2355              		.loc 1 794 0 is_stmt 1 discriminator 8
 2356 00c0 2268     		ldr	r2, [r4]
 2357 00c2 5368     		ldr	r3, [r2, #4]
 2358 00c4 23F0A003 		bic	r3, r3, #160
 2359 00c8 1B04     		lsls	r3, r3, #16
 2360 00ca 1B0C     		lsrs	r3, r3, #16
 2361 00cc 5360     		str	r3, [r2, #4]
 2362              	.LBB9:
 797:Drivers/STM32F4xx_HAL_Driver/Src/stm32f4xx_hal_i2s_ex.c **** 
 2363              		.loc 1 797 0 discriminator 8
 2364 00ce 0023     		movs	r3, #0
 2365 00d0 0093     		str	r3, [sp]
 2366 00d2 2368     		ldr	r3, [r4]
 2367 00d4 DA68     		ldr	r2, [r3, #12]
 2368 00d6 0092     		str	r2, [sp]
 2369 00d8 9B68     		ldr	r3, [r3, #8]
 2370 00da 0093     		str	r3, [sp]
 2371 00dc 009B     		ldr	r3, [sp]
 2372              	.LBE9:
 800:Drivers/STM32F4xx_HAL_Driver/Src/stm32f4xx_hal_i2s_ex.c **** 
 2373              		.loc 1 800 0 discriminator 8
 2374 00de 0123     		movs	r3, #1
 2375 00e0 84F84130 		strb	r3, [r4, #65]
 803:Drivers/STM32F4xx_HAL_Driver/Src/stm32f4xx_hal_i2s_ex.c ****       HAL_I2S_ErrorCallback(hi2s);
 2376              		.loc 1 803 0 discriminator 8
 2377 00e4 636C     		ldr	r3, [r4, #68]
 2378 00e6 43F00203 		orr	r3, r3, #2
 2379 00ea 6364     		str	r3, [r4, #68]
 804:Drivers/STM32F4xx_HAL_Driver/Src/stm32f4xx_hal_i2s_ex.c ****     }
 2380              		.loc 1 804 0 discriminator 8
 2381 00ec 2046     		mov	r0, r4
 2382 00ee FFF7FEFF 		bl	HAL_I2S_ErrorCallback
 2383              	.LVL153:
 2384              	.L222:
 808:Drivers/STM32F4xx_HAL_Driver/Src/stm32f4xx_hal_i2s_ex.c ****     {
 2385              		.loc 1 808 0
 2386 00f2 039B     		ldr	r3, [sp, #12]
 2387 00f4 13F0080F 		tst	r3, #8
 2388 00f8 00F0B080 		beq	.L215
 808:Drivers/STM32F4xx_HAL_Driver/Src/stm32f4xx_hal_i2s_ex.c ****     {
 2389              		.loc 1 808 0 is_stmt 0 discriminator 1
 2390 00fc 2368     		ldr	r3, [r4]
 2391 00fe 5A68     		ldr	r2, [r3, #4]
 2392 0100 12F0200F 		tst	r2, #32
ARM GAS  /tmp/ccPpxa3p.s 			page 70


 2393 0104 00F0AA80 		beq	.L215
 811:Drivers/STM32F4xx_HAL_Driver/Src/stm32f4xx_hal_i2s_ex.c **** 
 2394              		.loc 1 811 0 is_stmt 1
 2395 0108 5A68     		ldr	r2, [r3, #4]
 2396 010a 22F0A002 		bic	r2, r2, #160
 2397 010e 1204     		lsls	r2, r2, #16
 2398 0110 120C     		lsrs	r2, r2, #16
 2399 0112 5A60     		str	r2, [r3, #4]
 814:Drivers/STM32F4xx_HAL_Driver/Src/stm32f4xx_hal_i2s_ex.c **** 
 2400              		.loc 1 814 0
 2401 0114 2368     		ldr	r3, [r4]
 2402 0116 524A     		ldr	r2, .L252
 2403 0118 9342     		cmp	r3, r2
 2404 011a 01D1     		bne	.L243
 2405 011c 5149     		ldr	r1, .L252+4
 2406 011e 01E0     		b	.L227
 2407              	.L243:
 2408 0120 4FF04021 		mov	r1, #1073758208
 2409              	.L227:
 814:Drivers/STM32F4xx_HAL_Driver/Src/stm32f4xx_hal_i2s_ex.c **** 
 2410              		.loc 1 814 0 is_stmt 0 discriminator 4
 2411 0124 4E4A     		ldr	r2, .L252
 2412 0126 9342     		cmp	r3, r2
 2413 0128 01D1     		bne	.L244
 814:Drivers/STM32F4xx_HAL_Driver/Src/stm32f4xx_hal_i2s_ex.c **** 
 2414              		.loc 1 814 0
 2415 012a 4E4B     		ldr	r3, .L252+4
 2416 012c 01E0     		b	.L228
 2417              	.L244:
 2418 012e 4FF04023 		mov	r3, #1073758208
 2419              	.L228:
 814:Drivers/STM32F4xx_HAL_Driver/Src/stm32f4xx_hal_i2s_ex.c **** 
 2420              		.loc 1 814 0 discriminator 8
 2421 0132 5B68     		ldr	r3, [r3, #4]
 2422 0134 23F06003 		bic	r3, r3, #96
 2423 0138 4B60     		str	r3, [r1, #4]
 2424              	.LBB10:
 817:Drivers/STM32F4xx_HAL_Driver/Src/stm32f4xx_hal_i2s_ex.c **** 
 2425              		.loc 1 817 0 is_stmt 1 discriminator 8
 2426 013a 0023     		movs	r3, #0
 2427 013c 0193     		str	r3, [sp, #4]
 2428 013e 2368     		ldr	r3, [r4]
 2429 0140 9B68     		ldr	r3, [r3, #8]
 2430 0142 0193     		str	r3, [sp, #4]
 2431 0144 019B     		ldr	r3, [sp, #4]
 2432              	.LBE10:
 820:Drivers/STM32F4xx_HAL_Driver/Src/stm32f4xx_hal_i2s_ex.c **** 
 2433              		.loc 1 820 0 discriminator 8
 2434 0146 0123     		movs	r3, #1
 2435 0148 84F84130 		strb	r3, [r4, #65]
 823:Drivers/STM32F4xx_HAL_Driver/Src/stm32f4xx_hal_i2s_ex.c ****       HAL_I2S_ErrorCallback(hi2s);
 2436              		.loc 1 823 0 discriminator 8
 2437 014c 636C     		ldr	r3, [r4, #68]
 2438 014e 43F00403 		orr	r3, r3, #4
 2439 0152 6364     		str	r3, [r4, #68]
 824:Drivers/STM32F4xx_HAL_Driver/Src/stm32f4xx_hal_i2s_ex.c ****     }
 2440              		.loc 1 824 0 discriminator 8
ARM GAS  /tmp/ccPpxa3p.s 			page 71


 2441 0154 2046     		mov	r0, r4
 2442 0156 FFF7FEFF 		bl	HAL_I2S_ErrorCallback
 2443              	.LVL154:
 2444 015a 7FE0     		b	.L215
 2445              	.LVL155:
 2446              	.L218:
 831:Drivers/STM32F4xx_HAL_Driver/Src/stm32f4xx_hal_i2s_ex.c ****     {
 2447              		.loc 1 831 0
 2448 015c 029A     		ldr	r2, [sp, #8]
 2449 015e 12F0020F 		tst	r2, #2
 2450 0162 0ED0     		beq	.L229
 831:Drivers/STM32F4xx_HAL_Driver/Src/stm32f4xx_hal_i2s_ex.c ****     {
 2451              		.loc 1 831 0 is_stmt 0 discriminator 1
 2452 0164 3E4A     		ldr	r2, .L252
 2453 0166 9342     		cmp	r3, r2
 2454 0168 01D1     		bne	.L245
 831:Drivers/STM32F4xx_HAL_Driver/Src/stm32f4xx_hal_i2s_ex.c ****     {
 2455              		.loc 1 831 0
 2456 016a 3E4B     		ldr	r3, .L252+4
 2457 016c 01E0     		b	.L230
 2458              	.L245:
 2459 016e 4FF04023 		mov	r3, #1073758208
 2460              	.L230:
 831:Drivers/STM32F4xx_HAL_Driver/Src/stm32f4xx_hal_i2s_ex.c ****     {
 2461              		.loc 1 831 0 discriminator 5
 2462 0172 5B68     		ldr	r3, [r3, #4]
 2463 0174 13F0800F 		tst	r3, #128
 2464 0178 03D0     		beq	.L229
 835:Drivers/STM32F4xx_HAL_Driver/Src/stm32f4xx_hal_i2s_ex.c ****     }
 2465              		.loc 1 835 0 is_stmt 1
 2466 017a 2046     		mov	r0, r4
 2467              	.LVL156:
 2468 017c 0121     		movs	r1, #1
 2469 017e FFF7FEFF 		bl	I2SEx_FullDuplexTx_IT
 2470              	.LVL157:
 2471              	.L229:
 839:Drivers/STM32F4xx_HAL_Driver/Src/stm32f4xx_hal_i2s_ex.c ****     {
 2472              		.loc 1 839 0
 2473 0182 039B     		ldr	r3, [sp, #12]
 2474 0184 13F0010F 		tst	r3, #1
 2475 0188 08D0     		beq	.L231
 839:Drivers/STM32F4xx_HAL_Driver/Src/stm32f4xx_hal_i2s_ex.c ****     {
 2476              		.loc 1 839 0 is_stmt 0 discriminator 1
 2477 018a 2368     		ldr	r3, [r4]
 2478 018c 5B68     		ldr	r3, [r3, #4]
 2479 018e 13F0400F 		tst	r3, #64
 2480 0192 03D0     		beq	.L231
 843:Drivers/STM32F4xx_HAL_Driver/Src/stm32f4xx_hal_i2s_ex.c ****     }
 2481              		.loc 1 843 0 is_stmt 1
 2482 0194 2046     		mov	r0, r4
 2483 0196 0021     		movs	r1, #0
 2484 0198 FFF7FEFF 		bl	I2SEx_FullDuplexRx_IT
 2485              	.LVL158:
 2486              	.L231:
 847:Drivers/STM32F4xx_HAL_Driver/Src/stm32f4xx_hal_i2s_ex.c ****     {
 2487              		.loc 1 847 0
 2488 019c 039B     		ldr	r3, [sp, #12]
ARM GAS  /tmp/ccPpxa3p.s 			page 72


 2489 019e 13F0400F 		tst	r3, #64
 2490 01a2 27D0     		beq	.L232
 847:Drivers/STM32F4xx_HAL_Driver/Src/stm32f4xx_hal_i2s_ex.c ****     {
 2491              		.loc 1 847 0 is_stmt 0 discriminator 1
 2492 01a4 2368     		ldr	r3, [r4]
 2493 01a6 5A68     		ldr	r2, [r3, #4]
 2494 01a8 12F0200F 		tst	r2, #32
 2495 01ac 22D0     		beq	.L232
 850:Drivers/STM32F4xx_HAL_Driver/Src/stm32f4xx_hal_i2s_ex.c **** 
 2496              		.loc 1 850 0 is_stmt 1
 2497 01ae 5A68     		ldr	r2, [r3, #4]
 2498 01b0 22F06002 		bic	r2, r2, #96
 2499 01b4 1204     		lsls	r2, r2, #16
 2500 01b6 120C     		lsrs	r2, r2, #16
 2501 01b8 5A60     		str	r2, [r3, #4]
 853:Drivers/STM32F4xx_HAL_Driver/Src/stm32f4xx_hal_i2s_ex.c **** 
 2502              		.loc 1 853 0
 2503 01ba 2368     		ldr	r3, [r4]
 2504 01bc 284A     		ldr	r2, .L252
 2505 01be 9342     		cmp	r3, r2
 2506 01c0 01D1     		bne	.L246
 2507 01c2 2849     		ldr	r1, .L252+4
 2508 01c4 01E0     		b	.L233
 2509              	.L246:
 2510 01c6 4FF04021 		mov	r1, #1073758208
 2511              	.L233:
 853:Drivers/STM32F4xx_HAL_Driver/Src/stm32f4xx_hal_i2s_ex.c **** 
 2512              		.loc 1 853 0 is_stmt 0 discriminator 4
 2513 01ca 254A     		ldr	r2, .L252
 2514 01cc 9342     		cmp	r3, r2
 2515 01ce 01D1     		bne	.L247
 853:Drivers/STM32F4xx_HAL_Driver/Src/stm32f4xx_hal_i2s_ex.c **** 
 2516              		.loc 1 853 0
 2517 01d0 244B     		ldr	r3, .L252+4
 2518 01d2 01E0     		b	.L234
 2519              	.L247:
 2520 01d4 4FF04023 		mov	r3, #1073758208
 2521              	.L234:
 853:Drivers/STM32F4xx_HAL_Driver/Src/stm32f4xx_hal_i2s_ex.c **** 
 2522              		.loc 1 853 0 discriminator 8
 2523 01d8 5B68     		ldr	r3, [r3, #4]
 2524 01da 23F0A003 		bic	r3, r3, #160
 2525 01de 4B60     		str	r3, [r1, #4]
 856:Drivers/STM32F4xx_HAL_Driver/Src/stm32f4xx_hal_i2s_ex.c **** 
 2526              		.loc 1 856 0 is_stmt 1 discriminator 8
 2527 01e0 0123     		movs	r3, #1
 2528 01e2 84F84130 		strb	r3, [r4, #65]
 859:Drivers/STM32F4xx_HAL_Driver/Src/stm32f4xx_hal_i2s_ex.c ****       HAL_I2S_ErrorCallback(hi2s);
 2529              		.loc 1 859 0 discriminator 8
 2530 01e6 636C     		ldr	r3, [r4, #68]
 2531 01e8 43F00203 		orr	r3, r3, #2
 2532 01ec 6364     		str	r3, [r4, #68]
 860:Drivers/STM32F4xx_HAL_Driver/Src/stm32f4xx_hal_i2s_ex.c ****     }
 2533              		.loc 1 860 0 discriminator 8
 2534 01ee 2046     		mov	r0, r4
 2535 01f0 FFF7FEFF 		bl	HAL_I2S_ErrorCallback
 2536              	.LVL159:
ARM GAS  /tmp/ccPpxa3p.s 			page 73


 2537              	.L232:
 864:Drivers/STM32F4xx_HAL_Driver/Src/stm32f4xx_hal_i2s_ex.c ****     {
 2538              		.loc 1 864 0
 2539 01f4 029B     		ldr	r3, [sp, #8]
 2540 01f6 13F0080F 		tst	r3, #8
 2541 01fa 2FD0     		beq	.L215
 864:Drivers/STM32F4xx_HAL_Driver/Src/stm32f4xx_hal_i2s_ex.c ****     {
 2542              		.loc 1 864 0 is_stmt 0 discriminator 1
 2543 01fc 2368     		ldr	r3, [r4]
 2544 01fe 184A     		ldr	r2, .L252
 2545 0200 9342     		cmp	r3, r2
 2546 0202 02D1     		bne	.L248
 864:Drivers/STM32F4xx_HAL_Driver/Src/stm32f4xx_hal_i2s_ex.c ****     {
 2547              		.loc 1 864 0
 2548 0204 A2F58062 		sub	r2, r2, #1024
 2549 0208 01E0     		b	.L235
 2550              	.L248:
 2551 020a 4FF04022 		mov	r2, #1073758208
 2552              	.L235:
 864:Drivers/STM32F4xx_HAL_Driver/Src/stm32f4xx_hal_i2s_ex.c ****     {
 2553              		.loc 1 864 0 discriminator 5
 2554 020e 5268     		ldr	r2, [r2, #4]
 2555 0210 12F0200F 		tst	r2, #32
 2556 0214 22D0     		beq	.L215
 867:Drivers/STM32F4xx_HAL_Driver/Src/stm32f4xx_hal_i2s_ex.c **** 
 2557              		.loc 1 867 0 is_stmt 1
 2558 0216 124A     		ldr	r2, .L252
 2559 0218 9342     		cmp	r3, r2
 2560 021a 01D1     		bne	.L249
 2561 021c 1149     		ldr	r1, .L252+4
 2562 021e 01E0     		b	.L236
 2563              	.L249:
 2564 0220 4FF04021 		mov	r1, #1073758208
 2565              	.L236:
 867:Drivers/STM32F4xx_HAL_Driver/Src/stm32f4xx_hal_i2s_ex.c **** 
 2566              		.loc 1 867 0 is_stmt 0 discriminator 4
 2567 0224 0E4A     		ldr	r2, .L252
 2568 0226 9342     		cmp	r3, r2
 2569 0228 01D1     		bne	.L250
 867:Drivers/STM32F4xx_HAL_Driver/Src/stm32f4xx_hal_i2s_ex.c **** 
 2570              		.loc 1 867 0
 2571 022a 0E4B     		ldr	r3, .L252+4
 2572 022c 01E0     		b	.L237
 2573              	.L250:
 2574 022e 4FF04023 		mov	r3, #1073758208
 2575              	.L237:
 867:Drivers/STM32F4xx_HAL_Driver/Src/stm32f4xx_hal_i2s_ex.c **** 
 2576              		.loc 1 867 0 discriminator 8
 2577 0232 5B68     		ldr	r3, [r3, #4]
 2578 0234 23F0A003 		bic	r3, r3, #160
 2579 0238 4B60     		str	r3, [r1, #4]
 870:Drivers/STM32F4xx_HAL_Driver/Src/stm32f4xx_hal_i2s_ex.c **** 
 2580              		.loc 1 870 0 is_stmt 1 discriminator 8
 2581 023a 2268     		ldr	r2, [r4]
 2582 023c 5368     		ldr	r3, [r2, #4]
 2583 023e 23F06003 		bic	r3, r3, #96
 2584 0242 1B04     		lsls	r3, r3, #16
ARM GAS  /tmp/ccPpxa3p.s 			page 74


 2585 0244 1B0C     		lsrs	r3, r3, #16
 2586 0246 5360     		str	r3, [r2, #4]
 873:Drivers/STM32F4xx_HAL_Driver/Src/stm32f4xx_hal_i2s_ex.c **** 
 2587              		.loc 1 873 0 discriminator 8
 2588 0248 0123     		movs	r3, #1
 2589 024a 84F84130 		strb	r3, [r4, #65]
 876:Drivers/STM32F4xx_HAL_Driver/Src/stm32f4xx_hal_i2s_ex.c ****       HAL_I2S_ErrorCallback(hi2s);
 2590              		.loc 1 876 0 discriminator 8
 2591 024e 636C     		ldr	r3, [r4, #68]
 2592 0250 43F00403 		orr	r3, r3, #4
 2593 0254 6364     		str	r3, [r4, #68]
 877:Drivers/STM32F4xx_HAL_Driver/Src/stm32f4xx_hal_i2s_ex.c ****     }
 2594              		.loc 1 877 0 discriminator 8
 2595 0256 2046     		mov	r0, r4
 2596 0258 FFF7FEFF 		bl	HAL_I2S_ErrorCallback
 2597              	.LVL160:
 2598              	.L215:
 880:Drivers/STM32F4xx_HAL_Driver/Src/stm32f4xx_hal_i2s_ex.c **** 
 2599              		.loc 1 880 0
 2600 025c 04B0     		add	sp, sp, #16
 2601              	.LCFI19:
 2602              		.cfi_def_cfa_offset 8
 2603              		@ sp needed
 2604 025e 10BD     		pop	{r4, pc}
 2605              	.LVL161:
 2606              	.L253:
 2607              		.align	2
 2608              	.L252:
 2609 0260 00380040 		.word	1073756160
 2610 0264 00340040 		.word	1073755136
 2611              		.cfi_endproc
 2612              	.LFE126:
 2614              		.text
 2615              	.Letext0:
 2616              		.file 2 "/usr/include/newlib/machine/_default_types.h"
 2617              		.file 3 "/usr/include/newlib/sys/_stdint.h"
 2618              		.file 4 "Drivers/CMSIS/Device/ST/STM32F4xx/Include/stm32f401xc.h"
 2619              		.file 5 "Drivers/CMSIS/Device/ST/STM32F4xx/Include/stm32f4xx.h"
 2620              		.file 6 "Drivers/STM32F4xx_HAL_Driver/Inc/stm32f4xx_hal_def.h"
 2621              		.file 7 "Drivers/STM32F4xx_HAL_Driver/Inc/stm32f4xx_hal_dma.h"
 2622              		.file 8 "Drivers/STM32F4xx_HAL_Driver/Inc/stm32f4xx_hal_i2s.h"
 2623              		.file 9 "Drivers/CMSIS/Include/core_cm4.h"
 2624              		.file 10 "Drivers/STM32F4xx_HAL_Driver/Inc/stm32f4xx_hal.h"
ARM GAS  /tmp/ccPpxa3p.s 			page 75


DEFINED SYMBOLS
                            *ABS*:0000000000000000 stm32f4xx_hal_i2s_ex.c
     /tmp/ccPpxa3p.s:21     .text.I2SEx_TxRxDMAError:0000000000000000 $t
     /tmp/ccPpxa3p.s:25     .text.I2SEx_TxRxDMAError:0000000000000000 I2SEx_TxRxDMAError
     /tmp/ccPpxa3p.s:89     .text.I2SEx_TxRxDMAError:0000000000000050 $d
     /tmp/ccPpxa3p.s:95     .text.I2SEx_FullDuplexWaitFlagStateUntilTimeout:0000000000000000 $t
     /tmp/ccPpxa3p.s:99     .text.I2SEx_FullDuplexWaitFlagStateUntilTimeout:0000000000000000 I2SEx_FullDuplexWaitFlagStateUntilTimeout
     /tmp/ccPpxa3p.s:227    .text.I2SEx_FullDuplexWaitFlagStateUntilTimeout:00000000000000ac $d
     /tmp/ccPpxa3p.s:232    .text.HAL_I2SEx_TransmitReceive:0000000000000000 $t
     /tmp/ccPpxa3p.s:237    .text.HAL_I2SEx_TransmitReceive:0000000000000000 HAL_I2SEx_TransmitReceive
     /tmp/ccPpxa3p.s:764    .text.HAL_I2SEx_TransmitReceive:0000000000000318 $d
     /tmp/ccPpxa3p.s:767    .text.HAL_I2SEx_TransmitReceive:0000000000000320 $t
     /tmp/ccPpxa3p.s:920    .text.HAL_I2SEx_TransmitReceive_DMA:0000000000000000 $t
     /tmp/ccPpxa3p.s:925    .text.HAL_I2SEx_TransmitReceive_DMA:0000000000000000 HAL_I2SEx_TransmitReceive_DMA
     /tmp/ccPpxa3p.s:1313   .text.HAL_I2SEx_TransmitReceive_DMA:0000000000000208 $d
     /tmp/ccPpxa3p.s:1344   .text.I2SEx_TxRxDMAHalfCplt:0000000000000000 I2SEx_TxRxDMAHalfCplt
     /tmp/ccPpxa3p.s:1814   .text.I2SEx_TxRxDMACplt:0000000000000000 I2SEx_TxRxDMACplt
     /tmp/ccPpxa3p.s:1322   .text.HAL_I2SEx_TxRxHalfCpltCallback:0000000000000000 $t
     /tmp/ccPpxa3p.s:1327   .text.HAL_I2SEx_TxRxHalfCpltCallback:0000000000000000 HAL_I2SEx_TxRxHalfCpltCallback
     /tmp/ccPpxa3p.s:1340   .text.I2SEx_TxRxDMAHalfCplt:0000000000000000 $t
     /tmp/ccPpxa3p.s:1368   .text.HAL_I2SEx_TxRxCpltCallback:0000000000000000 $t
     /tmp/ccPpxa3p.s:1373   .text.HAL_I2SEx_TxRxCpltCallback:0000000000000000 HAL_I2SEx_TxRxCpltCallback
     /tmp/ccPpxa3p.s:1386   .text.HAL_I2SEx_TransmitReceive_IT:0000000000000000 $t
     /tmp/ccPpxa3p.s:1391   .text.HAL_I2SEx_TransmitReceive_IT:0000000000000000 HAL_I2SEx_TransmitReceive_IT
     /tmp/ccPpxa3p.s:1804   .text.HAL_I2SEx_TransmitReceive_IT:0000000000000264 $d
     /tmp/ccPpxa3p.s:1810   .text.I2SEx_TxRxDMACplt:0000000000000000 $t
     /tmp/ccPpxa3p.s:1965   .text.I2SEx_TxRxDMACplt:00000000000000d4 $d
     /tmp/ccPpxa3p.s:1971   .text.I2SEx_FullDuplexTx_IT:0000000000000000 $t
     /tmp/ccPpxa3p.s:1975   .text.I2SEx_FullDuplexTx_IT:0000000000000000 I2SEx_FullDuplexTx_IT
     /tmp/ccPpxa3p.s:2093   .text.I2SEx_FullDuplexTx_IT:00000000000000a4 $d
     /tmp/ccPpxa3p.s:2099   .text.I2SEx_FullDuplexRx_IT:0000000000000000 $t
     /tmp/ccPpxa3p.s:2103   .text.I2SEx_FullDuplexRx_IT:0000000000000000 I2SEx_FullDuplexRx_IT
     /tmp/ccPpxa3p.s:2220   .text.I2SEx_FullDuplexRx_IT:00000000000000a4 $d
     /tmp/ccPpxa3p.s:2226   .text.HAL_I2SEx_FullDuplex_IRQHandler:0000000000000000 $t
     /tmp/ccPpxa3p.s:2231   .text.HAL_I2SEx_FullDuplex_IRQHandler:0000000000000000 HAL_I2SEx_FullDuplex_IRQHandler
     /tmp/ccPpxa3p.s:2609   .text.HAL_I2SEx_FullDuplex_IRQHandler:0000000000000260 $d
                     .debug_frame:0000000000000010 $d

UNDEFINED SYMBOLS
HAL_I2S_ErrorCallback
HAL_GetTick
HAL_DMA_Start_IT
