ARM GAS  /tmp/cchT2erI.s 			page 1


   1              		.syntax unified
   2              		.cpu cortex-m4
   3              		.eabi_attribute 27, 1
   4              		.eabi_attribute 28, 1
   5              		.fpu fpv4-sp-d16
   6              		.eabi_attribute 20, 1
   7              		.eabi_attribute 21, 1
   8              		.eabi_attribute 23, 3
   9              		.eabi_attribute 24, 1
  10              		.eabi_attribute 25, 1
  11              		.eabi_attribute 26, 1
  12              		.eabi_attribute 30, 1
  13              		.eabi_attribute 34, 1
  14              		.eabi_attribute 18, 4
  15              		.thumb
  16              		.file	"usbh_ctlreq.c"
  17              		.text
  18              	.Ltext0:
  19              		.cfi_sections	.debug_frame
  20              		.section	.text.USBH_ParseDevDesc,"ax",%progbits
  21              		.align	2
  22              		.thumb
  23              		.thumb_func
  25              	USBH_ParseDevDesc:
  26              	.LFB131:
  27              		.file 1 "Middlewares/ST/STM32_USB_Host_Library/Core/Src/usbh_ctlreq.c"
   1:Middlewares/ST/STM32_USB_Host_Library/Core/Src/usbh_ctlreq.c **** /**
   2:Middlewares/ST/STM32_USB_Host_Library/Core/Src/usbh_ctlreq.c ****   ******************************************************************************
   3:Middlewares/ST/STM32_USB_Host_Library/Core/Src/usbh_ctlreq.c ****   * @file    usbh_ctlreq.c 
   4:Middlewares/ST/STM32_USB_Host_Library/Core/Src/usbh_ctlreq.c ****   * @author  MCD Application Team
   5:Middlewares/ST/STM32_USB_Host_Library/Core/Src/usbh_ctlreq.c ****   * @version V3.2.2
   6:Middlewares/ST/STM32_USB_Host_Library/Core/Src/usbh_ctlreq.c ****   * @date    07-July-2015
   7:Middlewares/ST/STM32_USB_Host_Library/Core/Src/usbh_ctlreq.c ****   * @brief   This file implements the control requests for device enumeration
   8:Middlewares/ST/STM32_USB_Host_Library/Core/Src/usbh_ctlreq.c ****   ******************************************************************************
   9:Middlewares/ST/STM32_USB_Host_Library/Core/Src/usbh_ctlreq.c ****   * @attention
  10:Middlewares/ST/STM32_USB_Host_Library/Core/Src/usbh_ctlreq.c ****   *
  11:Middlewares/ST/STM32_USB_Host_Library/Core/Src/usbh_ctlreq.c ****   * <h2><center>&copy; COPYRIGHT 2015 STMicroelectronics</center></h2>
  12:Middlewares/ST/STM32_USB_Host_Library/Core/Src/usbh_ctlreq.c ****   *
  13:Middlewares/ST/STM32_USB_Host_Library/Core/Src/usbh_ctlreq.c ****   * Licensed under MCD-ST Liberty SW License Agreement V2, (the "License");
  14:Middlewares/ST/STM32_USB_Host_Library/Core/Src/usbh_ctlreq.c ****   * You may not use this file except in compliance with the License.
  15:Middlewares/ST/STM32_USB_Host_Library/Core/Src/usbh_ctlreq.c ****   * You may obtain a copy of the License at:
  16:Middlewares/ST/STM32_USB_Host_Library/Core/Src/usbh_ctlreq.c ****   *
  17:Middlewares/ST/STM32_USB_Host_Library/Core/Src/usbh_ctlreq.c ****   *        http://www.st.com/software_license_agreement_liberty_v2
  18:Middlewares/ST/STM32_USB_Host_Library/Core/Src/usbh_ctlreq.c ****   *
  19:Middlewares/ST/STM32_USB_Host_Library/Core/Src/usbh_ctlreq.c ****   * Unless required by applicable law or agreed to in writing, software 
  20:Middlewares/ST/STM32_USB_Host_Library/Core/Src/usbh_ctlreq.c ****   * distributed under the License is distributed on an "AS IS" BASIS, 
  21:Middlewares/ST/STM32_USB_Host_Library/Core/Src/usbh_ctlreq.c ****   * WITHOUT WARRANTIES OR CONDITIONS OF ANY KIND, either express or implied.
  22:Middlewares/ST/STM32_USB_Host_Library/Core/Src/usbh_ctlreq.c ****   * See the License for the specific language governing permissions and
  23:Middlewares/ST/STM32_USB_Host_Library/Core/Src/usbh_ctlreq.c ****   * limitations under the License.
  24:Middlewares/ST/STM32_USB_Host_Library/Core/Src/usbh_ctlreq.c ****   *
  25:Middlewares/ST/STM32_USB_Host_Library/Core/Src/usbh_ctlreq.c ****   ******************************************************************************
  26:Middlewares/ST/STM32_USB_Host_Library/Core/Src/usbh_ctlreq.c ****   */ 
  27:Middlewares/ST/STM32_USB_Host_Library/Core/Src/usbh_ctlreq.c **** /* Includes ------------------------------------------------------------------*/
  28:Middlewares/ST/STM32_USB_Host_Library/Core/Src/usbh_ctlreq.c **** 
  29:Middlewares/ST/STM32_USB_Host_Library/Core/Src/usbh_ctlreq.c **** #include "usbh_ctlreq.h"
  30:Middlewares/ST/STM32_USB_Host_Library/Core/Src/usbh_ctlreq.c **** 
  31:Middlewares/ST/STM32_USB_Host_Library/Core/Src/usbh_ctlreq.c **** /** @addtogroup USBH_LIB
ARM GAS  /tmp/cchT2erI.s 			page 2


  32:Middlewares/ST/STM32_USB_Host_Library/Core/Src/usbh_ctlreq.c **** * @{
  33:Middlewares/ST/STM32_USB_Host_Library/Core/Src/usbh_ctlreq.c **** */
  34:Middlewares/ST/STM32_USB_Host_Library/Core/Src/usbh_ctlreq.c **** 
  35:Middlewares/ST/STM32_USB_Host_Library/Core/Src/usbh_ctlreq.c **** /** @addtogroup USBH_LIB_CORE
  36:Middlewares/ST/STM32_USB_Host_Library/Core/Src/usbh_ctlreq.c **** * @{
  37:Middlewares/ST/STM32_USB_Host_Library/Core/Src/usbh_ctlreq.c **** */
  38:Middlewares/ST/STM32_USB_Host_Library/Core/Src/usbh_ctlreq.c **** 
  39:Middlewares/ST/STM32_USB_Host_Library/Core/Src/usbh_ctlreq.c **** /** @defgroup USBH_CTLREQ 
  40:Middlewares/ST/STM32_USB_Host_Library/Core/Src/usbh_ctlreq.c **** * @brief This file implements the standard requests for device enumeration
  41:Middlewares/ST/STM32_USB_Host_Library/Core/Src/usbh_ctlreq.c **** * @{
  42:Middlewares/ST/STM32_USB_Host_Library/Core/Src/usbh_ctlreq.c **** */
  43:Middlewares/ST/STM32_USB_Host_Library/Core/Src/usbh_ctlreq.c **** 
  44:Middlewares/ST/STM32_USB_Host_Library/Core/Src/usbh_ctlreq.c **** 
  45:Middlewares/ST/STM32_USB_Host_Library/Core/Src/usbh_ctlreq.c **** /** @defgroup USBH_CTLREQ_Private_Defines
  46:Middlewares/ST/STM32_USB_Host_Library/Core/Src/usbh_ctlreq.c **** * @{
  47:Middlewares/ST/STM32_USB_Host_Library/Core/Src/usbh_ctlreq.c **** */ 
  48:Middlewares/ST/STM32_USB_Host_Library/Core/Src/usbh_ctlreq.c **** /**
  49:Middlewares/ST/STM32_USB_Host_Library/Core/Src/usbh_ctlreq.c **** * @}
  50:Middlewares/ST/STM32_USB_Host_Library/Core/Src/usbh_ctlreq.c **** */ 
  51:Middlewares/ST/STM32_USB_Host_Library/Core/Src/usbh_ctlreq.c **** 
  52:Middlewares/ST/STM32_USB_Host_Library/Core/Src/usbh_ctlreq.c **** 
  53:Middlewares/ST/STM32_USB_Host_Library/Core/Src/usbh_ctlreq.c **** /** @defgroup USBH_CTLREQ_Private_TypesDefinitions
  54:Middlewares/ST/STM32_USB_Host_Library/Core/Src/usbh_ctlreq.c **** * @{
  55:Middlewares/ST/STM32_USB_Host_Library/Core/Src/usbh_ctlreq.c **** */ 
  56:Middlewares/ST/STM32_USB_Host_Library/Core/Src/usbh_ctlreq.c **** /**
  57:Middlewares/ST/STM32_USB_Host_Library/Core/Src/usbh_ctlreq.c **** * @}
  58:Middlewares/ST/STM32_USB_Host_Library/Core/Src/usbh_ctlreq.c **** */ 
  59:Middlewares/ST/STM32_USB_Host_Library/Core/Src/usbh_ctlreq.c **** 
  60:Middlewares/ST/STM32_USB_Host_Library/Core/Src/usbh_ctlreq.c **** 
  61:Middlewares/ST/STM32_USB_Host_Library/Core/Src/usbh_ctlreq.c **** 
  62:Middlewares/ST/STM32_USB_Host_Library/Core/Src/usbh_ctlreq.c **** /** @defgroup USBH_CTLREQ_Private_Macros
  63:Middlewares/ST/STM32_USB_Host_Library/Core/Src/usbh_ctlreq.c **** * @{
  64:Middlewares/ST/STM32_USB_Host_Library/Core/Src/usbh_ctlreq.c **** */ 
  65:Middlewares/ST/STM32_USB_Host_Library/Core/Src/usbh_ctlreq.c **** /**
  66:Middlewares/ST/STM32_USB_Host_Library/Core/Src/usbh_ctlreq.c **** * @}
  67:Middlewares/ST/STM32_USB_Host_Library/Core/Src/usbh_ctlreq.c **** */ 
  68:Middlewares/ST/STM32_USB_Host_Library/Core/Src/usbh_ctlreq.c **** 
  69:Middlewares/ST/STM32_USB_Host_Library/Core/Src/usbh_ctlreq.c **** 
  70:Middlewares/ST/STM32_USB_Host_Library/Core/Src/usbh_ctlreq.c **** /** @defgroup USBH_CTLREQ_Private_Variables
  71:Middlewares/ST/STM32_USB_Host_Library/Core/Src/usbh_ctlreq.c **** * @{
  72:Middlewares/ST/STM32_USB_Host_Library/Core/Src/usbh_ctlreq.c **** */
  73:Middlewares/ST/STM32_USB_Host_Library/Core/Src/usbh_ctlreq.c **** /**
  74:Middlewares/ST/STM32_USB_Host_Library/Core/Src/usbh_ctlreq.c **** * @}
  75:Middlewares/ST/STM32_USB_Host_Library/Core/Src/usbh_ctlreq.c **** */ 
  76:Middlewares/ST/STM32_USB_Host_Library/Core/Src/usbh_ctlreq.c **** 
  77:Middlewares/ST/STM32_USB_Host_Library/Core/Src/usbh_ctlreq.c **** /** @defgroup USBH_CTLREQ_Private_FunctionPrototypes
  78:Middlewares/ST/STM32_USB_Host_Library/Core/Src/usbh_ctlreq.c **** * @{
  79:Middlewares/ST/STM32_USB_Host_Library/Core/Src/usbh_ctlreq.c **** */
  80:Middlewares/ST/STM32_USB_Host_Library/Core/Src/usbh_ctlreq.c **** static USBH_StatusTypeDef USBH_HandleControl (USBH_HandleTypeDef *phost);
  81:Middlewares/ST/STM32_USB_Host_Library/Core/Src/usbh_ctlreq.c **** 
  82:Middlewares/ST/STM32_USB_Host_Library/Core/Src/usbh_ctlreq.c **** static void USBH_ParseDevDesc (USBH_DevDescTypeDef* , uint8_t *buf, uint16_t length);
  83:Middlewares/ST/STM32_USB_Host_Library/Core/Src/usbh_ctlreq.c **** 
  84:Middlewares/ST/STM32_USB_Host_Library/Core/Src/usbh_ctlreq.c **** static void USBH_ParseCfgDesc (USBH_CfgDescTypeDef* cfg_desc,
  85:Middlewares/ST/STM32_USB_Host_Library/Core/Src/usbh_ctlreq.c ****                                uint8_t *buf, 
  86:Middlewares/ST/STM32_USB_Host_Library/Core/Src/usbh_ctlreq.c ****                                uint16_t length);
  87:Middlewares/ST/STM32_USB_Host_Library/Core/Src/usbh_ctlreq.c **** 
  88:Middlewares/ST/STM32_USB_Host_Library/Core/Src/usbh_ctlreq.c **** 
ARM GAS  /tmp/cchT2erI.s 			page 3


  89:Middlewares/ST/STM32_USB_Host_Library/Core/Src/usbh_ctlreq.c **** static void USBH_ParseEPDesc (USBH_EpDescTypeDef  *ep_descriptor, uint8_t *buf);
  90:Middlewares/ST/STM32_USB_Host_Library/Core/Src/usbh_ctlreq.c **** static void USBH_ParseStringDesc (uint8_t* psrc, uint8_t* pdest, uint16_t length);
  91:Middlewares/ST/STM32_USB_Host_Library/Core/Src/usbh_ctlreq.c **** static void USBH_ParseInterfaceDesc (USBH_InterfaceDescTypeDef  *if_descriptor, uint8_t *buf);
  92:Middlewares/ST/STM32_USB_Host_Library/Core/Src/usbh_ctlreq.c **** 
  93:Middlewares/ST/STM32_USB_Host_Library/Core/Src/usbh_ctlreq.c **** 
  94:Middlewares/ST/STM32_USB_Host_Library/Core/Src/usbh_ctlreq.c **** /**
  95:Middlewares/ST/STM32_USB_Host_Library/Core/Src/usbh_ctlreq.c **** * @}
  96:Middlewares/ST/STM32_USB_Host_Library/Core/Src/usbh_ctlreq.c **** */ 
  97:Middlewares/ST/STM32_USB_Host_Library/Core/Src/usbh_ctlreq.c **** 
  98:Middlewares/ST/STM32_USB_Host_Library/Core/Src/usbh_ctlreq.c **** 
  99:Middlewares/ST/STM32_USB_Host_Library/Core/Src/usbh_ctlreq.c **** /** @defgroup USBH_CTLREQ_Private_Functions
 100:Middlewares/ST/STM32_USB_Host_Library/Core/Src/usbh_ctlreq.c **** * @{
 101:Middlewares/ST/STM32_USB_Host_Library/Core/Src/usbh_ctlreq.c **** */ 
 102:Middlewares/ST/STM32_USB_Host_Library/Core/Src/usbh_ctlreq.c **** 
 103:Middlewares/ST/STM32_USB_Host_Library/Core/Src/usbh_ctlreq.c **** 
 104:Middlewares/ST/STM32_USB_Host_Library/Core/Src/usbh_ctlreq.c **** /**
 105:Middlewares/ST/STM32_USB_Host_Library/Core/Src/usbh_ctlreq.c ****   * @brief  USBH_Get_DevDesc
 106:Middlewares/ST/STM32_USB_Host_Library/Core/Src/usbh_ctlreq.c ****   *         Issue Get Device Descriptor command to the device. Once the response 
 107:Middlewares/ST/STM32_USB_Host_Library/Core/Src/usbh_ctlreq.c ****   *         received, it parses the device descriptor and updates the status.
 108:Middlewares/ST/STM32_USB_Host_Library/Core/Src/usbh_ctlreq.c ****   * @param  phost: Host Handle
 109:Middlewares/ST/STM32_USB_Host_Library/Core/Src/usbh_ctlreq.c ****   * @param  length: Length of the descriptor
 110:Middlewares/ST/STM32_USB_Host_Library/Core/Src/usbh_ctlreq.c ****   * @retval USBH Status
 111:Middlewares/ST/STM32_USB_Host_Library/Core/Src/usbh_ctlreq.c ****   */
 112:Middlewares/ST/STM32_USB_Host_Library/Core/Src/usbh_ctlreq.c **** USBH_StatusTypeDef USBH_Get_DevDesc(USBH_HandleTypeDef *phost, uint8_t length)
 113:Middlewares/ST/STM32_USB_Host_Library/Core/Src/usbh_ctlreq.c **** {
 114:Middlewares/ST/STM32_USB_Host_Library/Core/Src/usbh_ctlreq.c ****   USBH_StatusTypeDef status;
 115:Middlewares/ST/STM32_USB_Host_Library/Core/Src/usbh_ctlreq.c ****   
 116:Middlewares/ST/STM32_USB_Host_Library/Core/Src/usbh_ctlreq.c ****   if((status = USBH_GetDescriptor(phost,
 117:Middlewares/ST/STM32_USB_Host_Library/Core/Src/usbh_ctlreq.c ****                                   USB_REQ_RECIPIENT_DEVICE | USB_REQ_TYPE_STANDARD,                
 118:Middlewares/ST/STM32_USB_Host_Library/Core/Src/usbh_ctlreq.c ****                                   USB_DESC_DEVICE, 
 119:Middlewares/ST/STM32_USB_Host_Library/Core/Src/usbh_ctlreq.c ****                                   phost->device.Data,
 120:Middlewares/ST/STM32_USB_Host_Library/Core/Src/usbh_ctlreq.c ****                                   length)) == USBH_OK)
 121:Middlewares/ST/STM32_USB_Host_Library/Core/Src/usbh_ctlreq.c ****   {
 122:Middlewares/ST/STM32_USB_Host_Library/Core/Src/usbh_ctlreq.c ****     /* Commands successfully sent and Response Received */       
 123:Middlewares/ST/STM32_USB_Host_Library/Core/Src/usbh_ctlreq.c ****     USBH_ParseDevDesc(&phost->device.DevDesc, phost->device.Data, length);
 124:Middlewares/ST/STM32_USB_Host_Library/Core/Src/usbh_ctlreq.c ****   }
 125:Middlewares/ST/STM32_USB_Host_Library/Core/Src/usbh_ctlreq.c ****   return status;      
 126:Middlewares/ST/STM32_USB_Host_Library/Core/Src/usbh_ctlreq.c **** }
 127:Middlewares/ST/STM32_USB_Host_Library/Core/Src/usbh_ctlreq.c **** 
 128:Middlewares/ST/STM32_USB_Host_Library/Core/Src/usbh_ctlreq.c **** /**
 129:Middlewares/ST/STM32_USB_Host_Library/Core/Src/usbh_ctlreq.c ****   * @brief  USBH_Get_CfgDesc
 130:Middlewares/ST/STM32_USB_Host_Library/Core/Src/usbh_ctlreq.c ****   *         Issues Configuration Descriptor to the device. Once the response 
 131:Middlewares/ST/STM32_USB_Host_Library/Core/Src/usbh_ctlreq.c ****   *         received, it parses the configuration descriptor and updates the 
 132:Middlewares/ST/STM32_USB_Host_Library/Core/Src/usbh_ctlreq.c ****   *         status.
 133:Middlewares/ST/STM32_USB_Host_Library/Core/Src/usbh_ctlreq.c ****   * @param  phost: Host Handle
 134:Middlewares/ST/STM32_USB_Host_Library/Core/Src/usbh_ctlreq.c ****   * @param  length: Length of the descriptor
 135:Middlewares/ST/STM32_USB_Host_Library/Core/Src/usbh_ctlreq.c ****   * @retval USBH Status
 136:Middlewares/ST/STM32_USB_Host_Library/Core/Src/usbh_ctlreq.c ****   */
 137:Middlewares/ST/STM32_USB_Host_Library/Core/Src/usbh_ctlreq.c **** USBH_StatusTypeDef USBH_Get_CfgDesc(USBH_HandleTypeDef *phost,                      
 138:Middlewares/ST/STM32_USB_Host_Library/Core/Src/usbh_ctlreq.c ****                              uint16_t length)
 139:Middlewares/ST/STM32_USB_Host_Library/Core/Src/usbh_ctlreq.c **** 
 140:Middlewares/ST/STM32_USB_Host_Library/Core/Src/usbh_ctlreq.c **** {
 141:Middlewares/ST/STM32_USB_Host_Library/Core/Src/usbh_ctlreq.c ****   USBH_StatusTypeDef status;
 142:Middlewares/ST/STM32_USB_Host_Library/Core/Src/usbh_ctlreq.c ****   uint8_t *pData;
 143:Middlewares/ST/STM32_USB_Host_Library/Core/Src/usbh_ctlreq.c **** #if (USBH_KEEP_CFG_DESCRIPTOR == 1)  
 144:Middlewares/ST/STM32_USB_Host_Library/Core/Src/usbh_ctlreq.c ****   pData = phost->device.CfgDesc_Raw;
 145:Middlewares/ST/STM32_USB_Host_Library/Core/Src/usbh_ctlreq.c **** #else
ARM GAS  /tmp/cchT2erI.s 			page 4


 146:Middlewares/ST/STM32_USB_Host_Library/Core/Src/usbh_ctlreq.c ****   pData = phost->device.Data;
 147:Middlewares/ST/STM32_USB_Host_Library/Core/Src/usbh_ctlreq.c **** #endif  
 148:Middlewares/ST/STM32_USB_Host_Library/Core/Src/usbh_ctlreq.c ****   if((status = USBH_GetDescriptor(phost,
 149:Middlewares/ST/STM32_USB_Host_Library/Core/Src/usbh_ctlreq.c ****                                   USB_REQ_RECIPIENT_DEVICE | USB_REQ_TYPE_STANDARD,                
 150:Middlewares/ST/STM32_USB_Host_Library/Core/Src/usbh_ctlreq.c ****                                   USB_DESC_CONFIGURATION, 
 151:Middlewares/ST/STM32_USB_Host_Library/Core/Src/usbh_ctlreq.c ****                                   pData,
 152:Middlewares/ST/STM32_USB_Host_Library/Core/Src/usbh_ctlreq.c ****                                   length)) == USBH_OK)
 153:Middlewares/ST/STM32_USB_Host_Library/Core/Src/usbh_ctlreq.c ****   {
 154:Middlewares/ST/STM32_USB_Host_Library/Core/Src/usbh_ctlreq.c ****     
 155:Middlewares/ST/STM32_USB_Host_Library/Core/Src/usbh_ctlreq.c ****     /* Commands successfully sent and Response Received  */       
 156:Middlewares/ST/STM32_USB_Host_Library/Core/Src/usbh_ctlreq.c ****     USBH_ParseCfgDesc (&phost->device.CfgDesc,
 157:Middlewares/ST/STM32_USB_Host_Library/Core/Src/usbh_ctlreq.c ****                        pData,
 158:Middlewares/ST/STM32_USB_Host_Library/Core/Src/usbh_ctlreq.c ****                        length); 
 159:Middlewares/ST/STM32_USB_Host_Library/Core/Src/usbh_ctlreq.c ****     
 160:Middlewares/ST/STM32_USB_Host_Library/Core/Src/usbh_ctlreq.c ****   }
 161:Middlewares/ST/STM32_USB_Host_Library/Core/Src/usbh_ctlreq.c ****   return status;
 162:Middlewares/ST/STM32_USB_Host_Library/Core/Src/usbh_ctlreq.c **** }
 163:Middlewares/ST/STM32_USB_Host_Library/Core/Src/usbh_ctlreq.c **** 
 164:Middlewares/ST/STM32_USB_Host_Library/Core/Src/usbh_ctlreq.c **** 
 165:Middlewares/ST/STM32_USB_Host_Library/Core/Src/usbh_ctlreq.c **** /**
 166:Middlewares/ST/STM32_USB_Host_Library/Core/Src/usbh_ctlreq.c ****   * @brief  USBH_Get_StringDesc
 167:Middlewares/ST/STM32_USB_Host_Library/Core/Src/usbh_ctlreq.c ****   *         Issues string Descriptor command to the device. Once the response 
 168:Middlewares/ST/STM32_USB_Host_Library/Core/Src/usbh_ctlreq.c ****   *         received, it parses the string descriptor and updates the status.
 169:Middlewares/ST/STM32_USB_Host_Library/Core/Src/usbh_ctlreq.c ****   * @param  phost: Host Handle
 170:Middlewares/ST/STM32_USB_Host_Library/Core/Src/usbh_ctlreq.c ****   * @param  string_index: String index for the descriptor
 171:Middlewares/ST/STM32_USB_Host_Library/Core/Src/usbh_ctlreq.c ****   * @param  buff: Buffer address for the descriptor
 172:Middlewares/ST/STM32_USB_Host_Library/Core/Src/usbh_ctlreq.c ****   * @param  length: Length of the descriptor
 173:Middlewares/ST/STM32_USB_Host_Library/Core/Src/usbh_ctlreq.c ****   * @retval USBH Status
 174:Middlewares/ST/STM32_USB_Host_Library/Core/Src/usbh_ctlreq.c ****   */
 175:Middlewares/ST/STM32_USB_Host_Library/Core/Src/usbh_ctlreq.c **** USBH_StatusTypeDef USBH_Get_StringDesc(USBH_HandleTypeDef *phost,
 176:Middlewares/ST/STM32_USB_Host_Library/Core/Src/usbh_ctlreq.c ****                                 uint8_t string_index, 
 177:Middlewares/ST/STM32_USB_Host_Library/Core/Src/usbh_ctlreq.c ****                                 uint8_t *buff, 
 178:Middlewares/ST/STM32_USB_Host_Library/Core/Src/usbh_ctlreq.c ****                                 uint16_t length)
 179:Middlewares/ST/STM32_USB_Host_Library/Core/Src/usbh_ctlreq.c **** {
 180:Middlewares/ST/STM32_USB_Host_Library/Core/Src/usbh_ctlreq.c ****   USBH_StatusTypeDef status;
 181:Middlewares/ST/STM32_USB_Host_Library/Core/Src/usbh_ctlreq.c ****   if((status = USBH_GetDescriptor(phost,
 182:Middlewares/ST/STM32_USB_Host_Library/Core/Src/usbh_ctlreq.c ****                                   USB_REQ_RECIPIENT_DEVICE | USB_REQ_TYPE_STANDARD,                
 183:Middlewares/ST/STM32_USB_Host_Library/Core/Src/usbh_ctlreq.c ****                                   USB_DESC_STRING | string_index, 
 184:Middlewares/ST/STM32_USB_Host_Library/Core/Src/usbh_ctlreq.c ****                                   phost->device.Data,
 185:Middlewares/ST/STM32_USB_Host_Library/Core/Src/usbh_ctlreq.c ****                                   length)) == USBH_OK)
 186:Middlewares/ST/STM32_USB_Host_Library/Core/Src/usbh_ctlreq.c ****   {
 187:Middlewares/ST/STM32_USB_Host_Library/Core/Src/usbh_ctlreq.c ****     /* Commands successfully sent and Response Received  */       
 188:Middlewares/ST/STM32_USB_Host_Library/Core/Src/usbh_ctlreq.c ****     USBH_ParseStringDesc(phost->device.Data,buff, length);    
 189:Middlewares/ST/STM32_USB_Host_Library/Core/Src/usbh_ctlreq.c ****   }
 190:Middlewares/ST/STM32_USB_Host_Library/Core/Src/usbh_ctlreq.c ****   return status;
 191:Middlewares/ST/STM32_USB_Host_Library/Core/Src/usbh_ctlreq.c **** }
 192:Middlewares/ST/STM32_USB_Host_Library/Core/Src/usbh_ctlreq.c **** 
 193:Middlewares/ST/STM32_USB_Host_Library/Core/Src/usbh_ctlreq.c **** /**
 194:Middlewares/ST/STM32_USB_Host_Library/Core/Src/usbh_ctlreq.c ****   * @brief  USBH_GetDescriptor
 195:Middlewares/ST/STM32_USB_Host_Library/Core/Src/usbh_ctlreq.c ****   *         Issues Descriptor command to the device. Once the response received,
 196:Middlewares/ST/STM32_USB_Host_Library/Core/Src/usbh_ctlreq.c ****   *         it parses the descriptor and updates the status.
 197:Middlewares/ST/STM32_USB_Host_Library/Core/Src/usbh_ctlreq.c ****   * @param  phost: Host Handle
 198:Middlewares/ST/STM32_USB_Host_Library/Core/Src/usbh_ctlreq.c ****   * @param  req_type: Descriptor type
 199:Middlewares/ST/STM32_USB_Host_Library/Core/Src/usbh_ctlreq.c ****   * @param  value_idx: Value for the GetDescriptr request
 200:Middlewares/ST/STM32_USB_Host_Library/Core/Src/usbh_ctlreq.c ****   * @param  buff: Buffer to store the descriptor
 201:Middlewares/ST/STM32_USB_Host_Library/Core/Src/usbh_ctlreq.c ****   * @param  length: Length of the descriptor
 202:Middlewares/ST/STM32_USB_Host_Library/Core/Src/usbh_ctlreq.c ****   * @retval USBH Status
ARM GAS  /tmp/cchT2erI.s 			page 5


 203:Middlewares/ST/STM32_USB_Host_Library/Core/Src/usbh_ctlreq.c ****   */
 204:Middlewares/ST/STM32_USB_Host_Library/Core/Src/usbh_ctlreq.c **** USBH_StatusTypeDef USBH_GetDescriptor(USBH_HandleTypeDef *phost,                          
 205:Middlewares/ST/STM32_USB_Host_Library/Core/Src/usbh_ctlreq.c ****                                uint8_t  req_type,
 206:Middlewares/ST/STM32_USB_Host_Library/Core/Src/usbh_ctlreq.c ****                                uint16_t value_idx, 
 207:Middlewares/ST/STM32_USB_Host_Library/Core/Src/usbh_ctlreq.c ****                                uint8_t* buff, 
 208:Middlewares/ST/STM32_USB_Host_Library/Core/Src/usbh_ctlreq.c ****                                uint16_t length )
 209:Middlewares/ST/STM32_USB_Host_Library/Core/Src/usbh_ctlreq.c **** { 
 210:Middlewares/ST/STM32_USB_Host_Library/Core/Src/usbh_ctlreq.c ****   if(phost->RequestState == CMD_SEND)
 211:Middlewares/ST/STM32_USB_Host_Library/Core/Src/usbh_ctlreq.c ****   {
 212:Middlewares/ST/STM32_USB_Host_Library/Core/Src/usbh_ctlreq.c ****     phost->Control.setup.b.bmRequestType = USB_D2H | req_type;
 213:Middlewares/ST/STM32_USB_Host_Library/Core/Src/usbh_ctlreq.c ****     phost->Control.setup.b.bRequest = USB_REQ_GET_DESCRIPTOR;
 214:Middlewares/ST/STM32_USB_Host_Library/Core/Src/usbh_ctlreq.c ****     phost->Control.setup.b.wValue.w = value_idx;
 215:Middlewares/ST/STM32_USB_Host_Library/Core/Src/usbh_ctlreq.c ****     
 216:Middlewares/ST/STM32_USB_Host_Library/Core/Src/usbh_ctlreq.c ****     if ((value_idx & 0xff00) == USB_DESC_STRING)
 217:Middlewares/ST/STM32_USB_Host_Library/Core/Src/usbh_ctlreq.c ****     {
 218:Middlewares/ST/STM32_USB_Host_Library/Core/Src/usbh_ctlreq.c ****       phost->Control.setup.b.wIndex.w = 0x0409;
 219:Middlewares/ST/STM32_USB_Host_Library/Core/Src/usbh_ctlreq.c ****     }
 220:Middlewares/ST/STM32_USB_Host_Library/Core/Src/usbh_ctlreq.c ****     else
 221:Middlewares/ST/STM32_USB_Host_Library/Core/Src/usbh_ctlreq.c ****     {
 222:Middlewares/ST/STM32_USB_Host_Library/Core/Src/usbh_ctlreq.c ****       phost->Control.setup.b.wIndex.w = 0;
 223:Middlewares/ST/STM32_USB_Host_Library/Core/Src/usbh_ctlreq.c ****     }
 224:Middlewares/ST/STM32_USB_Host_Library/Core/Src/usbh_ctlreq.c ****     phost->Control.setup.b.wLength.w = length; 
 225:Middlewares/ST/STM32_USB_Host_Library/Core/Src/usbh_ctlreq.c ****   }
 226:Middlewares/ST/STM32_USB_Host_Library/Core/Src/usbh_ctlreq.c ****   return USBH_CtlReq(phost, buff , length );     
 227:Middlewares/ST/STM32_USB_Host_Library/Core/Src/usbh_ctlreq.c **** }
 228:Middlewares/ST/STM32_USB_Host_Library/Core/Src/usbh_ctlreq.c **** 
 229:Middlewares/ST/STM32_USB_Host_Library/Core/Src/usbh_ctlreq.c **** /**
 230:Middlewares/ST/STM32_USB_Host_Library/Core/Src/usbh_ctlreq.c ****   * @brief  USBH_SetAddress
 231:Middlewares/ST/STM32_USB_Host_Library/Core/Src/usbh_ctlreq.c ****   *         This command sets the address to the connected device
 232:Middlewares/ST/STM32_USB_Host_Library/Core/Src/usbh_ctlreq.c ****   * @param  phost: Host Handle
 233:Middlewares/ST/STM32_USB_Host_Library/Core/Src/usbh_ctlreq.c ****   * @param  DeviceAddress: Device address to assign
 234:Middlewares/ST/STM32_USB_Host_Library/Core/Src/usbh_ctlreq.c ****   * @retval USBH Status
 235:Middlewares/ST/STM32_USB_Host_Library/Core/Src/usbh_ctlreq.c ****   */
 236:Middlewares/ST/STM32_USB_Host_Library/Core/Src/usbh_ctlreq.c **** USBH_StatusTypeDef USBH_SetAddress(USBH_HandleTypeDef *phost, 
 237:Middlewares/ST/STM32_USB_Host_Library/Core/Src/usbh_ctlreq.c ****                                    uint8_t DeviceAddress)
 238:Middlewares/ST/STM32_USB_Host_Library/Core/Src/usbh_ctlreq.c **** {
 239:Middlewares/ST/STM32_USB_Host_Library/Core/Src/usbh_ctlreq.c ****   if(phost->RequestState == CMD_SEND)
 240:Middlewares/ST/STM32_USB_Host_Library/Core/Src/usbh_ctlreq.c ****   {
 241:Middlewares/ST/STM32_USB_Host_Library/Core/Src/usbh_ctlreq.c ****     phost->Control.setup.b.bmRequestType = USB_H2D | USB_REQ_RECIPIENT_DEVICE | \
 242:Middlewares/ST/STM32_USB_Host_Library/Core/Src/usbh_ctlreq.c ****       USB_REQ_TYPE_STANDARD;
 243:Middlewares/ST/STM32_USB_Host_Library/Core/Src/usbh_ctlreq.c ****     
 244:Middlewares/ST/STM32_USB_Host_Library/Core/Src/usbh_ctlreq.c ****     phost->Control.setup.b.bRequest = USB_REQ_SET_ADDRESS;
 245:Middlewares/ST/STM32_USB_Host_Library/Core/Src/usbh_ctlreq.c ****     
 246:Middlewares/ST/STM32_USB_Host_Library/Core/Src/usbh_ctlreq.c ****     phost->Control.setup.b.wValue.w = (uint16_t)DeviceAddress;
 247:Middlewares/ST/STM32_USB_Host_Library/Core/Src/usbh_ctlreq.c ****     phost->Control.setup.b.wIndex.w = 0;
 248:Middlewares/ST/STM32_USB_Host_Library/Core/Src/usbh_ctlreq.c ****     phost->Control.setup.b.wLength.w = 0;
 249:Middlewares/ST/STM32_USB_Host_Library/Core/Src/usbh_ctlreq.c ****   }
 250:Middlewares/ST/STM32_USB_Host_Library/Core/Src/usbh_ctlreq.c ****   return USBH_CtlReq(phost, 0 , 0 );
 251:Middlewares/ST/STM32_USB_Host_Library/Core/Src/usbh_ctlreq.c **** }
 252:Middlewares/ST/STM32_USB_Host_Library/Core/Src/usbh_ctlreq.c **** 
 253:Middlewares/ST/STM32_USB_Host_Library/Core/Src/usbh_ctlreq.c **** /**
 254:Middlewares/ST/STM32_USB_Host_Library/Core/Src/usbh_ctlreq.c ****   * @brief  USBH_SetCfg
 255:Middlewares/ST/STM32_USB_Host_Library/Core/Src/usbh_ctlreq.c ****   *         The command sets the configuration value to the connected device
 256:Middlewares/ST/STM32_USB_Host_Library/Core/Src/usbh_ctlreq.c ****   * @param  phost: Host Handle
 257:Middlewares/ST/STM32_USB_Host_Library/Core/Src/usbh_ctlreq.c ****   * @param  cfg_idx: Configuration value
 258:Middlewares/ST/STM32_USB_Host_Library/Core/Src/usbh_ctlreq.c ****   * @retval USBH Status
 259:Middlewares/ST/STM32_USB_Host_Library/Core/Src/usbh_ctlreq.c ****   */
ARM GAS  /tmp/cchT2erI.s 			page 6


 260:Middlewares/ST/STM32_USB_Host_Library/Core/Src/usbh_ctlreq.c **** USBH_StatusTypeDef USBH_SetCfg(USBH_HandleTypeDef *phost, 
 261:Middlewares/ST/STM32_USB_Host_Library/Core/Src/usbh_ctlreq.c ****                                uint16_t cfg_idx)
 262:Middlewares/ST/STM32_USB_Host_Library/Core/Src/usbh_ctlreq.c **** {
 263:Middlewares/ST/STM32_USB_Host_Library/Core/Src/usbh_ctlreq.c ****   if(phost->RequestState == CMD_SEND)
 264:Middlewares/ST/STM32_USB_Host_Library/Core/Src/usbh_ctlreq.c ****   {
 265:Middlewares/ST/STM32_USB_Host_Library/Core/Src/usbh_ctlreq.c ****     phost->Control.setup.b.bmRequestType = USB_H2D | USB_REQ_RECIPIENT_DEVICE |\
 266:Middlewares/ST/STM32_USB_Host_Library/Core/Src/usbh_ctlreq.c ****       USB_REQ_TYPE_STANDARD;
 267:Middlewares/ST/STM32_USB_Host_Library/Core/Src/usbh_ctlreq.c ****     phost->Control.setup.b.bRequest = USB_REQ_SET_CONFIGURATION;
 268:Middlewares/ST/STM32_USB_Host_Library/Core/Src/usbh_ctlreq.c ****     phost->Control.setup.b.wValue.w = cfg_idx;
 269:Middlewares/ST/STM32_USB_Host_Library/Core/Src/usbh_ctlreq.c ****     phost->Control.setup.b.wIndex.w = 0;
 270:Middlewares/ST/STM32_USB_Host_Library/Core/Src/usbh_ctlreq.c ****     phost->Control.setup.b.wLength.w = 0; 
 271:Middlewares/ST/STM32_USB_Host_Library/Core/Src/usbh_ctlreq.c ****   }
 272:Middlewares/ST/STM32_USB_Host_Library/Core/Src/usbh_ctlreq.c ****   
 273:Middlewares/ST/STM32_USB_Host_Library/Core/Src/usbh_ctlreq.c ****   return USBH_CtlReq(phost, 0 , 0 );      
 274:Middlewares/ST/STM32_USB_Host_Library/Core/Src/usbh_ctlreq.c **** }
 275:Middlewares/ST/STM32_USB_Host_Library/Core/Src/usbh_ctlreq.c **** 
 276:Middlewares/ST/STM32_USB_Host_Library/Core/Src/usbh_ctlreq.c **** /**
 277:Middlewares/ST/STM32_USB_Host_Library/Core/Src/usbh_ctlreq.c ****   * @brief  USBH_SetInterface
 278:Middlewares/ST/STM32_USB_Host_Library/Core/Src/usbh_ctlreq.c ****   *         The command sets the Interface value to the connected device
 279:Middlewares/ST/STM32_USB_Host_Library/Core/Src/usbh_ctlreq.c ****   * @param  phost: Host Handle
 280:Middlewares/ST/STM32_USB_Host_Library/Core/Src/usbh_ctlreq.c ****   * @param  altSetting: Interface value
 281:Middlewares/ST/STM32_USB_Host_Library/Core/Src/usbh_ctlreq.c ****   * @retval USBH Status
 282:Middlewares/ST/STM32_USB_Host_Library/Core/Src/usbh_ctlreq.c ****   */
 283:Middlewares/ST/STM32_USB_Host_Library/Core/Src/usbh_ctlreq.c **** USBH_StatusTypeDef USBH_SetInterface(USBH_HandleTypeDef *phost, 
 284:Middlewares/ST/STM32_USB_Host_Library/Core/Src/usbh_ctlreq.c ****                         uint8_t ep_num, uint8_t altSetting)
 285:Middlewares/ST/STM32_USB_Host_Library/Core/Src/usbh_ctlreq.c **** {
 286:Middlewares/ST/STM32_USB_Host_Library/Core/Src/usbh_ctlreq.c ****   
 287:Middlewares/ST/STM32_USB_Host_Library/Core/Src/usbh_ctlreq.c ****   if(phost->RequestState == CMD_SEND)
 288:Middlewares/ST/STM32_USB_Host_Library/Core/Src/usbh_ctlreq.c ****   {
 289:Middlewares/ST/STM32_USB_Host_Library/Core/Src/usbh_ctlreq.c ****     phost->Control.setup.b.bmRequestType = USB_H2D | USB_REQ_RECIPIENT_INTERFACE | \
 290:Middlewares/ST/STM32_USB_Host_Library/Core/Src/usbh_ctlreq.c ****       USB_REQ_TYPE_STANDARD;
 291:Middlewares/ST/STM32_USB_Host_Library/Core/Src/usbh_ctlreq.c ****     
 292:Middlewares/ST/STM32_USB_Host_Library/Core/Src/usbh_ctlreq.c ****     phost->Control.setup.b.bRequest = USB_REQ_SET_INTERFACE;
 293:Middlewares/ST/STM32_USB_Host_Library/Core/Src/usbh_ctlreq.c ****     phost->Control.setup.b.wValue.w = altSetting;
 294:Middlewares/ST/STM32_USB_Host_Library/Core/Src/usbh_ctlreq.c ****     phost->Control.setup.b.wIndex.w = ep_num;
 295:Middlewares/ST/STM32_USB_Host_Library/Core/Src/usbh_ctlreq.c ****     phost->Control.setup.b.wLength.w = 0;           
 296:Middlewares/ST/STM32_USB_Host_Library/Core/Src/usbh_ctlreq.c ****   }
 297:Middlewares/ST/STM32_USB_Host_Library/Core/Src/usbh_ctlreq.c ****   return USBH_CtlReq(phost, 0 , 0 );     
 298:Middlewares/ST/STM32_USB_Host_Library/Core/Src/usbh_ctlreq.c **** }
 299:Middlewares/ST/STM32_USB_Host_Library/Core/Src/usbh_ctlreq.c **** 
 300:Middlewares/ST/STM32_USB_Host_Library/Core/Src/usbh_ctlreq.c **** /**
 301:Middlewares/ST/STM32_USB_Host_Library/Core/Src/usbh_ctlreq.c ****   * @brief  USBH_ClrFeature
 302:Middlewares/ST/STM32_USB_Host_Library/Core/Src/usbh_ctlreq.c ****   *         This request is used to clear or disable a specific feature.
 303:Middlewares/ST/STM32_USB_Host_Library/Core/Src/usbh_ctlreq.c ****   * @param  phost: Host Handle
 304:Middlewares/ST/STM32_USB_Host_Library/Core/Src/usbh_ctlreq.c ****   * @param  ep_num: endpoint number 
 305:Middlewares/ST/STM32_USB_Host_Library/Core/Src/usbh_ctlreq.c ****   * @param  hc_num: Host channel number 
 306:Middlewares/ST/STM32_USB_Host_Library/Core/Src/usbh_ctlreq.c ****   * @retval USBH Status
 307:Middlewares/ST/STM32_USB_Host_Library/Core/Src/usbh_ctlreq.c ****   */
 308:Middlewares/ST/STM32_USB_Host_Library/Core/Src/usbh_ctlreq.c **** USBH_StatusTypeDef USBH_ClrFeature(USBH_HandleTypeDef *phost,
 309:Middlewares/ST/STM32_USB_Host_Library/Core/Src/usbh_ctlreq.c ****                                    uint8_t ep_num) 
 310:Middlewares/ST/STM32_USB_Host_Library/Core/Src/usbh_ctlreq.c **** {
 311:Middlewares/ST/STM32_USB_Host_Library/Core/Src/usbh_ctlreq.c ****   if(phost->RequestState == CMD_SEND)
 312:Middlewares/ST/STM32_USB_Host_Library/Core/Src/usbh_ctlreq.c ****   {
 313:Middlewares/ST/STM32_USB_Host_Library/Core/Src/usbh_ctlreq.c ****     phost->Control.setup.b.bmRequestType = USB_H2D | 
 314:Middlewares/ST/STM32_USB_Host_Library/Core/Src/usbh_ctlreq.c ****       USB_REQ_RECIPIENT_ENDPOINT |
 315:Middlewares/ST/STM32_USB_Host_Library/Core/Src/usbh_ctlreq.c ****         USB_REQ_TYPE_STANDARD;
 316:Middlewares/ST/STM32_USB_Host_Library/Core/Src/usbh_ctlreq.c ****     
ARM GAS  /tmp/cchT2erI.s 			page 7


 317:Middlewares/ST/STM32_USB_Host_Library/Core/Src/usbh_ctlreq.c ****     phost->Control.setup.b.bRequest = USB_REQ_CLEAR_FEATURE;
 318:Middlewares/ST/STM32_USB_Host_Library/Core/Src/usbh_ctlreq.c ****     phost->Control.setup.b.wValue.w = FEATURE_SELECTOR_ENDPOINT;
 319:Middlewares/ST/STM32_USB_Host_Library/Core/Src/usbh_ctlreq.c ****     phost->Control.setup.b.wIndex.w = ep_num;
 320:Middlewares/ST/STM32_USB_Host_Library/Core/Src/usbh_ctlreq.c ****     phost->Control.setup.b.wLength.w = 0;           
 321:Middlewares/ST/STM32_USB_Host_Library/Core/Src/usbh_ctlreq.c ****   }
 322:Middlewares/ST/STM32_USB_Host_Library/Core/Src/usbh_ctlreq.c ****   return USBH_CtlReq(phost, 0 , 0 );   
 323:Middlewares/ST/STM32_USB_Host_Library/Core/Src/usbh_ctlreq.c **** }
 324:Middlewares/ST/STM32_USB_Host_Library/Core/Src/usbh_ctlreq.c **** 
 325:Middlewares/ST/STM32_USB_Host_Library/Core/Src/usbh_ctlreq.c **** /**
 326:Middlewares/ST/STM32_USB_Host_Library/Core/Src/usbh_ctlreq.c ****   * @brief  USBH_ParseDevDesc 
 327:Middlewares/ST/STM32_USB_Host_Library/Core/Src/usbh_ctlreq.c ****   *         This function Parses the device descriptor
 328:Middlewares/ST/STM32_USB_Host_Library/Core/Src/usbh_ctlreq.c ****   * @param  dev_desc: device_descriptor destination address 
 329:Middlewares/ST/STM32_USB_Host_Library/Core/Src/usbh_ctlreq.c ****   * @param  buf: Buffer where the source descriptor is available
 330:Middlewares/ST/STM32_USB_Host_Library/Core/Src/usbh_ctlreq.c ****   * @param  length: Length of the descriptor
 331:Middlewares/ST/STM32_USB_Host_Library/Core/Src/usbh_ctlreq.c ****   * @retval None
 332:Middlewares/ST/STM32_USB_Host_Library/Core/Src/usbh_ctlreq.c ****   */
 333:Middlewares/ST/STM32_USB_Host_Library/Core/Src/usbh_ctlreq.c **** static void  USBH_ParseDevDesc (USBH_DevDescTypeDef* dev_desc,
 334:Middlewares/ST/STM32_USB_Host_Library/Core/Src/usbh_ctlreq.c ****                                 uint8_t *buf, 
 335:Middlewares/ST/STM32_USB_Host_Library/Core/Src/usbh_ctlreq.c ****                                 uint16_t length)
 336:Middlewares/ST/STM32_USB_Host_Library/Core/Src/usbh_ctlreq.c **** {
  28              		.loc 1 336 0
  29              		.cfi_startproc
  30              		@ args = 0, pretend = 0, frame = 0
  31              		@ frame_needed = 0, uses_anonymous_args = 0
  32              		@ link register save eliminated.
  33              	.LVL0:
  34 0000 10B4     		push	{r4}
  35              	.LCFI0:
  36              		.cfi_def_cfa_offset 4
  37              		.cfi_offset 4, -4
 337:Middlewares/ST/STM32_USB_Host_Library/Core/Src/usbh_ctlreq.c ****   dev_desc->bLength            = *(uint8_t  *) (buf +  0);
  38              		.loc 1 337 0
  39 0002 0B78     		ldrb	r3, [r1]	@ zero_extendqisi2
  40 0004 0370     		strb	r3, [r0]
 338:Middlewares/ST/STM32_USB_Host_Library/Core/Src/usbh_ctlreq.c ****   dev_desc->bDescriptorType    = *(uint8_t  *) (buf +  1);
  41              		.loc 1 338 0
  42 0006 4B78     		ldrb	r3, [r1, #1]	@ zero_extendqisi2
  43 0008 4370     		strb	r3, [r0, #1]
 339:Middlewares/ST/STM32_USB_Host_Library/Core/Src/usbh_ctlreq.c ****   dev_desc->bcdUSB             = LE16 (buf +  2);
  44              		.loc 1 339 0
  45 000a 8B78     		ldrb	r3, [r1, #2]	@ zero_extendqisi2
  46 000c CC78     		ldrb	r4, [r1, #3]	@ zero_extendqisi2
  47 000e 03EB0423 		add	r3, r3, r4, lsl #8
  48 0012 4380     		strh	r3, [r0, #2]	@ movhi
 340:Middlewares/ST/STM32_USB_Host_Library/Core/Src/usbh_ctlreq.c ****   dev_desc->bDeviceClass       = *(uint8_t  *) (buf +  4);
  49              		.loc 1 340 0
  50 0014 0B79     		ldrb	r3, [r1, #4]	@ zero_extendqisi2
  51 0016 0371     		strb	r3, [r0, #4]
 341:Middlewares/ST/STM32_USB_Host_Library/Core/Src/usbh_ctlreq.c ****   dev_desc->bDeviceSubClass    = *(uint8_t  *) (buf +  5);
  52              		.loc 1 341 0
  53 0018 4B79     		ldrb	r3, [r1, #5]	@ zero_extendqisi2
  54 001a 4371     		strb	r3, [r0, #5]
 342:Middlewares/ST/STM32_USB_Host_Library/Core/Src/usbh_ctlreq.c ****   dev_desc->bDeviceProtocol    = *(uint8_t  *) (buf +  6);
  55              		.loc 1 342 0
  56 001c 8B79     		ldrb	r3, [r1, #6]	@ zero_extendqisi2
  57 001e 8371     		strb	r3, [r0, #6]
 343:Middlewares/ST/STM32_USB_Host_Library/Core/Src/usbh_ctlreq.c ****   dev_desc->bMaxPacketSize     = *(uint8_t  *) (buf +  7);
ARM GAS  /tmp/cchT2erI.s 			page 8


  58              		.loc 1 343 0
  59 0020 CB79     		ldrb	r3, [r1, #7]	@ zero_extendqisi2
  60 0022 C371     		strb	r3, [r0, #7]
 344:Middlewares/ST/STM32_USB_Host_Library/Core/Src/usbh_ctlreq.c ****   
 345:Middlewares/ST/STM32_USB_Host_Library/Core/Src/usbh_ctlreq.c ****   if (length > 8)
  61              		.loc 1 345 0
  62 0024 082A     		cmp	r2, #8
  63 0026 16D9     		bls	.L1
 346:Middlewares/ST/STM32_USB_Host_Library/Core/Src/usbh_ctlreq.c ****   { /* For 1st time after device connection, Host may issue only 8 bytes for 
 347:Middlewares/ST/STM32_USB_Host_Library/Core/Src/usbh_ctlreq.c ****     Device Descriptor Length  */
 348:Middlewares/ST/STM32_USB_Host_Library/Core/Src/usbh_ctlreq.c ****     dev_desc->idVendor           = LE16 (buf +  8);
  64              		.loc 1 348 0
  65 0028 0B7A     		ldrb	r3, [r1, #8]	@ zero_extendqisi2
  66 002a 4A7A     		ldrb	r2, [r1, #9]	@ zero_extendqisi2
  67              	.LVL1:
  68 002c 03EB0223 		add	r3, r3, r2, lsl #8
  69 0030 0381     		strh	r3, [r0, #8]	@ movhi
 349:Middlewares/ST/STM32_USB_Host_Library/Core/Src/usbh_ctlreq.c ****     dev_desc->idProduct          = LE16 (buf + 10);
  70              		.loc 1 349 0
  71 0032 8B7A     		ldrb	r3, [r1, #10]	@ zero_extendqisi2
  72 0034 CA7A     		ldrb	r2, [r1, #11]	@ zero_extendqisi2
  73 0036 03EB0223 		add	r3, r3, r2, lsl #8
  74 003a 4381     		strh	r3, [r0, #10]	@ movhi
 350:Middlewares/ST/STM32_USB_Host_Library/Core/Src/usbh_ctlreq.c ****     dev_desc->bcdDevice          = LE16 (buf + 12);
  75              		.loc 1 350 0
  76 003c 0B7B     		ldrb	r3, [r1, #12]	@ zero_extendqisi2
  77 003e 4A7B     		ldrb	r2, [r1, #13]	@ zero_extendqisi2
  78 0040 03EB0223 		add	r3, r3, r2, lsl #8
  79 0044 8381     		strh	r3, [r0, #12]	@ movhi
 351:Middlewares/ST/STM32_USB_Host_Library/Core/Src/usbh_ctlreq.c ****     dev_desc->iManufacturer      = *(uint8_t  *) (buf + 14);
  80              		.loc 1 351 0
  81 0046 8B7B     		ldrb	r3, [r1, #14]	@ zero_extendqisi2
  82 0048 8373     		strb	r3, [r0, #14]
 352:Middlewares/ST/STM32_USB_Host_Library/Core/Src/usbh_ctlreq.c ****     dev_desc->iProduct           = *(uint8_t  *) (buf + 15);
  83              		.loc 1 352 0
  84 004a CB7B     		ldrb	r3, [r1, #15]	@ zero_extendqisi2
  85 004c C373     		strb	r3, [r0, #15]
 353:Middlewares/ST/STM32_USB_Host_Library/Core/Src/usbh_ctlreq.c ****     dev_desc->iSerialNumber      = *(uint8_t  *) (buf + 16);
  86              		.loc 1 353 0
  87 004e 0B7C     		ldrb	r3, [r1, #16]	@ zero_extendqisi2
  88 0050 0374     		strb	r3, [r0, #16]
 354:Middlewares/ST/STM32_USB_Host_Library/Core/Src/usbh_ctlreq.c ****     dev_desc->bNumConfigurations = *(uint8_t  *) (buf + 17);
  89              		.loc 1 354 0
  90 0052 4B7C     		ldrb	r3, [r1, #17]	@ zero_extendqisi2
  91 0054 4374     		strb	r3, [r0, #17]
  92              	.L1:
 355:Middlewares/ST/STM32_USB_Host_Library/Core/Src/usbh_ctlreq.c ****   }
 356:Middlewares/ST/STM32_USB_Host_Library/Core/Src/usbh_ctlreq.c **** }
  93              		.loc 1 356 0
  94 0056 5DF8044B 		ldr	r4, [sp], #4
  95              	.LCFI1:
  96              		.cfi_restore 4
  97              		.cfi_def_cfa_offset 0
  98 005a 7047     		bx	lr
  99              		.cfi_endproc
 100              	.LFE131:
 102              		.section	.text.USBH_ParseInterfaceDesc,"ax",%progbits
ARM GAS  /tmp/cchT2erI.s 			page 9


 103              		.align	2
 104              		.thumb
 105              		.thumb_func
 107              	USBH_ParseInterfaceDesc:
 108              	.LFB133:
 357:Middlewares/ST/STM32_USB_Host_Library/Core/Src/usbh_ctlreq.c **** 
 358:Middlewares/ST/STM32_USB_Host_Library/Core/Src/usbh_ctlreq.c **** /**
 359:Middlewares/ST/STM32_USB_Host_Library/Core/Src/usbh_ctlreq.c ****   * @brief  USBH_ParseCfgDesc 
 360:Middlewares/ST/STM32_USB_Host_Library/Core/Src/usbh_ctlreq.c ****   *         This function Parses the configuration descriptor
 361:Middlewares/ST/STM32_USB_Host_Library/Core/Src/usbh_ctlreq.c ****   * @param  cfg_desc: Configuration Descriptor address
 362:Middlewares/ST/STM32_USB_Host_Library/Core/Src/usbh_ctlreq.c ****   * @param  buf: Buffer where the source descriptor is available
 363:Middlewares/ST/STM32_USB_Host_Library/Core/Src/usbh_ctlreq.c ****   * @param  length: Length of the descriptor
 364:Middlewares/ST/STM32_USB_Host_Library/Core/Src/usbh_ctlreq.c ****   * @retval None
 365:Middlewares/ST/STM32_USB_Host_Library/Core/Src/usbh_ctlreq.c ****   */
 366:Middlewares/ST/STM32_USB_Host_Library/Core/Src/usbh_ctlreq.c **** static void USBH_ParseCfgDesc (USBH_CfgDescTypeDef* cfg_desc,
 367:Middlewares/ST/STM32_USB_Host_Library/Core/Src/usbh_ctlreq.c ****                                uint8_t *buf, 
 368:Middlewares/ST/STM32_USB_Host_Library/Core/Src/usbh_ctlreq.c ****                                uint16_t length)
 369:Middlewares/ST/STM32_USB_Host_Library/Core/Src/usbh_ctlreq.c **** {  
 370:Middlewares/ST/STM32_USB_Host_Library/Core/Src/usbh_ctlreq.c ****   USBH_InterfaceDescTypeDef    *pif ;
 371:Middlewares/ST/STM32_USB_Host_Library/Core/Src/usbh_ctlreq.c ****   USBH_EpDescTypeDef           *pep;  
 372:Middlewares/ST/STM32_USB_Host_Library/Core/Src/usbh_ctlreq.c ****   USBH_DescHeader_t             *pdesc = (USBH_DescHeader_t *)buf;
 373:Middlewares/ST/STM32_USB_Host_Library/Core/Src/usbh_ctlreq.c ****   uint16_t                      ptr;
 374:Middlewares/ST/STM32_USB_Host_Library/Core/Src/usbh_ctlreq.c ****   int8_t                        if_ix = 0;
 375:Middlewares/ST/STM32_USB_Host_Library/Core/Src/usbh_ctlreq.c ****   int8_t                        ep_ix = 0;  
 376:Middlewares/ST/STM32_USB_Host_Library/Core/Src/usbh_ctlreq.c ****   
 377:Middlewares/ST/STM32_USB_Host_Library/Core/Src/usbh_ctlreq.c ****   pdesc   = (USBH_DescHeader_t *)buf;
 378:Middlewares/ST/STM32_USB_Host_Library/Core/Src/usbh_ctlreq.c ****   
 379:Middlewares/ST/STM32_USB_Host_Library/Core/Src/usbh_ctlreq.c ****   /* Parse configuration descriptor */
 380:Middlewares/ST/STM32_USB_Host_Library/Core/Src/usbh_ctlreq.c ****   cfg_desc->bLength             = *(uint8_t  *) (buf + 0);
 381:Middlewares/ST/STM32_USB_Host_Library/Core/Src/usbh_ctlreq.c ****   cfg_desc->bDescriptorType     = *(uint8_t  *) (buf + 1);
 382:Middlewares/ST/STM32_USB_Host_Library/Core/Src/usbh_ctlreq.c ****   cfg_desc->wTotalLength        = LE16 (buf + 2);
 383:Middlewares/ST/STM32_USB_Host_Library/Core/Src/usbh_ctlreq.c ****   cfg_desc->bNumInterfaces      = *(uint8_t  *) (buf + 4);
 384:Middlewares/ST/STM32_USB_Host_Library/Core/Src/usbh_ctlreq.c ****   cfg_desc->bConfigurationValue = *(uint8_t  *) (buf + 5);
 385:Middlewares/ST/STM32_USB_Host_Library/Core/Src/usbh_ctlreq.c ****   cfg_desc->iConfiguration      = *(uint8_t  *) (buf + 6);
 386:Middlewares/ST/STM32_USB_Host_Library/Core/Src/usbh_ctlreq.c ****   cfg_desc->bmAttributes        = *(uint8_t  *) (buf + 7);
 387:Middlewares/ST/STM32_USB_Host_Library/Core/Src/usbh_ctlreq.c ****   cfg_desc->bMaxPower           = *(uint8_t  *) (buf + 8);    
 388:Middlewares/ST/STM32_USB_Host_Library/Core/Src/usbh_ctlreq.c ****   
 389:Middlewares/ST/STM32_USB_Host_Library/Core/Src/usbh_ctlreq.c ****   
 390:Middlewares/ST/STM32_USB_Host_Library/Core/Src/usbh_ctlreq.c ****   if (length > USB_CONFIGURATION_DESC_SIZE)
 391:Middlewares/ST/STM32_USB_Host_Library/Core/Src/usbh_ctlreq.c ****   {
 392:Middlewares/ST/STM32_USB_Host_Library/Core/Src/usbh_ctlreq.c ****     ptr = USB_LEN_CFG_DESC;
 393:Middlewares/ST/STM32_USB_Host_Library/Core/Src/usbh_ctlreq.c ****     pif = (USBH_InterfaceDescTypeDef *)0;
 394:Middlewares/ST/STM32_USB_Host_Library/Core/Src/usbh_ctlreq.c ****     
 395:Middlewares/ST/STM32_USB_Host_Library/Core/Src/usbh_ctlreq.c ****     
 396:Middlewares/ST/STM32_USB_Host_Library/Core/Src/usbh_ctlreq.c ****     while ((if_ix < USBH_MAX_NUM_INTERFACES ) && (ptr < cfg_desc->wTotalLength))
 397:Middlewares/ST/STM32_USB_Host_Library/Core/Src/usbh_ctlreq.c ****     {
 398:Middlewares/ST/STM32_USB_Host_Library/Core/Src/usbh_ctlreq.c ****       pdesc = USBH_GetNextDesc((uint8_t *)pdesc, &ptr);
 399:Middlewares/ST/STM32_USB_Host_Library/Core/Src/usbh_ctlreq.c ****       if (pdesc->bDescriptorType   == USB_DESC_TYPE_INTERFACE) 
 400:Middlewares/ST/STM32_USB_Host_Library/Core/Src/usbh_ctlreq.c ****       {
 401:Middlewares/ST/STM32_USB_Host_Library/Core/Src/usbh_ctlreq.c ****         pif = &cfg_desc->Itf_Desc[if_ix];
 402:Middlewares/ST/STM32_USB_Host_Library/Core/Src/usbh_ctlreq.c ****         USBH_ParseInterfaceDesc (pif, (uint8_t *)pdesc);            
 403:Middlewares/ST/STM32_USB_Host_Library/Core/Src/usbh_ctlreq.c ****         
 404:Middlewares/ST/STM32_USB_Host_Library/Core/Src/usbh_ctlreq.c ****         ep_ix = 0;
 405:Middlewares/ST/STM32_USB_Host_Library/Core/Src/usbh_ctlreq.c ****         pep = (USBH_EpDescTypeDef *)0;        
 406:Middlewares/ST/STM32_USB_Host_Library/Core/Src/usbh_ctlreq.c ****         while ((ep_ix < pif->bNumEndpoints) && (ptr < cfg_desc->wTotalLength))
 407:Middlewares/ST/STM32_USB_Host_Library/Core/Src/usbh_ctlreq.c ****         {
 408:Middlewares/ST/STM32_USB_Host_Library/Core/Src/usbh_ctlreq.c ****           pdesc = USBH_GetNextDesc((uint8_t*) pdesc, &ptr);
ARM GAS  /tmp/cchT2erI.s 			page 10


 409:Middlewares/ST/STM32_USB_Host_Library/Core/Src/usbh_ctlreq.c ****           if (pdesc->bDescriptorType   == USB_DESC_TYPE_ENDPOINT) 
 410:Middlewares/ST/STM32_USB_Host_Library/Core/Src/usbh_ctlreq.c ****           {  
 411:Middlewares/ST/STM32_USB_Host_Library/Core/Src/usbh_ctlreq.c ****             pep = &cfg_desc->Itf_Desc[if_ix].Ep_Desc[ep_ix];
 412:Middlewares/ST/STM32_USB_Host_Library/Core/Src/usbh_ctlreq.c ****             USBH_ParseEPDesc (pep, (uint8_t *)pdesc);
 413:Middlewares/ST/STM32_USB_Host_Library/Core/Src/usbh_ctlreq.c ****             ep_ix++;
 414:Middlewares/ST/STM32_USB_Host_Library/Core/Src/usbh_ctlreq.c ****           }
 415:Middlewares/ST/STM32_USB_Host_Library/Core/Src/usbh_ctlreq.c ****         }
 416:Middlewares/ST/STM32_USB_Host_Library/Core/Src/usbh_ctlreq.c ****         if_ix++;
 417:Middlewares/ST/STM32_USB_Host_Library/Core/Src/usbh_ctlreq.c ****       }
 418:Middlewares/ST/STM32_USB_Host_Library/Core/Src/usbh_ctlreq.c ****     }
 419:Middlewares/ST/STM32_USB_Host_Library/Core/Src/usbh_ctlreq.c ****   }  
 420:Middlewares/ST/STM32_USB_Host_Library/Core/Src/usbh_ctlreq.c **** }
 421:Middlewares/ST/STM32_USB_Host_Library/Core/Src/usbh_ctlreq.c **** 
 422:Middlewares/ST/STM32_USB_Host_Library/Core/Src/usbh_ctlreq.c **** 
 423:Middlewares/ST/STM32_USB_Host_Library/Core/Src/usbh_ctlreq.c **** 
 424:Middlewares/ST/STM32_USB_Host_Library/Core/Src/usbh_ctlreq.c **** /**
 425:Middlewares/ST/STM32_USB_Host_Library/Core/Src/usbh_ctlreq.c ****   * @brief  USBH_ParseInterfaceDesc 
 426:Middlewares/ST/STM32_USB_Host_Library/Core/Src/usbh_ctlreq.c ****   *         This function Parses the interface descriptor
 427:Middlewares/ST/STM32_USB_Host_Library/Core/Src/usbh_ctlreq.c ****   * @param  if_descriptor : Interface descriptor destination
 428:Middlewares/ST/STM32_USB_Host_Library/Core/Src/usbh_ctlreq.c ****   * @param  buf: Buffer where the descriptor data is available
 429:Middlewares/ST/STM32_USB_Host_Library/Core/Src/usbh_ctlreq.c ****   * @retval None
 430:Middlewares/ST/STM32_USB_Host_Library/Core/Src/usbh_ctlreq.c ****   */
 431:Middlewares/ST/STM32_USB_Host_Library/Core/Src/usbh_ctlreq.c **** static void  USBH_ParseInterfaceDesc (USBH_InterfaceDescTypeDef *if_descriptor, 
 432:Middlewares/ST/STM32_USB_Host_Library/Core/Src/usbh_ctlreq.c ****                                       uint8_t *buf)
 433:Middlewares/ST/STM32_USB_Host_Library/Core/Src/usbh_ctlreq.c **** {
 109              		.loc 1 433 0
 110              		.cfi_startproc
 111              		@ args = 0, pretend = 0, frame = 0
 112              		@ frame_needed = 0, uses_anonymous_args = 0
 113              		@ link register save eliminated.
 114              	.LVL2:
 434:Middlewares/ST/STM32_USB_Host_Library/Core/Src/usbh_ctlreq.c ****   if_descriptor->bLength            = *(uint8_t  *) (buf + 0);
 115              		.loc 1 434 0
 116 0000 0B78     		ldrb	r3, [r1]	@ zero_extendqisi2
 117 0002 0370     		strb	r3, [r0]
 435:Middlewares/ST/STM32_USB_Host_Library/Core/Src/usbh_ctlreq.c ****   if_descriptor->bDescriptorType    = *(uint8_t  *) (buf + 1);
 118              		.loc 1 435 0
 119 0004 4B78     		ldrb	r3, [r1, #1]	@ zero_extendqisi2
 120 0006 4370     		strb	r3, [r0, #1]
 436:Middlewares/ST/STM32_USB_Host_Library/Core/Src/usbh_ctlreq.c ****   if_descriptor->bInterfaceNumber   = *(uint8_t  *) (buf + 2);
 121              		.loc 1 436 0
 122 0008 8B78     		ldrb	r3, [r1, #2]	@ zero_extendqisi2
 123 000a 8370     		strb	r3, [r0, #2]
 437:Middlewares/ST/STM32_USB_Host_Library/Core/Src/usbh_ctlreq.c ****   if_descriptor->bAlternateSetting  = *(uint8_t  *) (buf + 3);
 124              		.loc 1 437 0
 125 000c CB78     		ldrb	r3, [r1, #3]	@ zero_extendqisi2
 126 000e C370     		strb	r3, [r0, #3]
 438:Middlewares/ST/STM32_USB_Host_Library/Core/Src/usbh_ctlreq.c ****   if_descriptor->bNumEndpoints      = *(uint8_t  *) (buf + 4);
 127              		.loc 1 438 0
 128 0010 0B79     		ldrb	r3, [r1, #4]	@ zero_extendqisi2
 129 0012 0371     		strb	r3, [r0, #4]
 439:Middlewares/ST/STM32_USB_Host_Library/Core/Src/usbh_ctlreq.c ****   if_descriptor->bInterfaceClass    = *(uint8_t  *) (buf + 5);
 130              		.loc 1 439 0
 131 0014 4B79     		ldrb	r3, [r1, #5]	@ zero_extendqisi2
 132 0016 4371     		strb	r3, [r0, #5]
 440:Middlewares/ST/STM32_USB_Host_Library/Core/Src/usbh_ctlreq.c ****   if_descriptor->bInterfaceSubClass = *(uint8_t  *) (buf + 6);
 133              		.loc 1 440 0
ARM GAS  /tmp/cchT2erI.s 			page 11


 134 0018 8B79     		ldrb	r3, [r1, #6]	@ zero_extendqisi2
 135 001a 8371     		strb	r3, [r0, #6]
 441:Middlewares/ST/STM32_USB_Host_Library/Core/Src/usbh_ctlreq.c ****   if_descriptor->bInterfaceProtocol = *(uint8_t  *) (buf + 7);
 136              		.loc 1 441 0
 137 001c CB79     		ldrb	r3, [r1, #7]	@ zero_extendqisi2
 138 001e C371     		strb	r3, [r0, #7]
 442:Middlewares/ST/STM32_USB_Host_Library/Core/Src/usbh_ctlreq.c ****   if_descriptor->iInterface         = *(uint8_t  *) (buf + 8);
 139              		.loc 1 442 0
 140 0020 0B7A     		ldrb	r3, [r1, #8]	@ zero_extendqisi2
 141 0022 0372     		strb	r3, [r0, #8]
 142 0024 7047     		bx	lr
 143              		.cfi_endproc
 144              	.LFE133:
 146 0026 00BF     		.section	.text.USBH_ParseEPDesc,"ax",%progbits
 147              		.align	2
 148              		.thumb
 149              		.thumb_func
 151              	USBH_ParseEPDesc:
 152              	.LFB134:
 443:Middlewares/ST/STM32_USB_Host_Library/Core/Src/usbh_ctlreq.c **** }
 444:Middlewares/ST/STM32_USB_Host_Library/Core/Src/usbh_ctlreq.c **** 
 445:Middlewares/ST/STM32_USB_Host_Library/Core/Src/usbh_ctlreq.c **** /**
 446:Middlewares/ST/STM32_USB_Host_Library/Core/Src/usbh_ctlreq.c ****   * @brief  USBH_ParseEPDesc 
 447:Middlewares/ST/STM32_USB_Host_Library/Core/Src/usbh_ctlreq.c ****   *         This function Parses the endpoint descriptor
 448:Middlewares/ST/STM32_USB_Host_Library/Core/Src/usbh_ctlreq.c ****   * @param  ep_descriptor: Endpoint descriptor destination address
 449:Middlewares/ST/STM32_USB_Host_Library/Core/Src/usbh_ctlreq.c ****   * @param  buf: Buffer where the parsed descriptor stored
 450:Middlewares/ST/STM32_USB_Host_Library/Core/Src/usbh_ctlreq.c ****   * @retval None
 451:Middlewares/ST/STM32_USB_Host_Library/Core/Src/usbh_ctlreq.c ****   */
 452:Middlewares/ST/STM32_USB_Host_Library/Core/Src/usbh_ctlreq.c **** static void  USBH_ParseEPDesc (USBH_EpDescTypeDef  *ep_descriptor, 
 453:Middlewares/ST/STM32_USB_Host_Library/Core/Src/usbh_ctlreq.c ****                                uint8_t *buf)
 454:Middlewares/ST/STM32_USB_Host_Library/Core/Src/usbh_ctlreq.c **** {
 153              		.loc 1 454 0
 154              		.cfi_startproc
 155              		@ args = 0, pretend = 0, frame = 0
 156              		@ frame_needed = 0, uses_anonymous_args = 0
 157              		@ link register save eliminated.
 158              	.LVL3:
 455:Middlewares/ST/STM32_USB_Host_Library/Core/Src/usbh_ctlreq.c ****   
 456:Middlewares/ST/STM32_USB_Host_Library/Core/Src/usbh_ctlreq.c ****   ep_descriptor->bLength          = *(uint8_t  *) (buf + 0);
 159              		.loc 1 456 0
 160 0000 0B78     		ldrb	r3, [r1]	@ zero_extendqisi2
 161 0002 0370     		strb	r3, [r0]
 457:Middlewares/ST/STM32_USB_Host_Library/Core/Src/usbh_ctlreq.c ****   ep_descriptor->bDescriptorType  = *(uint8_t  *) (buf + 1);
 162              		.loc 1 457 0
 163 0004 4B78     		ldrb	r3, [r1, #1]	@ zero_extendqisi2
 164 0006 4370     		strb	r3, [r0, #1]
 458:Middlewares/ST/STM32_USB_Host_Library/Core/Src/usbh_ctlreq.c ****   ep_descriptor->bEndpointAddress = *(uint8_t  *) (buf + 2);
 165              		.loc 1 458 0
 166 0008 8B78     		ldrb	r3, [r1, #2]	@ zero_extendqisi2
 167 000a 8370     		strb	r3, [r0, #2]
 459:Middlewares/ST/STM32_USB_Host_Library/Core/Src/usbh_ctlreq.c ****   ep_descriptor->bmAttributes     = *(uint8_t  *) (buf + 3);
 168              		.loc 1 459 0
 169 000c CB78     		ldrb	r3, [r1, #3]	@ zero_extendqisi2
 170 000e C370     		strb	r3, [r0, #3]
 460:Middlewares/ST/STM32_USB_Host_Library/Core/Src/usbh_ctlreq.c ****   ep_descriptor->wMaxPacketSize   = LE16 (buf + 4);
 171              		.loc 1 460 0
 172 0010 0B79     		ldrb	r3, [r1, #4]	@ zero_extendqisi2
ARM GAS  /tmp/cchT2erI.s 			page 12


 173 0012 4A79     		ldrb	r2, [r1, #5]	@ zero_extendqisi2
 174 0014 03EB0223 		add	r3, r3, r2, lsl #8
 175 0018 8380     		strh	r3, [r0, #4]	@ movhi
 461:Middlewares/ST/STM32_USB_Host_Library/Core/Src/usbh_ctlreq.c ****   ep_descriptor->bInterval        = *(uint8_t  *) (buf + 6);
 176              		.loc 1 461 0
 177 001a 8B79     		ldrb	r3, [r1, #6]	@ zero_extendqisi2
 178 001c 8371     		strb	r3, [r0, #6]
 179 001e 7047     		bx	lr
 180              		.cfi_endproc
 181              	.LFE134:
 183              		.section	.text.USBH_ParseStringDesc,"ax",%progbits
 184              		.align	2
 185              		.thumb
 186              		.thumb_func
 188              	USBH_ParseStringDesc:
 189              	.LFB135:
 462:Middlewares/ST/STM32_USB_Host_Library/Core/Src/usbh_ctlreq.c **** }
 463:Middlewares/ST/STM32_USB_Host_Library/Core/Src/usbh_ctlreq.c **** 
 464:Middlewares/ST/STM32_USB_Host_Library/Core/Src/usbh_ctlreq.c **** /**
 465:Middlewares/ST/STM32_USB_Host_Library/Core/Src/usbh_ctlreq.c ****   * @brief  USBH_ParseStringDesc 
 466:Middlewares/ST/STM32_USB_Host_Library/Core/Src/usbh_ctlreq.c ****   *         This function Parses the string descriptor
 467:Middlewares/ST/STM32_USB_Host_Library/Core/Src/usbh_ctlreq.c ****   * @param  psrc: Source pointer containing the descriptor data
 468:Middlewares/ST/STM32_USB_Host_Library/Core/Src/usbh_ctlreq.c ****   * @param  pdest: Destination address pointer
 469:Middlewares/ST/STM32_USB_Host_Library/Core/Src/usbh_ctlreq.c ****   * @param  length: Length of the descriptor
 470:Middlewares/ST/STM32_USB_Host_Library/Core/Src/usbh_ctlreq.c ****   * @retval None
 471:Middlewares/ST/STM32_USB_Host_Library/Core/Src/usbh_ctlreq.c ****   */
 472:Middlewares/ST/STM32_USB_Host_Library/Core/Src/usbh_ctlreq.c **** static void USBH_ParseStringDesc (uint8_t* psrc, 
 473:Middlewares/ST/STM32_USB_Host_Library/Core/Src/usbh_ctlreq.c ****                                   uint8_t* pdest, 
 474:Middlewares/ST/STM32_USB_Host_Library/Core/Src/usbh_ctlreq.c ****                                   uint16_t length)
 475:Middlewares/ST/STM32_USB_Host_Library/Core/Src/usbh_ctlreq.c **** {
 190              		.loc 1 475 0
 191              		.cfi_startproc
 192              		@ args = 0, pretend = 0, frame = 0
 193              		@ frame_needed = 0, uses_anonymous_args = 0
 194              		@ link register save eliminated.
 476:Middlewares/ST/STM32_USB_Host_Library/Core/Src/usbh_ctlreq.c ****   uint16_t strlength;
 477:Middlewares/ST/STM32_USB_Host_Library/Core/Src/usbh_ctlreq.c ****   uint16_t idx;
 478:Middlewares/ST/STM32_USB_Host_Library/Core/Src/usbh_ctlreq.c ****   
 479:Middlewares/ST/STM32_USB_Host_Library/Core/Src/usbh_ctlreq.c ****   /* The UNICODE string descriptor is not NULL-terminated. The string length is
 480:Middlewares/ST/STM32_USB_Host_Library/Core/Src/usbh_ctlreq.c ****   computed by substracting two from the value of the first byte of the descriptor.
 481:Middlewares/ST/STM32_USB_Host_Library/Core/Src/usbh_ctlreq.c ****   */
 482:Middlewares/ST/STM32_USB_Host_Library/Core/Src/usbh_ctlreq.c ****   
 483:Middlewares/ST/STM32_USB_Host_Library/Core/Src/usbh_ctlreq.c ****   /* Check which is lower size, the Size of string or the length of bytes read 
 484:Middlewares/ST/STM32_USB_Host_Library/Core/Src/usbh_ctlreq.c ****   from the device */
 485:Middlewares/ST/STM32_USB_Host_Library/Core/Src/usbh_ctlreq.c ****   
 486:Middlewares/ST/STM32_USB_Host_Library/Core/Src/usbh_ctlreq.c ****   if ( psrc[1] == USB_DESC_TYPE_STRING)
 195              		.loc 1 486 0
 196 0000 4378     		ldrb	r3, [r0, #1]	@ zero_extendqisi2
 197 0002 032B     		cmp	r3, #3
 198 0004 14D1     		bne	.L12
 475:Middlewares/ST/STM32_USB_Host_Library/Core/Src/usbh_ctlreq.c ****   uint16_t strlength;
 199              		.loc 1 475 0
 200 0006 10B4     		push	{r4}
 201              	.LCFI2:
 202              		.cfi_def_cfa_offset 4
 203              		.cfi_offset 4, -4
 487:Middlewares/ST/STM32_USB_Host_Library/Core/Src/usbh_ctlreq.c ****   { /* Make sure the Descriptor is String Type */
ARM GAS  /tmp/cchT2erI.s 			page 13


 488:Middlewares/ST/STM32_USB_Host_Library/Core/Src/usbh_ctlreq.c ****     
 489:Middlewares/ST/STM32_USB_Host_Library/Core/Src/usbh_ctlreq.c ****     /* psrc[0] contains Size of Descriptor, subtract 2 to get the length of string */      
 490:Middlewares/ST/STM32_USB_Host_Library/Core/Src/usbh_ctlreq.c ****     strlength = ( ( (psrc[0]-2) <= length) ? (psrc[0]-2) :length); 
 204              		.loc 1 490 0
 205 0008 0378     		ldrb	r3, [r0]	@ zero_extendqisi2
 206 000a 023B     		subs	r3, r3, #2
 207 000c 9A42     		cmp	r2, r3
 208 000e A8BF     		it	ge
 209 0010 1A46     		movge	r2, r3
 210 0012 92B2     		uxth	r2, r2
 491:Middlewares/ST/STM32_USB_Host_Library/Core/Src/usbh_ctlreq.c ****     psrc += 2; /* Adjust the offset ignoring the String Len and Descriptor type */
 492:Middlewares/ST/STM32_USB_Host_Library/Core/Src/usbh_ctlreq.c ****     
 493:Middlewares/ST/STM32_USB_Host_Library/Core/Src/usbh_ctlreq.c ****     for (idx = 0; idx < strlength; idx+=2 )
 211              		.loc 1 493 0
 212 0014 0023     		movs	r3, #0
 213 0016 05E0     		b	.L8
 214              	.L9:
 494:Middlewares/ST/STM32_USB_Host_Library/Core/Src/usbh_ctlreq.c ****     {/* Copy Only the string and ignore the UNICODE ID, hence add the src */
 495:Middlewares/ST/STM32_USB_Host_Library/Core/Src/usbh_ctlreq.c ****       *pdest =  psrc[idx];
 215              		.loc 1 495 0 discriminator 3
 216 0018 C418     		adds	r4, r0, r3
 217 001a A478     		ldrb	r4, [r4, #2]	@ zero_extendqisi2
 218 001c 01F8014B 		strb	r4, [r1], #1
 493:Middlewares/ST/STM32_USB_Host_Library/Core/Src/usbh_ctlreq.c ****     {/* Copy Only the string and ignore the UNICODE ID, hence add the src */
 219              		.loc 1 493 0 discriminator 3
 220 0020 0233     		adds	r3, r3, #2
 221 0022 9BB2     		uxth	r3, r3
 222              	.L8:
 493:Middlewares/ST/STM32_USB_Host_Library/Core/Src/usbh_ctlreq.c ****     {/* Copy Only the string and ignore the UNICODE ID, hence add the src */
 223              		.loc 1 493 0 is_stmt 0 discriminator 1
 224 0024 9342     		cmp	r3, r2
 225 0026 F7D3     		bcc	.L9
 496:Middlewares/ST/STM32_USB_Host_Library/Core/Src/usbh_ctlreq.c ****       pdest++;
 497:Middlewares/ST/STM32_USB_Host_Library/Core/Src/usbh_ctlreq.c ****     }  
 498:Middlewares/ST/STM32_USB_Host_Library/Core/Src/usbh_ctlreq.c ****     *pdest = 0; /* mark end of string */  
 226              		.loc 1 498 0 is_stmt 1
 227 0028 0023     		movs	r3, #0
 228 002a 0B70     		strb	r3, [r1]
 499:Middlewares/ST/STM32_USB_Host_Library/Core/Src/usbh_ctlreq.c ****   }
 500:Middlewares/ST/STM32_USB_Host_Library/Core/Src/usbh_ctlreq.c **** }
 229              		.loc 1 500 0
 230 002c 5DF8044B 		ldr	r4, [sp], #4
 231              	.LCFI3:
 232              		.cfi_restore 4
 233              		.cfi_def_cfa_offset 0
 234              	.L12:
 235 0030 7047     		bx	lr
 236              		.cfi_endproc
 237              	.LFE135:
 239 0032 00BF     		.section	.text.USBH_HandleControl,"ax",%progbits
 240              		.align	2
 241              		.thumb
 242              		.thumb_func
 244              	USBH_HandleControl:
 245              	.LFB138:
 501:Middlewares/ST/STM32_USB_Host_Library/Core/Src/usbh_ctlreq.c **** 
 502:Middlewares/ST/STM32_USB_Host_Library/Core/Src/usbh_ctlreq.c **** /**
ARM GAS  /tmp/cchT2erI.s 			page 14


 503:Middlewares/ST/STM32_USB_Host_Library/Core/Src/usbh_ctlreq.c ****   * @brief  USBH_GetNextDesc 
 504:Middlewares/ST/STM32_USB_Host_Library/Core/Src/usbh_ctlreq.c ****   *         This function return the next descriptor header
 505:Middlewares/ST/STM32_USB_Host_Library/Core/Src/usbh_ctlreq.c ****   * @param  buf: Buffer where the cfg descriptor is available
 506:Middlewares/ST/STM32_USB_Host_Library/Core/Src/usbh_ctlreq.c ****   * @param  ptr: data pointer inside the cfg descriptor
 507:Middlewares/ST/STM32_USB_Host_Library/Core/Src/usbh_ctlreq.c ****   * @retval next header
 508:Middlewares/ST/STM32_USB_Host_Library/Core/Src/usbh_ctlreq.c ****   */
 509:Middlewares/ST/STM32_USB_Host_Library/Core/Src/usbh_ctlreq.c **** USBH_DescHeader_t  *USBH_GetNextDesc (uint8_t   *pbuf, uint16_t  *ptr)
 510:Middlewares/ST/STM32_USB_Host_Library/Core/Src/usbh_ctlreq.c **** {
 511:Middlewares/ST/STM32_USB_Host_Library/Core/Src/usbh_ctlreq.c ****   USBH_DescHeader_t  *pnext;
 512:Middlewares/ST/STM32_USB_Host_Library/Core/Src/usbh_ctlreq.c ****  
 513:Middlewares/ST/STM32_USB_Host_Library/Core/Src/usbh_ctlreq.c ****   *ptr += ((USBH_DescHeader_t *)pbuf)->bLength;  
 514:Middlewares/ST/STM32_USB_Host_Library/Core/Src/usbh_ctlreq.c ****   pnext = (USBH_DescHeader_t *)((uint8_t *)pbuf + \
 515:Middlewares/ST/STM32_USB_Host_Library/Core/Src/usbh_ctlreq.c ****          ((USBH_DescHeader_t *)pbuf)->bLength);
 516:Middlewares/ST/STM32_USB_Host_Library/Core/Src/usbh_ctlreq.c ****  
 517:Middlewares/ST/STM32_USB_Host_Library/Core/Src/usbh_ctlreq.c ****   return(pnext);
 518:Middlewares/ST/STM32_USB_Host_Library/Core/Src/usbh_ctlreq.c **** }
 519:Middlewares/ST/STM32_USB_Host_Library/Core/Src/usbh_ctlreq.c **** 
 520:Middlewares/ST/STM32_USB_Host_Library/Core/Src/usbh_ctlreq.c **** 
 521:Middlewares/ST/STM32_USB_Host_Library/Core/Src/usbh_ctlreq.c **** /**
 522:Middlewares/ST/STM32_USB_Host_Library/Core/Src/usbh_ctlreq.c ****   * @brief  USBH_CtlReq
 523:Middlewares/ST/STM32_USB_Host_Library/Core/Src/usbh_ctlreq.c ****   *         USBH_CtlReq sends a control request and provide the status after 
 524:Middlewares/ST/STM32_USB_Host_Library/Core/Src/usbh_ctlreq.c ****   *            completion of the request
 525:Middlewares/ST/STM32_USB_Host_Library/Core/Src/usbh_ctlreq.c ****   * @param  phost: Host Handle
 526:Middlewares/ST/STM32_USB_Host_Library/Core/Src/usbh_ctlreq.c ****   * @param  req: Setup Request Structure
 527:Middlewares/ST/STM32_USB_Host_Library/Core/Src/usbh_ctlreq.c ****   * @param  buff: data buffer address to store the response
 528:Middlewares/ST/STM32_USB_Host_Library/Core/Src/usbh_ctlreq.c ****   * @param  length: length of the response
 529:Middlewares/ST/STM32_USB_Host_Library/Core/Src/usbh_ctlreq.c ****   * @retval USBH Status
 530:Middlewares/ST/STM32_USB_Host_Library/Core/Src/usbh_ctlreq.c ****   */
 531:Middlewares/ST/STM32_USB_Host_Library/Core/Src/usbh_ctlreq.c **** USBH_StatusTypeDef USBH_CtlReq     (USBH_HandleTypeDef *phost, 
 532:Middlewares/ST/STM32_USB_Host_Library/Core/Src/usbh_ctlreq.c ****                              uint8_t             *buff,
 533:Middlewares/ST/STM32_USB_Host_Library/Core/Src/usbh_ctlreq.c ****                              uint16_t            length)
 534:Middlewares/ST/STM32_USB_Host_Library/Core/Src/usbh_ctlreq.c **** {
 535:Middlewares/ST/STM32_USB_Host_Library/Core/Src/usbh_ctlreq.c ****   USBH_StatusTypeDef status;
 536:Middlewares/ST/STM32_USB_Host_Library/Core/Src/usbh_ctlreq.c ****   status = USBH_BUSY;
 537:Middlewares/ST/STM32_USB_Host_Library/Core/Src/usbh_ctlreq.c ****   
 538:Middlewares/ST/STM32_USB_Host_Library/Core/Src/usbh_ctlreq.c ****   switch (phost->RequestState)
 539:Middlewares/ST/STM32_USB_Host_Library/Core/Src/usbh_ctlreq.c ****   {
 540:Middlewares/ST/STM32_USB_Host_Library/Core/Src/usbh_ctlreq.c ****   case CMD_SEND:
 541:Middlewares/ST/STM32_USB_Host_Library/Core/Src/usbh_ctlreq.c ****     /* Start a SETUP transfer */
 542:Middlewares/ST/STM32_USB_Host_Library/Core/Src/usbh_ctlreq.c ****     phost->Control.buff = buff; 
 543:Middlewares/ST/STM32_USB_Host_Library/Core/Src/usbh_ctlreq.c ****     phost->Control.length = length;
 544:Middlewares/ST/STM32_USB_Host_Library/Core/Src/usbh_ctlreq.c ****     phost->Control.state = CTRL_SETUP;  
 545:Middlewares/ST/STM32_USB_Host_Library/Core/Src/usbh_ctlreq.c ****     phost->RequestState = CMD_WAIT;
 546:Middlewares/ST/STM32_USB_Host_Library/Core/Src/usbh_ctlreq.c ****     status = USBH_BUSY;
 547:Middlewares/ST/STM32_USB_Host_Library/Core/Src/usbh_ctlreq.c **** #if (USBH_USE_OS == 1)
 548:Middlewares/ST/STM32_USB_Host_Library/Core/Src/usbh_ctlreq.c ****     osMessagePut ( phost->os_event, USBH_CONTROL_EVENT, 0);
 549:Middlewares/ST/STM32_USB_Host_Library/Core/Src/usbh_ctlreq.c **** #endif      
 550:Middlewares/ST/STM32_USB_Host_Library/Core/Src/usbh_ctlreq.c ****     break;
 551:Middlewares/ST/STM32_USB_Host_Library/Core/Src/usbh_ctlreq.c ****     
 552:Middlewares/ST/STM32_USB_Host_Library/Core/Src/usbh_ctlreq.c ****   case CMD_WAIT:
 553:Middlewares/ST/STM32_USB_Host_Library/Core/Src/usbh_ctlreq.c ****     status = USBH_HandleControl(phost);
 554:Middlewares/ST/STM32_USB_Host_Library/Core/Src/usbh_ctlreq.c ****      if (status == USBH_OK) 
 555:Middlewares/ST/STM32_USB_Host_Library/Core/Src/usbh_ctlreq.c ****     {
 556:Middlewares/ST/STM32_USB_Host_Library/Core/Src/usbh_ctlreq.c ****       /* Commands successfully sent and Response Received  */       
 557:Middlewares/ST/STM32_USB_Host_Library/Core/Src/usbh_ctlreq.c ****       phost->RequestState = CMD_SEND;
 558:Middlewares/ST/STM32_USB_Host_Library/Core/Src/usbh_ctlreq.c ****       phost->Control.state =CTRL_IDLE;  
 559:Middlewares/ST/STM32_USB_Host_Library/Core/Src/usbh_ctlreq.c ****       status = USBH_OK;      
ARM GAS  /tmp/cchT2erI.s 			page 15


 560:Middlewares/ST/STM32_USB_Host_Library/Core/Src/usbh_ctlreq.c ****     }
 561:Middlewares/ST/STM32_USB_Host_Library/Core/Src/usbh_ctlreq.c ****     else if  (status == USBH_FAIL)
 562:Middlewares/ST/STM32_USB_Host_Library/Core/Src/usbh_ctlreq.c ****     {
 563:Middlewares/ST/STM32_USB_Host_Library/Core/Src/usbh_ctlreq.c ****       /* Failure Mode */
 564:Middlewares/ST/STM32_USB_Host_Library/Core/Src/usbh_ctlreq.c ****       phost->RequestState = CMD_SEND;
 565:Middlewares/ST/STM32_USB_Host_Library/Core/Src/usbh_ctlreq.c ****       status = USBH_FAIL;
 566:Middlewares/ST/STM32_USB_Host_Library/Core/Src/usbh_ctlreq.c ****     }   
 567:Middlewares/ST/STM32_USB_Host_Library/Core/Src/usbh_ctlreq.c ****     break;
 568:Middlewares/ST/STM32_USB_Host_Library/Core/Src/usbh_ctlreq.c ****     
 569:Middlewares/ST/STM32_USB_Host_Library/Core/Src/usbh_ctlreq.c ****   default:
 570:Middlewares/ST/STM32_USB_Host_Library/Core/Src/usbh_ctlreq.c ****     break; 
 571:Middlewares/ST/STM32_USB_Host_Library/Core/Src/usbh_ctlreq.c ****   }
 572:Middlewares/ST/STM32_USB_Host_Library/Core/Src/usbh_ctlreq.c ****   return status;
 573:Middlewares/ST/STM32_USB_Host_Library/Core/Src/usbh_ctlreq.c **** }
 574:Middlewares/ST/STM32_USB_Host_Library/Core/Src/usbh_ctlreq.c **** 
 575:Middlewares/ST/STM32_USB_Host_Library/Core/Src/usbh_ctlreq.c **** /**
 576:Middlewares/ST/STM32_USB_Host_Library/Core/Src/usbh_ctlreq.c ****   * @brief  USBH_HandleControl
 577:Middlewares/ST/STM32_USB_Host_Library/Core/Src/usbh_ctlreq.c ****   *         Handles the USB control transfer state machine
 578:Middlewares/ST/STM32_USB_Host_Library/Core/Src/usbh_ctlreq.c ****   * @param  phost: Host Handle
 579:Middlewares/ST/STM32_USB_Host_Library/Core/Src/usbh_ctlreq.c ****   * @retval USBH Status
 580:Middlewares/ST/STM32_USB_Host_Library/Core/Src/usbh_ctlreq.c ****   */
 581:Middlewares/ST/STM32_USB_Host_Library/Core/Src/usbh_ctlreq.c **** static USBH_StatusTypeDef USBH_HandleControl (USBH_HandleTypeDef *phost)
 582:Middlewares/ST/STM32_USB_Host_Library/Core/Src/usbh_ctlreq.c **** {
 246              		.loc 1 582 0
 247              		.cfi_startproc
 248              		@ args = 0, pretend = 0, frame = 0
 249              		@ frame_needed = 0, uses_anonymous_args = 0
 250              	.LVL4:
 251 0000 30B5     		push	{r4, r5, lr}
 252              	.LCFI4:
 253              		.cfi_def_cfa_offset 12
 254              		.cfi_offset 4, -12
 255              		.cfi_offset 5, -8
 256              		.cfi_offset 14, -4
 257 0002 83B0     		sub	sp, sp, #12
 258              	.LCFI5:
 259              		.cfi_def_cfa_offset 24
 260 0004 0446     		mov	r4, r0
 261              	.LVL5:
 583:Middlewares/ST/STM32_USB_Host_Library/Core/Src/usbh_ctlreq.c ****   uint8_t direction;  
 584:Middlewares/ST/STM32_USB_Host_Library/Core/Src/usbh_ctlreq.c ****   USBH_StatusTypeDef status = USBH_BUSY;
 585:Middlewares/ST/STM32_USB_Host_Library/Core/Src/usbh_ctlreq.c ****   USBH_URBStateTypeDef URB_Status = USBH_URB_IDLE;
 586:Middlewares/ST/STM32_USB_Host_Library/Core/Src/usbh_ctlreq.c ****   
 587:Middlewares/ST/STM32_USB_Host_Library/Core/Src/usbh_ctlreq.c ****   switch (phost->Control.state)
 262              		.loc 1 587 0
 263 0006 037E     		ldrb	r3, [r0, #24]	@ zero_extendqisi2
 264 0008 013B     		subs	r3, r3, #1
 265 000a 0A2B     		cmp	r3, #10
 266 000c 00F2CE80 		bhi	.L40
 267 0010 DFE803F0 		tbb	[pc, r3]
 268              	.L16:
 269 0014 06       		.byte	(.L15-.L16)/2
 270 0015 0F       		.byte	(.L17-.L16)/2
 271 0016 31       		.byte	(.L18-.L16)/2
 272 0017 3D       		.byte	(.L19-.L16)/2
 273 0018 4E       		.byte	(.L20-.L16)/2
 274 0019 5C       		.byte	(.L21-.L16)/2
ARM GAS  /tmp/cchT2erI.s 			page 16


 275 001a 76       		.byte	(.L22-.L16)/2
 276 001b 82       		.byte	(.L23-.L16)/2
 277 001c 95       		.byte	(.L24-.L16)/2
 278 001d A3       		.byte	(.L25-.L16)/2
 279 001e B8       		.byte	(.L26-.L16)/2
 280 001f 00       		.p2align 1
 281              	.L15:
 588:Middlewares/ST/STM32_USB_Host_Library/Core/Src/usbh_ctlreq.c ****   {
 589:Middlewares/ST/STM32_USB_Host_Library/Core/Src/usbh_ctlreq.c ****   case CTRL_SETUP:
 590:Middlewares/ST/STM32_USB_Host_Library/Core/Src/usbh_ctlreq.c ****     /* send a SETUP packet */
 591:Middlewares/ST/STM32_USB_Host_Library/Core/Src/usbh_ctlreq.c ****     USBH_CtlSendSetup     (phost, 
 282              		.loc 1 591 0
 283 0020 04F11001 		add	r1, r4, #16
 284 0024 6279     		ldrb	r2, [r4, #5]	@ zero_extendqisi2
 285 0026 FFF7FEFF 		bl	USBH_CtlSendSetup
 286              	.LVL6:
 592:Middlewares/ST/STM32_USB_Host_Library/Core/Src/usbh_ctlreq.c **** 	                   (uint8_t *)phost->Control.setup.d8 , 
 593:Middlewares/ST/STM32_USB_Host_Library/Core/Src/usbh_ctlreq.c **** 	                   phost->Control.pipe_out); 
 594:Middlewares/ST/STM32_USB_Host_Library/Core/Src/usbh_ctlreq.c ****     
 595:Middlewares/ST/STM32_USB_Host_Library/Core/Src/usbh_ctlreq.c ****     phost->Control.state = CTRL_SETUP_WAIT; 
 287              		.loc 1 595 0
 288 002a 0223     		movs	r3, #2
 289 002c 2376     		strb	r3, [r4, #24]
 584:Middlewares/ST/STM32_USB_Host_Library/Core/Src/usbh_ctlreq.c ****   USBH_URBStateTypeDef URB_Status = USBH_URB_IDLE;
 290              		.loc 1 584 0
 291 002e 0120     		movs	r0, #1
 596:Middlewares/ST/STM32_USB_Host_Library/Core/Src/usbh_ctlreq.c ****     break; 
 292              		.loc 1 596 0
 293 0030 C9E0     		b	.L14
 294              	.LVL7:
 295              	.L17:
 597:Middlewares/ST/STM32_USB_Host_Library/Core/Src/usbh_ctlreq.c ****     
 598:Middlewares/ST/STM32_USB_Host_Library/Core/Src/usbh_ctlreq.c ****   case CTRL_SETUP_WAIT:
 599:Middlewares/ST/STM32_USB_Host_Library/Core/Src/usbh_ctlreq.c ****     
 600:Middlewares/ST/STM32_USB_Host_Library/Core/Src/usbh_ctlreq.c ****     URB_Status = USBH_LL_GetURBState(phost, phost->Control.pipe_out); 
 296              		.loc 1 600 0
 297 0032 6179     		ldrb	r1, [r4, #5]	@ zero_extendqisi2
 298 0034 FFF7FEFF 		bl	USBH_LL_GetURBState
 299              	.LVL8:
 601:Middlewares/ST/STM32_USB_Host_Library/Core/Src/usbh_ctlreq.c ****     /* case SETUP packet sent successfully */
 602:Middlewares/ST/STM32_USB_Host_Library/Core/Src/usbh_ctlreq.c ****     if(URB_Status == USBH_URB_DONE)
 300              		.loc 1 602 0
 301 0038 0128     		cmp	r0, #1
 302 003a 15D1     		bne	.L27
 603:Middlewares/ST/STM32_USB_Host_Library/Core/Src/usbh_ctlreq.c ****     { 
 604:Middlewares/ST/STM32_USB_Host_Library/Core/Src/usbh_ctlreq.c ****       direction = (phost->Control.setup.b.bmRequestType & USB_REQ_DIR_MASK);
 303              		.loc 1 604 0
 304 003c 237C     		ldrb	r3, [r4, #16]	@ zero_extendqisi2
 305 003e 03F08003 		and	r3, r3, #128
 306              	.LVL9:
 605:Middlewares/ST/STM32_USB_Host_Library/Core/Src/usbh_ctlreq.c ****       
 606:Middlewares/ST/STM32_USB_Host_Library/Core/Src/usbh_ctlreq.c ****       /* check if there is a data stage */
 607:Middlewares/ST/STM32_USB_Host_Library/Core/Src/usbh_ctlreq.c ****       if (phost->Control.setup.b.wLength.w != 0 )
 307              		.loc 1 607 0
 308 0042 E28A     		ldrh	r2, [r4, #22]
 309 0044 3AB1     		cbz	r2, .L28
 608:Middlewares/ST/STM32_USB_Host_Library/Core/Src/usbh_ctlreq.c ****       {        
ARM GAS  /tmp/cchT2erI.s 			page 17


 609:Middlewares/ST/STM32_USB_Host_Library/Core/Src/usbh_ctlreq.c ****         if (direction == USB_D2H)
 310              		.loc 1 609 0
 311 0046 13B1     		cbz	r3, .L29
 610:Middlewares/ST/STM32_USB_Host_Library/Core/Src/usbh_ctlreq.c ****         {
 611:Middlewares/ST/STM32_USB_Host_Library/Core/Src/usbh_ctlreq.c ****           /* Data Direction is IN */
 612:Middlewares/ST/STM32_USB_Host_Library/Core/Src/usbh_ctlreq.c ****           phost->Control.state = CTRL_DATA_IN;
 312              		.loc 1 612 0
 313 0048 0323     		movs	r3, #3
 314              	.LVL10:
 315 004a 2376     		strb	r3, [r4, #24]
 316 004c BBE0     		b	.L14
 317              	.LVL11:
 318              	.L29:
 613:Middlewares/ST/STM32_USB_Host_Library/Core/Src/usbh_ctlreq.c ****         }
 614:Middlewares/ST/STM32_USB_Host_Library/Core/Src/usbh_ctlreq.c ****         else
 615:Middlewares/ST/STM32_USB_Host_Library/Core/Src/usbh_ctlreq.c ****         {
 616:Middlewares/ST/STM32_USB_Host_Library/Core/Src/usbh_ctlreq.c ****           /* Data Direction is OUT */
 617:Middlewares/ST/STM32_USB_Host_Library/Core/Src/usbh_ctlreq.c ****           phost->Control.state = CTRL_DATA_OUT;
 319              		.loc 1 617 0
 320 004e 0523     		movs	r3, #5
 321              	.LVL12:
 322 0050 2376     		strb	r3, [r4, #24]
 584:Middlewares/ST/STM32_USB_Host_Library/Core/Src/usbh_ctlreq.c ****   USBH_URBStateTypeDef URB_Status = USBH_URB_IDLE;
 323              		.loc 1 584 0
 324 0052 0120     		movs	r0, #1
 325              	.LVL13:
 326 0054 B7E0     		b	.L14
 327              	.LVL14:
 328              	.L28:
 618:Middlewares/ST/STM32_USB_Host_Library/Core/Src/usbh_ctlreq.c ****         } 
 619:Middlewares/ST/STM32_USB_Host_Library/Core/Src/usbh_ctlreq.c ****       }
 620:Middlewares/ST/STM32_USB_Host_Library/Core/Src/usbh_ctlreq.c ****       /* No DATA stage */
 621:Middlewares/ST/STM32_USB_Host_Library/Core/Src/usbh_ctlreq.c ****       else
 622:Middlewares/ST/STM32_USB_Host_Library/Core/Src/usbh_ctlreq.c ****       {
 623:Middlewares/ST/STM32_USB_Host_Library/Core/Src/usbh_ctlreq.c ****         /* If there is No Data Transfer Stage */
 624:Middlewares/ST/STM32_USB_Host_Library/Core/Src/usbh_ctlreq.c ****         if (direction == USB_D2H)
 329              		.loc 1 624 0
 330 0056 1BB1     		cbz	r3, .L30
 625:Middlewares/ST/STM32_USB_Host_Library/Core/Src/usbh_ctlreq.c ****         {
 626:Middlewares/ST/STM32_USB_Host_Library/Core/Src/usbh_ctlreq.c ****           /* Data Direction is IN */
 627:Middlewares/ST/STM32_USB_Host_Library/Core/Src/usbh_ctlreq.c ****           phost->Control.state = CTRL_STATUS_OUT;
 331              		.loc 1 627 0
 332 0058 0923     		movs	r3, #9
 333              	.LVL15:
 334 005a 2376     		strb	r3, [r4, #24]
 584:Middlewares/ST/STM32_USB_Host_Library/Core/Src/usbh_ctlreq.c ****   USBH_URBStateTypeDef URB_Status = USBH_URB_IDLE;
 335              		.loc 1 584 0
 336 005c 0120     		movs	r0, #1
 337              	.LVL16:
 338 005e B2E0     		b	.L14
 339              	.LVL17:
 340              	.L30:
 628:Middlewares/ST/STM32_USB_Host_Library/Core/Src/usbh_ctlreq.c ****         }
 629:Middlewares/ST/STM32_USB_Host_Library/Core/Src/usbh_ctlreq.c ****         else
 630:Middlewares/ST/STM32_USB_Host_Library/Core/Src/usbh_ctlreq.c ****         {
 631:Middlewares/ST/STM32_USB_Host_Library/Core/Src/usbh_ctlreq.c ****           /* Data Direction is OUT */
 632:Middlewares/ST/STM32_USB_Host_Library/Core/Src/usbh_ctlreq.c ****           phost->Control.state = CTRL_STATUS_IN;
ARM GAS  /tmp/cchT2erI.s 			page 18


 341              		.loc 1 632 0
 342 0060 0723     		movs	r3, #7
 343              	.LVL18:
 344 0062 2376     		strb	r3, [r4, #24]
 584:Middlewares/ST/STM32_USB_Host_Library/Core/Src/usbh_ctlreq.c ****   USBH_URBStateTypeDef URB_Status = USBH_URB_IDLE;
 345              		.loc 1 584 0
 346 0064 0120     		movs	r0, #1
 347              	.LVL19:
 348 0066 AEE0     		b	.L14
 349              	.LVL20:
 350              	.L27:
 633:Middlewares/ST/STM32_USB_Host_Library/Core/Src/usbh_ctlreq.c ****         } 
 634:Middlewares/ST/STM32_USB_Host_Library/Core/Src/usbh_ctlreq.c ****       }          
 635:Middlewares/ST/STM32_USB_Host_Library/Core/Src/usbh_ctlreq.c **** #if (USBH_USE_OS == 1)
 636:Middlewares/ST/STM32_USB_Host_Library/Core/Src/usbh_ctlreq.c ****       osMessagePut ( phost->os_event, USBH_CONTROL_EVENT, 0);
 637:Middlewares/ST/STM32_USB_Host_Library/Core/Src/usbh_ctlreq.c **** #endif
 638:Middlewares/ST/STM32_USB_Host_Library/Core/Src/usbh_ctlreq.c ****     }
 639:Middlewares/ST/STM32_USB_Host_Library/Core/Src/usbh_ctlreq.c ****     else if(URB_Status == USBH_URB_ERROR)
 351              		.loc 1 639 0
 352 0068 0428     		cmp	r0, #4
 353 006a 40F0A180 		bne	.L41
 640:Middlewares/ST/STM32_USB_Host_Library/Core/Src/usbh_ctlreq.c ****     {
 641:Middlewares/ST/STM32_USB_Host_Library/Core/Src/usbh_ctlreq.c ****       phost->Control.state = CTRL_ERROR;
 354              		.loc 1 641 0
 355 006e 0B23     		movs	r3, #11
 356 0070 2376     		strb	r3, [r4, #24]
 584:Middlewares/ST/STM32_USB_Host_Library/Core/Src/usbh_ctlreq.c ****   USBH_URBStateTypeDef URB_Status = USBH_URB_IDLE;
 357              		.loc 1 584 0
 358 0072 0120     		movs	r0, #1
 359              	.LVL21:
 360 0074 A7E0     		b	.L14
 361              	.LVL22:
 362              	.L18:
 642:Middlewares/ST/STM32_USB_Host_Library/Core/Src/usbh_ctlreq.c **** #if (USBH_USE_OS == 1)
 643:Middlewares/ST/STM32_USB_Host_Library/Core/Src/usbh_ctlreq.c ****     osMessagePut ( phost->os_event, USBH_CONTROL_EVENT, 0);
 644:Middlewares/ST/STM32_USB_Host_Library/Core/Src/usbh_ctlreq.c **** #endif      
 645:Middlewares/ST/STM32_USB_Host_Library/Core/Src/usbh_ctlreq.c ****     }    
 646:Middlewares/ST/STM32_USB_Host_Library/Core/Src/usbh_ctlreq.c ****     break;
 647:Middlewares/ST/STM32_USB_Host_Library/Core/Src/usbh_ctlreq.c ****     
 648:Middlewares/ST/STM32_USB_Host_Library/Core/Src/usbh_ctlreq.c ****   case CTRL_DATA_IN:  
 649:Middlewares/ST/STM32_USB_Host_Library/Core/Src/usbh_ctlreq.c ****     /* Issue an IN token */ 
 650:Middlewares/ST/STM32_USB_Host_Library/Core/Src/usbh_ctlreq.c ****      phost->Control.timer = phost->Timer;
 363              		.loc 1 650 0
 364 0076 D0F8B833 		ldr	r3, [r0, #952]
 365 007a C381     		strh	r3, [r0, #14]	@ movhi
 651:Middlewares/ST/STM32_USB_Host_Library/Core/Src/usbh_ctlreq.c ****     USBH_CtlReceiveData(phost,
 366              		.loc 1 651 0
 367 007c A168     		ldr	r1, [r4, #8]
 368 007e A289     		ldrh	r2, [r4, #12]
 369 0080 2379     		ldrb	r3, [r4, #4]	@ zero_extendqisi2
 370 0082 FFF7FEFF 		bl	USBH_CtlReceiveData
 371              	.LVL23:
 652:Middlewares/ST/STM32_USB_Host_Library/Core/Src/usbh_ctlreq.c ****                         phost->Control.buff, 
 653:Middlewares/ST/STM32_USB_Host_Library/Core/Src/usbh_ctlreq.c ****                         phost->Control.length,
 654:Middlewares/ST/STM32_USB_Host_Library/Core/Src/usbh_ctlreq.c ****                         phost->Control.pipe_in);
 655:Middlewares/ST/STM32_USB_Host_Library/Core/Src/usbh_ctlreq.c ****  
 656:Middlewares/ST/STM32_USB_Host_Library/Core/Src/usbh_ctlreq.c ****     phost->Control.state = CTRL_DATA_IN_WAIT;
ARM GAS  /tmp/cchT2erI.s 			page 19


 372              		.loc 1 656 0
 373 0086 0423     		movs	r3, #4
 374 0088 2376     		strb	r3, [r4, #24]
 584:Middlewares/ST/STM32_USB_Host_Library/Core/Src/usbh_ctlreq.c ****   USBH_URBStateTypeDef URB_Status = USBH_URB_IDLE;
 375              		.loc 1 584 0
 376 008a 0120     		movs	r0, #1
 657:Middlewares/ST/STM32_USB_Host_Library/Core/Src/usbh_ctlreq.c ****     break;    
 377              		.loc 1 657 0
 378 008c 9BE0     		b	.L14
 379              	.LVL24:
 380              	.L19:
 658:Middlewares/ST/STM32_USB_Host_Library/Core/Src/usbh_ctlreq.c ****     
 659:Middlewares/ST/STM32_USB_Host_Library/Core/Src/usbh_ctlreq.c ****   case CTRL_DATA_IN_WAIT:
 660:Middlewares/ST/STM32_USB_Host_Library/Core/Src/usbh_ctlreq.c ****     
 661:Middlewares/ST/STM32_USB_Host_Library/Core/Src/usbh_ctlreq.c ****     URB_Status = USBH_LL_GetURBState(phost , phost->Control.pipe_in); 
 381              		.loc 1 661 0
 382 008e 2179     		ldrb	r1, [r4, #4]	@ zero_extendqisi2
 383 0090 FFF7FEFF 		bl	USBH_LL_GetURBState
 384              	.LVL25:
 662:Middlewares/ST/STM32_USB_Host_Library/Core/Src/usbh_ctlreq.c ****     
 663:Middlewares/ST/STM32_USB_Host_Library/Core/Src/usbh_ctlreq.c ****     /* check is DATA packet transferred successfully */
 664:Middlewares/ST/STM32_USB_Host_Library/Core/Src/usbh_ctlreq.c ****     if  (URB_Status == USBH_URB_DONE)
 385              		.loc 1 664 0
 386 0094 0128     		cmp	r0, #1
 387 0096 01D1     		bne	.L31
 665:Middlewares/ST/STM32_USB_Host_Library/Core/Src/usbh_ctlreq.c ****     { 
 666:Middlewares/ST/STM32_USB_Host_Library/Core/Src/usbh_ctlreq.c ****       phost->Control.state = CTRL_STATUS_OUT;
 388              		.loc 1 666 0
 389 0098 0923     		movs	r3, #9
 390 009a 2376     		strb	r3, [r4, #24]
 391              	.L31:
 667:Middlewares/ST/STM32_USB_Host_Library/Core/Src/usbh_ctlreq.c **** #if (USBH_USE_OS == 1)
 668:Middlewares/ST/STM32_USB_Host_Library/Core/Src/usbh_ctlreq.c ****     osMessagePut ( phost->os_event, USBH_CONTROL_EVENT, 0);
 669:Middlewares/ST/STM32_USB_Host_Library/Core/Src/usbh_ctlreq.c **** #endif      
 670:Middlewares/ST/STM32_USB_Host_Library/Core/Src/usbh_ctlreq.c ****     }
 671:Middlewares/ST/STM32_USB_Host_Library/Core/Src/usbh_ctlreq.c ****    
 672:Middlewares/ST/STM32_USB_Host_Library/Core/Src/usbh_ctlreq.c ****     /* manage error cases*/
 673:Middlewares/ST/STM32_USB_Host_Library/Core/Src/usbh_ctlreq.c ****     if  (URB_Status == USBH_URB_STALL) 
 392              		.loc 1 673 0
 393 009c 0528     		cmp	r0, #5
 394 009e 00F08980 		beq	.L42
 674:Middlewares/ST/STM32_USB_Host_Library/Core/Src/usbh_ctlreq.c ****     { 
 675:Middlewares/ST/STM32_USB_Host_Library/Core/Src/usbh_ctlreq.c ****       /* In stall case, return to previous machine state*/
 676:Middlewares/ST/STM32_USB_Host_Library/Core/Src/usbh_ctlreq.c ****       status = USBH_NOT_SUPPORTED;
 677:Middlewares/ST/STM32_USB_Host_Library/Core/Src/usbh_ctlreq.c **** #if (USBH_USE_OS == 1)
 678:Middlewares/ST/STM32_USB_Host_Library/Core/Src/usbh_ctlreq.c ****     osMessagePut ( phost->os_event, USBH_CONTROL_EVENT, 0);
 679:Middlewares/ST/STM32_USB_Host_Library/Core/Src/usbh_ctlreq.c **** #endif      
 680:Middlewares/ST/STM32_USB_Host_Library/Core/Src/usbh_ctlreq.c ****     }   
 681:Middlewares/ST/STM32_USB_Host_Library/Core/Src/usbh_ctlreq.c ****     else if (URB_Status == USBH_URB_ERROR)
 395              		.loc 1 681 0
 396 00a2 0428     		cmp	r0, #4
 397 00a4 40F08880 		bne	.L43
 682:Middlewares/ST/STM32_USB_Host_Library/Core/Src/usbh_ctlreq.c ****     {
 683:Middlewares/ST/STM32_USB_Host_Library/Core/Src/usbh_ctlreq.c ****       /* Device error */
 684:Middlewares/ST/STM32_USB_Host_Library/Core/Src/usbh_ctlreq.c ****       phost->Control.state = CTRL_ERROR;  
 398              		.loc 1 684 0
 399 00a8 0B23     		movs	r3, #11
ARM GAS  /tmp/cchT2erI.s 			page 20


 400 00aa 2376     		strb	r3, [r4, #24]
 584:Middlewares/ST/STM32_USB_Host_Library/Core/Src/usbh_ctlreq.c ****   USBH_URBStateTypeDef URB_Status = USBH_URB_IDLE;
 401              		.loc 1 584 0
 402 00ac 0120     		movs	r0, #1
 403              	.LVL26:
 404 00ae 8AE0     		b	.L14
 405              	.LVL27:
 406              	.L20:
 685:Middlewares/ST/STM32_USB_Host_Library/Core/Src/usbh_ctlreq.c **** #if (USBH_USE_OS == 1)
 686:Middlewares/ST/STM32_USB_Host_Library/Core/Src/usbh_ctlreq.c ****     osMessagePut ( phost->os_event, USBH_CONTROL_EVENT, 0);
 687:Middlewares/ST/STM32_USB_Host_Library/Core/Src/usbh_ctlreq.c **** #endif      
 688:Middlewares/ST/STM32_USB_Host_Library/Core/Src/usbh_ctlreq.c ****     }
 689:Middlewares/ST/STM32_USB_Host_Library/Core/Src/usbh_ctlreq.c ****     break;
 690:Middlewares/ST/STM32_USB_Host_Library/Core/Src/usbh_ctlreq.c ****     
 691:Middlewares/ST/STM32_USB_Host_Library/Core/Src/usbh_ctlreq.c ****   case CTRL_DATA_OUT:
 692:Middlewares/ST/STM32_USB_Host_Library/Core/Src/usbh_ctlreq.c ****     
 693:Middlewares/ST/STM32_USB_Host_Library/Core/Src/usbh_ctlreq.c ****     USBH_CtlSendData (phost,
 407              		.loc 1 693 0
 408 00b0 8289     		ldrh	r2, [r0, #12]
 409 00b2 4379     		ldrb	r3, [r0, #5]	@ zero_extendqisi2
 410 00b4 0125     		movs	r5, #1
 411 00b6 0095     		str	r5, [sp]
 412 00b8 A168     		ldr	r1, [r4, #8]
 413 00ba FFF7FEFF 		bl	USBH_CtlSendData
 414              	.LVL28:
 694:Middlewares/ST/STM32_USB_Host_Library/Core/Src/usbh_ctlreq.c ****                       phost->Control.buff, 
 695:Middlewares/ST/STM32_USB_Host_Library/Core/Src/usbh_ctlreq.c ****                       phost->Control.length , 
 696:Middlewares/ST/STM32_USB_Host_Library/Core/Src/usbh_ctlreq.c ****                       phost->Control.pipe_out,
 697:Middlewares/ST/STM32_USB_Host_Library/Core/Src/usbh_ctlreq.c ****                       1);
 698:Middlewares/ST/STM32_USB_Host_Library/Core/Src/usbh_ctlreq.c ****      phost->Control.timer = phost->Timer;
 415              		.loc 1 698 0
 416 00be D4F8B833 		ldr	r3, [r4, #952]
 417 00c2 E381     		strh	r3, [r4, #14]	@ movhi
 699:Middlewares/ST/STM32_USB_Host_Library/Core/Src/usbh_ctlreq.c ****     phost->Control.state = CTRL_DATA_OUT_WAIT;
 418              		.loc 1 699 0
 419 00c4 0623     		movs	r3, #6
 420 00c6 2376     		strb	r3, [r4, #24]
 584:Middlewares/ST/STM32_USB_Host_Library/Core/Src/usbh_ctlreq.c ****   USBH_URBStateTypeDef URB_Status = USBH_URB_IDLE;
 421              		.loc 1 584 0
 422 00c8 2846     		mov	r0, r5
 700:Middlewares/ST/STM32_USB_Host_Library/Core/Src/usbh_ctlreq.c ****     break;
 423              		.loc 1 700 0
 424 00ca 7CE0     		b	.L14
 425              	.LVL29:
 426              	.L21:
 701:Middlewares/ST/STM32_USB_Host_Library/Core/Src/usbh_ctlreq.c ****     
 702:Middlewares/ST/STM32_USB_Host_Library/Core/Src/usbh_ctlreq.c ****   case CTRL_DATA_OUT_WAIT:
 703:Middlewares/ST/STM32_USB_Host_Library/Core/Src/usbh_ctlreq.c ****     
 704:Middlewares/ST/STM32_USB_Host_Library/Core/Src/usbh_ctlreq.c ****     URB_Status = USBH_LL_GetURBState(phost , phost->Control.pipe_out);     
 427              		.loc 1 704 0
 428 00cc 6179     		ldrb	r1, [r4, #5]	@ zero_extendqisi2
 429 00ce FFF7FEFF 		bl	USBH_LL_GetURBState
 430              	.LVL30:
 705:Middlewares/ST/STM32_USB_Host_Library/Core/Src/usbh_ctlreq.c ****     
 706:Middlewares/ST/STM32_USB_Host_Library/Core/Src/usbh_ctlreq.c ****     if  (URB_Status == USBH_URB_DONE)
 431              		.loc 1 706 0
 432 00d2 0128     		cmp	r0, #1
ARM GAS  /tmp/cchT2erI.s 			page 21


 433 00d4 02D1     		bne	.L32
 707:Middlewares/ST/STM32_USB_Host_Library/Core/Src/usbh_ctlreq.c ****     { /* If the Setup Pkt is sent successful, then change the state */
 708:Middlewares/ST/STM32_USB_Host_Library/Core/Src/usbh_ctlreq.c ****       phost->Control.state = CTRL_STATUS_IN;
 434              		.loc 1 708 0
 435 00d6 0723     		movs	r3, #7
 436 00d8 2376     		strb	r3, [r4, #24]
 437 00da 74E0     		b	.L14
 438              	.L32:
 709:Middlewares/ST/STM32_USB_Host_Library/Core/Src/usbh_ctlreq.c **** #if (USBH_USE_OS == 1)
 710:Middlewares/ST/STM32_USB_Host_Library/Core/Src/usbh_ctlreq.c ****       osMessagePut ( phost->os_event, USBH_CONTROL_EVENT, 0);
 711:Middlewares/ST/STM32_USB_Host_Library/Core/Src/usbh_ctlreq.c **** #endif      
 712:Middlewares/ST/STM32_USB_Host_Library/Core/Src/usbh_ctlreq.c ****     }
 713:Middlewares/ST/STM32_USB_Host_Library/Core/Src/usbh_ctlreq.c ****     
 714:Middlewares/ST/STM32_USB_Host_Library/Core/Src/usbh_ctlreq.c ****     /* handle error cases */
 715:Middlewares/ST/STM32_USB_Host_Library/Core/Src/usbh_ctlreq.c ****     else if  (URB_Status == USBH_URB_STALL) 
 439              		.loc 1 715 0
 440 00dc 0528     		cmp	r0, #5
 441 00de 03D1     		bne	.L33
 716:Middlewares/ST/STM32_USB_Host_Library/Core/Src/usbh_ctlreq.c ****     { 
 717:Middlewares/ST/STM32_USB_Host_Library/Core/Src/usbh_ctlreq.c ****       /* In stall case, return to previous machine state*/
 718:Middlewares/ST/STM32_USB_Host_Library/Core/Src/usbh_ctlreq.c ****       phost->Control.state = CTRL_STALLED; 
 442              		.loc 1 718 0
 443 00e0 0C23     		movs	r3, #12
 444 00e2 2376     		strb	r3, [r4, #24]
 445              	.LVL31:
 719:Middlewares/ST/STM32_USB_Host_Library/Core/Src/usbh_ctlreq.c ****       status = USBH_NOT_SUPPORTED;
 446              		.loc 1 719 0
 447 00e4 0320     		movs	r0, #3
 448              	.LVL32:
 449 00e6 6EE0     		b	.L14
 450              	.LVL33:
 451              	.L33:
 720:Middlewares/ST/STM32_USB_Host_Library/Core/Src/usbh_ctlreq.c **** #if (USBH_USE_OS == 1)
 721:Middlewares/ST/STM32_USB_Host_Library/Core/Src/usbh_ctlreq.c ****     osMessagePut ( phost->os_event, USBH_CONTROL_EVENT, 0);
 722:Middlewares/ST/STM32_USB_Host_Library/Core/Src/usbh_ctlreq.c **** #endif      
 723:Middlewares/ST/STM32_USB_Host_Library/Core/Src/usbh_ctlreq.c ****     } 
 724:Middlewares/ST/STM32_USB_Host_Library/Core/Src/usbh_ctlreq.c ****     else if  (URB_Status == USBH_URB_NOTREADY)
 452              		.loc 1 724 0
 453 00e8 0228     		cmp	r0, #2
 454 00ea 03D1     		bne	.L34
 725:Middlewares/ST/STM32_USB_Host_Library/Core/Src/usbh_ctlreq.c ****     { 
 726:Middlewares/ST/STM32_USB_Host_Library/Core/Src/usbh_ctlreq.c ****       /* Nack received from device */
 727:Middlewares/ST/STM32_USB_Host_Library/Core/Src/usbh_ctlreq.c ****       phost->Control.state = CTRL_DATA_OUT;
 455              		.loc 1 727 0
 456 00ec 0523     		movs	r3, #5
 457 00ee 2376     		strb	r3, [r4, #24]
 584:Middlewares/ST/STM32_USB_Host_Library/Core/Src/usbh_ctlreq.c ****   USBH_URBStateTypeDef URB_Status = USBH_URB_IDLE;
 458              		.loc 1 584 0
 459 00f0 0120     		movs	r0, #1
 460              	.LVL34:
 461 00f2 68E0     		b	.L14
 462              	.LVL35:
 463              	.L34:
 728:Middlewares/ST/STM32_USB_Host_Library/Core/Src/usbh_ctlreq.c ****       
 729:Middlewares/ST/STM32_USB_Host_Library/Core/Src/usbh_ctlreq.c **** #if (USBH_USE_OS == 1)
 730:Middlewares/ST/STM32_USB_Host_Library/Core/Src/usbh_ctlreq.c ****     osMessagePut ( phost->os_event, USBH_CONTROL_EVENT, 0);
 731:Middlewares/ST/STM32_USB_Host_Library/Core/Src/usbh_ctlreq.c **** #endif      
ARM GAS  /tmp/cchT2erI.s 			page 22


 732:Middlewares/ST/STM32_USB_Host_Library/Core/Src/usbh_ctlreq.c ****     }    
 733:Middlewares/ST/STM32_USB_Host_Library/Core/Src/usbh_ctlreq.c ****     else if (URB_Status == USBH_URB_ERROR)
 464              		.loc 1 733 0
 465 00f4 0428     		cmp	r0, #4
 466 00f6 61D1     		bne	.L44
 734:Middlewares/ST/STM32_USB_Host_Library/Core/Src/usbh_ctlreq.c ****     {
 735:Middlewares/ST/STM32_USB_Host_Library/Core/Src/usbh_ctlreq.c ****       /* device error */
 736:Middlewares/ST/STM32_USB_Host_Library/Core/Src/usbh_ctlreq.c ****       phost->Control.state = CTRL_ERROR;  
 467              		.loc 1 736 0
 468 00f8 0B23     		movs	r3, #11
 469 00fa 2376     		strb	r3, [r4, #24]
 470              	.LVL36:
 737:Middlewares/ST/STM32_USB_Host_Library/Core/Src/usbh_ctlreq.c ****       status = USBH_FAIL;    
 471              		.loc 1 737 0
 472 00fc 0220     		movs	r0, #2
 473              	.LVL37:
 474 00fe 62E0     		b	.L14
 475              	.LVL38:
 476              	.L22:
 738:Middlewares/ST/STM32_USB_Host_Library/Core/Src/usbh_ctlreq.c ****       
 739:Middlewares/ST/STM32_USB_Host_Library/Core/Src/usbh_ctlreq.c **** #if (USBH_USE_OS == 1)
 740:Middlewares/ST/STM32_USB_Host_Library/Core/Src/usbh_ctlreq.c ****     osMessagePut ( phost->os_event, USBH_CONTROL_EVENT, 0);
 741:Middlewares/ST/STM32_USB_Host_Library/Core/Src/usbh_ctlreq.c **** #endif      
 742:Middlewares/ST/STM32_USB_Host_Library/Core/Src/usbh_ctlreq.c ****     } 
 743:Middlewares/ST/STM32_USB_Host_Library/Core/Src/usbh_ctlreq.c ****     break;
 744:Middlewares/ST/STM32_USB_Host_Library/Core/Src/usbh_ctlreq.c ****     
 745:Middlewares/ST/STM32_USB_Host_Library/Core/Src/usbh_ctlreq.c ****     
 746:Middlewares/ST/STM32_USB_Host_Library/Core/Src/usbh_ctlreq.c ****   case CTRL_STATUS_IN:
 747:Middlewares/ST/STM32_USB_Host_Library/Core/Src/usbh_ctlreq.c ****     /* Send 0 bytes out packet */
 748:Middlewares/ST/STM32_USB_Host_Library/Core/Src/usbh_ctlreq.c ****     USBH_CtlReceiveData (phost,
 477              		.loc 1 748 0
 478 0100 0021     		movs	r1, #0
 479 0102 0A46     		mov	r2, r1
 480 0104 2379     		ldrb	r3, [r4, #4]	@ zero_extendqisi2
 481 0106 FFF7FEFF 		bl	USBH_CtlReceiveData
 482              	.LVL39:
 749:Middlewares/ST/STM32_USB_Host_Library/Core/Src/usbh_ctlreq.c ****                          0,
 750:Middlewares/ST/STM32_USB_Host_Library/Core/Src/usbh_ctlreq.c ****                          0,
 751:Middlewares/ST/STM32_USB_Host_Library/Core/Src/usbh_ctlreq.c ****                          phost->Control.pipe_in);
 752:Middlewares/ST/STM32_USB_Host_Library/Core/Src/usbh_ctlreq.c ****     phost->Control.timer = phost->Timer;
 483              		.loc 1 752 0
 484 010a D4F8B833 		ldr	r3, [r4, #952]
 485 010e E381     		strh	r3, [r4, #14]	@ movhi
 753:Middlewares/ST/STM32_USB_Host_Library/Core/Src/usbh_ctlreq.c ****     phost->Control.state = CTRL_STATUS_IN_WAIT;
 486              		.loc 1 753 0
 487 0110 0823     		movs	r3, #8
 488 0112 2376     		strb	r3, [r4, #24]
 584:Middlewares/ST/STM32_USB_Host_Library/Core/Src/usbh_ctlreq.c ****   USBH_URBStateTypeDef URB_Status = USBH_URB_IDLE;
 489              		.loc 1 584 0
 490 0114 0120     		movs	r0, #1
 754:Middlewares/ST/STM32_USB_Host_Library/Core/Src/usbh_ctlreq.c ****     
 755:Middlewares/ST/STM32_USB_Host_Library/Core/Src/usbh_ctlreq.c ****     break;
 491              		.loc 1 755 0
 492 0116 56E0     		b	.L14
 493              	.LVL40:
 494              	.L23:
 756:Middlewares/ST/STM32_USB_Host_Library/Core/Src/usbh_ctlreq.c ****     
ARM GAS  /tmp/cchT2erI.s 			page 23


 757:Middlewares/ST/STM32_USB_Host_Library/Core/Src/usbh_ctlreq.c ****   case CTRL_STATUS_IN_WAIT:
 758:Middlewares/ST/STM32_USB_Host_Library/Core/Src/usbh_ctlreq.c ****     
 759:Middlewares/ST/STM32_USB_Host_Library/Core/Src/usbh_ctlreq.c ****     URB_Status = USBH_LL_GetURBState(phost , phost->Control.pipe_in); 
 495              		.loc 1 759 0
 496 0118 2179     		ldrb	r1, [r4, #4]	@ zero_extendqisi2
 497 011a FFF7FEFF 		bl	USBH_LL_GetURBState
 498              	.LVL41:
 760:Middlewares/ST/STM32_USB_Host_Library/Core/Src/usbh_ctlreq.c ****     
 761:Middlewares/ST/STM32_USB_Host_Library/Core/Src/usbh_ctlreq.c ****     if  ( URB_Status == USBH_URB_DONE)
 499              		.loc 1 761 0
 500 011e 0128     		cmp	r0, #1
 501 0120 03D1     		bne	.L35
 762:Middlewares/ST/STM32_USB_Host_Library/Core/Src/usbh_ctlreq.c ****     { /* Control transfers completed, Exit the State Machine */
 763:Middlewares/ST/STM32_USB_Host_Library/Core/Src/usbh_ctlreq.c ****       phost->Control.state = CTRL_COMPLETE;
 502              		.loc 1 763 0
 503 0122 0D23     		movs	r3, #13
 504 0124 2376     		strb	r3, [r4, #24]
 505              	.LVL42:
 764:Middlewares/ST/STM32_USB_Host_Library/Core/Src/usbh_ctlreq.c ****       status = USBH_OK;
 506              		.loc 1 764 0
 507 0126 0020     		movs	r0, #0
 508              	.LVL43:
 509 0128 4DE0     		b	.L14
 510              	.LVL44:
 511              	.L35:
 765:Middlewares/ST/STM32_USB_Host_Library/Core/Src/usbh_ctlreq.c **** #if (USBH_USE_OS == 1)
 766:Middlewares/ST/STM32_USB_Host_Library/Core/Src/usbh_ctlreq.c ****     osMessagePut ( phost->os_event, USBH_CONTROL_EVENT, 0);
 767:Middlewares/ST/STM32_USB_Host_Library/Core/Src/usbh_ctlreq.c **** #endif      
 768:Middlewares/ST/STM32_USB_Host_Library/Core/Src/usbh_ctlreq.c ****     }
 769:Middlewares/ST/STM32_USB_Host_Library/Core/Src/usbh_ctlreq.c ****     
 770:Middlewares/ST/STM32_USB_Host_Library/Core/Src/usbh_ctlreq.c ****     else if (URB_Status == USBH_URB_ERROR)
 512              		.loc 1 770 0
 513 012a 0428     		cmp	r0, #4
 514 012c 03D1     		bne	.L36
 771:Middlewares/ST/STM32_USB_Host_Library/Core/Src/usbh_ctlreq.c ****     {
 772:Middlewares/ST/STM32_USB_Host_Library/Core/Src/usbh_ctlreq.c ****       phost->Control.state = CTRL_ERROR;
 515              		.loc 1 772 0
 516 012e 0B23     		movs	r3, #11
 517 0130 2376     		strb	r3, [r4, #24]
 584:Middlewares/ST/STM32_USB_Host_Library/Core/Src/usbh_ctlreq.c ****   USBH_URBStateTypeDef URB_Status = USBH_URB_IDLE;
 518              		.loc 1 584 0
 519 0132 0120     		movs	r0, #1
 520              	.LVL45:
 521 0134 47E0     		b	.L14
 522              	.LVL46:
 523              	.L36:
 773:Middlewares/ST/STM32_USB_Host_Library/Core/Src/usbh_ctlreq.c **** #if (USBH_USE_OS == 1)
 774:Middlewares/ST/STM32_USB_Host_Library/Core/Src/usbh_ctlreq.c ****     osMessagePut ( phost->os_event, USBH_CONTROL_EVENT, 0);
 775:Middlewares/ST/STM32_USB_Host_Library/Core/Src/usbh_ctlreq.c **** #endif      
 776:Middlewares/ST/STM32_USB_Host_Library/Core/Src/usbh_ctlreq.c ****     }
 777:Middlewares/ST/STM32_USB_Host_Library/Core/Src/usbh_ctlreq.c ****      else if(URB_Status == USBH_URB_STALL)
 524              		.loc 1 777 0
 525 0136 0528     		cmp	r0, #5
 526 0138 42D0     		beq	.L45
 584:Middlewares/ST/STM32_USB_Host_Library/Core/Src/usbh_ctlreq.c ****   USBH_URBStateTypeDef URB_Status = USBH_URB_IDLE;
 527              		.loc 1 584 0
 528 013a 0120     		movs	r0, #1
ARM GAS  /tmp/cchT2erI.s 			page 24


 529              	.LVL47:
 530 013c 43E0     		b	.L14
 531              	.LVL48:
 532              	.L24:
 778:Middlewares/ST/STM32_USB_Host_Library/Core/Src/usbh_ctlreq.c ****     {
 779:Middlewares/ST/STM32_USB_Host_Library/Core/Src/usbh_ctlreq.c ****       /* Control transfers completed, Exit the State Machine */
 780:Middlewares/ST/STM32_USB_Host_Library/Core/Src/usbh_ctlreq.c ****       status = USBH_NOT_SUPPORTED;
 781:Middlewares/ST/STM32_USB_Host_Library/Core/Src/usbh_ctlreq.c ****       
 782:Middlewares/ST/STM32_USB_Host_Library/Core/Src/usbh_ctlreq.c **** #if (USBH_USE_OS == 1)
 783:Middlewares/ST/STM32_USB_Host_Library/Core/Src/usbh_ctlreq.c ****     osMessagePut ( phost->os_event, USBH_CONTROL_EVENT, 0);
 784:Middlewares/ST/STM32_USB_Host_Library/Core/Src/usbh_ctlreq.c **** #endif      
 785:Middlewares/ST/STM32_USB_Host_Library/Core/Src/usbh_ctlreq.c ****     }
 786:Middlewares/ST/STM32_USB_Host_Library/Core/Src/usbh_ctlreq.c ****     break;
 787:Middlewares/ST/STM32_USB_Host_Library/Core/Src/usbh_ctlreq.c ****     
 788:Middlewares/ST/STM32_USB_Host_Library/Core/Src/usbh_ctlreq.c ****   case CTRL_STATUS_OUT:
 789:Middlewares/ST/STM32_USB_Host_Library/Core/Src/usbh_ctlreq.c ****     USBH_CtlSendData (phost,
 533              		.loc 1 789 0
 534 013e 4379     		ldrb	r3, [r0, #5]	@ zero_extendqisi2
 535 0140 0125     		movs	r5, #1
 536 0142 0095     		str	r5, [sp]
 537 0144 0021     		movs	r1, #0
 538 0146 0A46     		mov	r2, r1
 539 0148 FFF7FEFF 		bl	USBH_CtlSendData
 540              	.LVL49:
 790:Middlewares/ST/STM32_USB_Host_Library/Core/Src/usbh_ctlreq.c ****                       0,
 791:Middlewares/ST/STM32_USB_Host_Library/Core/Src/usbh_ctlreq.c ****                       0,
 792:Middlewares/ST/STM32_USB_Host_Library/Core/Src/usbh_ctlreq.c ****                       phost->Control.pipe_out,
 793:Middlewares/ST/STM32_USB_Host_Library/Core/Src/usbh_ctlreq.c ****                       1);
 794:Middlewares/ST/STM32_USB_Host_Library/Core/Src/usbh_ctlreq.c ****      phost->Control.timer = phost->Timer;
 541              		.loc 1 794 0
 542 014c D4F8B833 		ldr	r3, [r4, #952]
 543 0150 E381     		strh	r3, [r4, #14]	@ movhi
 795:Middlewares/ST/STM32_USB_Host_Library/Core/Src/usbh_ctlreq.c ****     phost->Control.state = CTRL_STATUS_OUT_WAIT;
 544              		.loc 1 795 0
 545 0152 0A23     		movs	r3, #10
 546 0154 2376     		strb	r3, [r4, #24]
 584:Middlewares/ST/STM32_USB_Host_Library/Core/Src/usbh_ctlreq.c ****   USBH_URBStateTypeDef URB_Status = USBH_URB_IDLE;
 547              		.loc 1 584 0
 548 0156 2846     		mov	r0, r5
 796:Middlewares/ST/STM32_USB_Host_Library/Core/Src/usbh_ctlreq.c ****     break;
 549              		.loc 1 796 0
 550 0158 35E0     		b	.L14
 551              	.LVL50:
 552              	.L25:
 797:Middlewares/ST/STM32_USB_Host_Library/Core/Src/usbh_ctlreq.c ****     
 798:Middlewares/ST/STM32_USB_Host_Library/Core/Src/usbh_ctlreq.c ****   case CTRL_STATUS_OUT_WAIT: 
 799:Middlewares/ST/STM32_USB_Host_Library/Core/Src/usbh_ctlreq.c ****     
 800:Middlewares/ST/STM32_USB_Host_Library/Core/Src/usbh_ctlreq.c ****     URB_Status = USBH_LL_GetURBState(phost , phost->Control.pipe_out);  
 553              		.loc 1 800 0
 554 015a 6179     		ldrb	r1, [r4, #5]	@ zero_extendqisi2
 555 015c FFF7FEFF 		bl	USBH_LL_GetURBState
 556              	.LVL51:
 801:Middlewares/ST/STM32_USB_Host_Library/Core/Src/usbh_ctlreq.c ****     if  (URB_Status == USBH_URB_DONE)
 557              		.loc 1 801 0
 558 0160 0128     		cmp	r0, #1
 559 0162 03D1     		bne	.L37
 560              	.LVL52:
ARM GAS  /tmp/cchT2erI.s 			page 25


 802:Middlewares/ST/STM32_USB_Host_Library/Core/Src/usbh_ctlreq.c ****     { 
 803:Middlewares/ST/STM32_USB_Host_Library/Core/Src/usbh_ctlreq.c ****       status = USBH_OK;      
 804:Middlewares/ST/STM32_USB_Host_Library/Core/Src/usbh_ctlreq.c ****       phost->Control.state = CTRL_COMPLETE; 
 561              		.loc 1 804 0
 562 0164 0D23     		movs	r3, #13
 563 0166 2376     		strb	r3, [r4, #24]
 803:Middlewares/ST/STM32_USB_Host_Library/Core/Src/usbh_ctlreq.c ****       phost->Control.state = CTRL_COMPLETE; 
 564              		.loc 1 803 0
 565 0168 0020     		movs	r0, #0
 566              	.LVL53:
 567 016a 2CE0     		b	.L14
 568              	.LVL54:
 569              	.L37:
 805:Middlewares/ST/STM32_USB_Host_Library/Core/Src/usbh_ctlreq.c ****       
 806:Middlewares/ST/STM32_USB_Host_Library/Core/Src/usbh_ctlreq.c **** #if (USBH_USE_OS == 1)
 807:Middlewares/ST/STM32_USB_Host_Library/Core/Src/usbh_ctlreq.c ****     osMessagePut ( phost->os_event, USBH_CONTROL_EVENT, 0);
 808:Middlewares/ST/STM32_USB_Host_Library/Core/Src/usbh_ctlreq.c **** #endif      
 809:Middlewares/ST/STM32_USB_Host_Library/Core/Src/usbh_ctlreq.c ****     }
 810:Middlewares/ST/STM32_USB_Host_Library/Core/Src/usbh_ctlreq.c ****     else if  (URB_Status == USBH_URB_NOTREADY)
 570              		.loc 1 810 0
 571 016c 0228     		cmp	r0, #2
 572 016e 03D1     		bne	.L38
 811:Middlewares/ST/STM32_USB_Host_Library/Core/Src/usbh_ctlreq.c ****     { 
 812:Middlewares/ST/STM32_USB_Host_Library/Core/Src/usbh_ctlreq.c ****       phost->Control.state = CTRL_STATUS_OUT;
 573              		.loc 1 812 0
 574 0170 0923     		movs	r3, #9
 575 0172 2376     		strb	r3, [r4, #24]
 584:Middlewares/ST/STM32_USB_Host_Library/Core/Src/usbh_ctlreq.c ****   USBH_URBStateTypeDef URB_Status = USBH_URB_IDLE;
 576              		.loc 1 584 0
 577 0174 0120     		movs	r0, #1
 578              	.LVL55:
 579 0176 26E0     		b	.L14
 580              	.LVL56:
 581              	.L38:
 813:Middlewares/ST/STM32_USB_Host_Library/Core/Src/usbh_ctlreq.c ****       
 814:Middlewares/ST/STM32_USB_Host_Library/Core/Src/usbh_ctlreq.c **** #if (USBH_USE_OS == 1)
 815:Middlewares/ST/STM32_USB_Host_Library/Core/Src/usbh_ctlreq.c ****     osMessagePut ( phost->os_event, USBH_CONTROL_EVENT, 0);
 816:Middlewares/ST/STM32_USB_Host_Library/Core/Src/usbh_ctlreq.c **** #endif      
 817:Middlewares/ST/STM32_USB_Host_Library/Core/Src/usbh_ctlreq.c ****     }      
 818:Middlewares/ST/STM32_USB_Host_Library/Core/Src/usbh_ctlreq.c ****     else if (URB_Status == USBH_URB_ERROR)
 582              		.loc 1 818 0
 583 0178 0428     		cmp	r0, #4
 584 017a 23D1     		bne	.L46
 819:Middlewares/ST/STM32_USB_Host_Library/Core/Src/usbh_ctlreq.c ****     {
 820:Middlewares/ST/STM32_USB_Host_Library/Core/Src/usbh_ctlreq.c ****       phost->Control.state = CTRL_ERROR; 
 585              		.loc 1 820 0
 586 017c 0B23     		movs	r3, #11
 587 017e 2376     		strb	r3, [r4, #24]
 584:Middlewares/ST/STM32_USB_Host_Library/Core/Src/usbh_ctlreq.c ****   USBH_URBStateTypeDef URB_Status = USBH_URB_IDLE;
 588              		.loc 1 584 0
 589 0180 0120     		movs	r0, #1
 590              	.LVL57:
 591 0182 20E0     		b	.L14
 592              	.LVL58:
 593              	.L26:
 821:Middlewares/ST/STM32_USB_Host_Library/Core/Src/usbh_ctlreq.c ****       
 822:Middlewares/ST/STM32_USB_Host_Library/Core/Src/usbh_ctlreq.c **** #if (USBH_USE_OS == 1)
ARM GAS  /tmp/cchT2erI.s 			page 26


 823:Middlewares/ST/STM32_USB_Host_Library/Core/Src/usbh_ctlreq.c ****     osMessagePut ( phost->os_event, USBH_CONTROL_EVENT, 0);
 824:Middlewares/ST/STM32_USB_Host_Library/Core/Src/usbh_ctlreq.c **** #endif      
 825:Middlewares/ST/STM32_USB_Host_Library/Core/Src/usbh_ctlreq.c ****     }
 826:Middlewares/ST/STM32_USB_Host_Library/Core/Src/usbh_ctlreq.c ****     break;
 827:Middlewares/ST/STM32_USB_Host_Library/Core/Src/usbh_ctlreq.c ****     
 828:Middlewares/ST/STM32_USB_Host_Library/Core/Src/usbh_ctlreq.c ****   case CTRL_ERROR:
 829:Middlewares/ST/STM32_USB_Host_Library/Core/Src/usbh_ctlreq.c ****     /* 
 830:Middlewares/ST/STM32_USB_Host_Library/Core/Src/usbh_ctlreq.c ****     After a halt condition is encountered or an error is detected by the 
 831:Middlewares/ST/STM32_USB_Host_Library/Core/Src/usbh_ctlreq.c ****     host, a control endpoint is allowed to recover by accepting the next Setup 
 832:Middlewares/ST/STM32_USB_Host_Library/Core/Src/usbh_ctlreq.c ****     PID; i.e., recovery actions via some other pipe are not required for control
 833:Middlewares/ST/STM32_USB_Host_Library/Core/Src/usbh_ctlreq.c ****     endpoints. For the Default Control Pipe, a device reset will ultimately be 
 834:Middlewares/ST/STM32_USB_Host_Library/Core/Src/usbh_ctlreq.c ****     required to clear the halt or error condition if the next Setup PID is not 
 835:Middlewares/ST/STM32_USB_Host_Library/Core/Src/usbh_ctlreq.c ****     accepted.
 836:Middlewares/ST/STM32_USB_Host_Library/Core/Src/usbh_ctlreq.c ****     */
 837:Middlewares/ST/STM32_USB_Host_Library/Core/Src/usbh_ctlreq.c ****     if (++ phost->Control.errorcount <= USBH_MAX_ERROR_COUNT)
 594              		.loc 1 837 0
 595 0184 437E     		ldrb	r3, [r0, #25]	@ zero_extendqisi2
 596 0186 0133     		adds	r3, r3, #1
 597 0188 DBB2     		uxtb	r3, r3
 598 018a 4376     		strb	r3, [r0, #25]
 599 018c 022B     		cmp	r3, #2
 600 018e 05D8     		bhi	.L39
 838:Middlewares/ST/STM32_USB_Host_Library/Core/Src/usbh_ctlreq.c ****     {
 839:Middlewares/ST/STM32_USB_Host_Library/Core/Src/usbh_ctlreq.c ****       /* try to recover control */
 840:Middlewares/ST/STM32_USB_Host_Library/Core/Src/usbh_ctlreq.c ****       USBH_LL_Stop(phost);
 601              		.loc 1 840 0
 602 0190 FFF7FEFF 		bl	USBH_LL_Stop
 603              	.LVL59:
 841:Middlewares/ST/STM32_USB_Host_Library/Core/Src/usbh_ctlreq.c ****          
 842:Middlewares/ST/STM32_USB_Host_Library/Core/Src/usbh_ctlreq.c ****       /* Do the transmission again, starting from SETUP Packet */
 843:Middlewares/ST/STM32_USB_Host_Library/Core/Src/usbh_ctlreq.c ****       phost->Control.state = CTRL_SETUP; 
 604              		.loc 1 843 0
 605 0194 0120     		movs	r0, #1
 606 0196 2076     		strb	r0, [r4, #24]
 844:Middlewares/ST/STM32_USB_Host_Library/Core/Src/usbh_ctlreq.c ****       phost->RequestState = CMD_SEND;
 607              		.loc 1 844 0
 608 0198 A070     		strb	r0, [r4, #2]
 609 019a 14E0     		b	.L14
 610              	.LVL60:
 611              	.L39:
 845:Middlewares/ST/STM32_USB_Host_Library/Core/Src/usbh_ctlreq.c ****     }
 846:Middlewares/ST/STM32_USB_Host_Library/Core/Src/usbh_ctlreq.c ****     else
 847:Middlewares/ST/STM32_USB_Host_Library/Core/Src/usbh_ctlreq.c ****     {
 848:Middlewares/ST/STM32_USB_Host_Library/Core/Src/usbh_ctlreq.c ****       phost->pUser(phost, HOST_USER_UNRECOVERED_ERROR);
 612              		.loc 1 848 0
 613 019c D0F8C433 		ldr	r3, [r0, #964]
 614 01a0 0621     		movs	r1, #6
 615 01a2 9847     		blx	r3
 616              	.LVL61:
 849:Middlewares/ST/STM32_USB_Host_Library/Core/Src/usbh_ctlreq.c ****       phost->Control.errorcount = 0;
 617              		.loc 1 849 0
 618 01a4 0023     		movs	r3, #0
 619 01a6 6376     		strb	r3, [r4, #25]
 620              	.LVL62:
 850:Middlewares/ST/STM32_USB_Host_Library/Core/Src/usbh_ctlreq.c ****       USBH_ErrLog("Control error");
 851:Middlewares/ST/STM32_USB_Host_Library/Core/Src/usbh_ctlreq.c ****       status = USBH_FAIL;
 621              		.loc 1 851 0
ARM GAS  /tmp/cchT2erI.s 			page 27


 622 01a8 0220     		movs	r0, #2
 623 01aa 0CE0     		b	.L14
 624              	.LVL63:
 625              	.L40:
 584:Middlewares/ST/STM32_USB_Host_Library/Core/Src/usbh_ctlreq.c ****   USBH_URBStateTypeDef URB_Status = USBH_URB_IDLE;
 626              		.loc 1 584 0
 627 01ac 0120     		movs	r0, #1
 628              	.LVL64:
 629 01ae 0AE0     		b	.L14
 630              	.LVL65:
 631              	.L41:
 632 01b0 0120     		movs	r0, #1
 633              	.LVL66:
 634 01b2 08E0     		b	.L14
 635              	.LVL67:
 636              	.L42:
 676:Middlewares/ST/STM32_USB_Host_Library/Core/Src/usbh_ctlreq.c **** #if (USBH_USE_OS == 1)
 637              		.loc 1 676 0
 638 01b4 0320     		movs	r0, #3
 639              	.LVL68:
 640 01b6 06E0     		b	.L14
 641              	.LVL69:
 642              	.L43:
 584:Middlewares/ST/STM32_USB_Host_Library/Core/Src/usbh_ctlreq.c ****   USBH_URBStateTypeDef URB_Status = USBH_URB_IDLE;
 643              		.loc 1 584 0
 644 01b8 0120     		movs	r0, #1
 645              	.LVL70:
 646 01ba 04E0     		b	.L14
 647              	.LVL71:
 648              	.L44:
 649 01bc 0120     		movs	r0, #1
 650              	.LVL72:
 651 01be 02E0     		b	.L14
 652              	.LVL73:
 653              	.L45:
 780:Middlewares/ST/STM32_USB_Host_Library/Core/Src/usbh_ctlreq.c ****       
 654              		.loc 1 780 0
 655 01c0 0320     		movs	r0, #3
 656              	.LVL74:
 657 01c2 00E0     		b	.L14
 658              	.LVL75:
 659              	.L46:
 584:Middlewares/ST/STM32_USB_Host_Library/Core/Src/usbh_ctlreq.c ****   USBH_URBStateTypeDef URB_Status = USBH_URB_IDLE;
 660              		.loc 1 584 0
 661 01c4 0120     		movs	r0, #1
 662              	.LVL76:
 663              	.L14:
 852:Middlewares/ST/STM32_USB_Host_Library/Core/Src/usbh_ctlreq.c ****     }
 853:Middlewares/ST/STM32_USB_Host_Library/Core/Src/usbh_ctlreq.c ****     break;
 854:Middlewares/ST/STM32_USB_Host_Library/Core/Src/usbh_ctlreq.c ****     
 855:Middlewares/ST/STM32_USB_Host_Library/Core/Src/usbh_ctlreq.c ****   default:
 856:Middlewares/ST/STM32_USB_Host_Library/Core/Src/usbh_ctlreq.c ****     break;
 857:Middlewares/ST/STM32_USB_Host_Library/Core/Src/usbh_ctlreq.c ****   }
 858:Middlewares/ST/STM32_USB_Host_Library/Core/Src/usbh_ctlreq.c ****   return status;
 859:Middlewares/ST/STM32_USB_Host_Library/Core/Src/usbh_ctlreq.c **** }
 664              		.loc 1 859 0
 665 01c6 03B0     		add	sp, sp, #12
ARM GAS  /tmp/cchT2erI.s 			page 28


 666              	.LCFI6:
 667              		.cfi_def_cfa_offset 12
 668              		@ sp needed
 669 01c8 30BD     		pop	{r4, r5, pc}
 670              		.cfi_endproc
 671              	.LFE138:
 673 01ca 00BF     		.section	.text.USBH_GetNextDesc,"ax",%progbits
 674              		.align	2
 675              		.global	USBH_GetNextDesc
 676              		.thumb
 677              		.thumb_func
 679              	USBH_GetNextDesc:
 680              	.LFB136:
 510:Middlewares/ST/STM32_USB_Host_Library/Core/Src/usbh_ctlreq.c ****   USBH_DescHeader_t  *pnext;
 681              		.loc 1 510 0
 682              		.cfi_startproc
 683              		@ args = 0, pretend = 0, frame = 0
 684              		@ frame_needed = 0, uses_anonymous_args = 0
 685              		@ link register save eliminated.
 686              	.LVL77:
 513:Middlewares/ST/STM32_USB_Host_Library/Core/Src/usbh_ctlreq.c ****   pnext = (USBH_DescHeader_t *)((uint8_t *)pbuf + \
 687              		.loc 1 513 0
 688 0000 0278     		ldrb	r2, [r0]	@ zero_extendqisi2
 689 0002 0B88     		ldrh	r3, [r1]
 690 0004 1344     		add	r3, r3, r2
 691 0006 0B80     		strh	r3, [r1]	@ movhi
 515:Middlewares/ST/STM32_USB_Host_Library/Core/Src/usbh_ctlreq.c ****  
 692              		.loc 1 515 0
 693 0008 0378     		ldrb	r3, [r0]	@ zero_extendqisi2
 694              	.LVL78:
 518:Middlewares/ST/STM32_USB_Host_Library/Core/Src/usbh_ctlreq.c **** 
 695              		.loc 1 518 0
 696 000a 1844     		add	r0, r0, r3
 697              	.LVL79:
 698 000c 7047     		bx	lr
 699              		.cfi_endproc
 700              	.LFE136:
 702 000e 00BF     		.section	.text.USBH_ParseCfgDesc,"ax",%progbits
 703              		.align	2
 704              		.thumb
 705              		.thumb_func
 707              	USBH_ParseCfgDesc:
 708              	.LFB132:
 369:Middlewares/ST/STM32_USB_Host_Library/Core/Src/usbh_ctlreq.c ****   USBH_InterfaceDescTypeDef    *pif ;
 709              		.loc 1 369 0
 710              		.cfi_startproc
 711              		@ args = 0, pretend = 0, frame = 8
 712              		@ frame_needed = 0, uses_anonymous_args = 0
 713              	.LVL80:
 714 0000 2DE9F043 		push	{r4, r5, r6, r7, r8, r9, lr}
 715              	.LCFI7:
 716              		.cfi_def_cfa_offset 28
 717              		.cfi_offset 4, -28
 718              		.cfi_offset 5, -24
 719              		.cfi_offset 6, -20
 720              		.cfi_offset 7, -16
 721              		.cfi_offset 8, -12
ARM GAS  /tmp/cchT2erI.s 			page 29


 722              		.cfi_offset 9, -8
 723              		.cfi_offset 14, -4
 724 0004 83B0     		sub	sp, sp, #12
 725              	.LCFI8:
 726              		.cfi_def_cfa_offset 40
 727 0006 0546     		mov	r5, r0
 728 0008 0C46     		mov	r4, r1
 729              	.LVL81:
 380:Middlewares/ST/STM32_USB_Host_Library/Core/Src/usbh_ctlreq.c ****   cfg_desc->bDescriptorType     = *(uint8_t  *) (buf + 1);
 730              		.loc 1 380 0
 731 000a 0B78     		ldrb	r3, [r1]	@ zero_extendqisi2
 732 000c 0370     		strb	r3, [r0]
 381:Middlewares/ST/STM32_USB_Host_Library/Core/Src/usbh_ctlreq.c ****   cfg_desc->wTotalLength        = LE16 (buf + 2);
 733              		.loc 1 381 0
 734 000e 4B78     		ldrb	r3, [r1, #1]	@ zero_extendqisi2
 735 0010 4370     		strb	r3, [r0, #1]
 382:Middlewares/ST/STM32_USB_Host_Library/Core/Src/usbh_ctlreq.c ****   cfg_desc->bNumInterfaces      = *(uint8_t  *) (buf + 4);
 736              		.loc 1 382 0
 737 0012 8B78     		ldrb	r3, [r1, #2]	@ zero_extendqisi2
 738 0014 C978     		ldrb	r1, [r1, #3]	@ zero_extendqisi2
 739              	.LVL82:
 740 0016 03EB0123 		add	r3, r3, r1, lsl #8
 741 001a 4380     		strh	r3, [r0, #2]	@ movhi
 383:Middlewares/ST/STM32_USB_Host_Library/Core/Src/usbh_ctlreq.c ****   cfg_desc->bConfigurationValue = *(uint8_t  *) (buf + 5);
 742              		.loc 1 383 0
 743 001c 2379     		ldrb	r3, [r4, #4]	@ zero_extendqisi2
 744 001e 0371     		strb	r3, [r0, #4]
 384:Middlewares/ST/STM32_USB_Host_Library/Core/Src/usbh_ctlreq.c ****   cfg_desc->iConfiguration      = *(uint8_t  *) (buf + 6);
 745              		.loc 1 384 0
 746 0020 6379     		ldrb	r3, [r4, #5]	@ zero_extendqisi2
 747 0022 4371     		strb	r3, [r0, #5]
 385:Middlewares/ST/STM32_USB_Host_Library/Core/Src/usbh_ctlreq.c ****   cfg_desc->bmAttributes        = *(uint8_t  *) (buf + 7);
 748              		.loc 1 385 0
 749 0024 A379     		ldrb	r3, [r4, #6]	@ zero_extendqisi2
 750 0026 8371     		strb	r3, [r0, #6]
 386:Middlewares/ST/STM32_USB_Host_Library/Core/Src/usbh_ctlreq.c ****   cfg_desc->bMaxPower           = *(uint8_t  *) (buf + 8);    
 751              		.loc 1 386 0
 752 0028 E379     		ldrb	r3, [r4, #7]	@ zero_extendqisi2
 753 002a C371     		strb	r3, [r0, #7]
 387:Middlewares/ST/STM32_USB_Host_Library/Core/Src/usbh_ctlreq.c ****   
 754              		.loc 1 387 0
 755 002c 237A     		ldrb	r3, [r4, #8]	@ zero_extendqisi2
 756 002e 0372     		strb	r3, [r0, #8]
 390:Middlewares/ST/STM32_USB_Host_Library/Core/Src/usbh_ctlreq.c ****   {
 757              		.loc 1 390 0
 758 0030 092A     		cmp	r2, #9
 759 0032 48D9     		bls	.L49
 392:Middlewares/ST/STM32_USB_Host_Library/Core/Src/usbh_ctlreq.c ****     pif = (USBH_InterfaceDescTypeDef *)0;
 760              		.loc 1 392 0
 761 0034 0923     		movs	r3, #9
 762 0036 ADF80630 		strh	r3, [sp, #6]	@ movhi
 763              	.LVL83:
 374:Middlewares/ST/STM32_USB_Host_Library/Core/Src/usbh_ctlreq.c ****   int8_t                        ep_ix = 0;  
 764              		.loc 1 374 0
 765 003a 0026     		movs	r6, #0
 396:Middlewares/ST/STM32_USB_Host_Library/Core/Src/usbh_ctlreq.c ****     {
 766              		.loc 1 396 0
ARM GAS  /tmp/cchT2erI.s 			page 30


 767 003c 3BE0     		b	.L52
 768              	.LVL84:
 769              	.L57:
 398:Middlewares/ST/STM32_USB_Host_Library/Core/Src/usbh_ctlreq.c ****       if (pdesc->bDescriptorType   == USB_DESC_TYPE_INTERFACE) 
 770              		.loc 1 398 0
 771 003e 2046     		mov	r0, r4
 772 0040 0DF10601 		add	r1, sp, #6
 773 0044 FFF7FEFF 		bl	USBH_GetNextDesc
 774              	.LVL85:
 775 0048 0446     		mov	r4, r0
 776              	.LVL86:
 399:Middlewares/ST/STM32_USB_Host_Library/Core/Src/usbh_ctlreq.c ****       {
 777              		.loc 1 399 0
 778 004a 4378     		ldrb	r3, [r0, #1]	@ zero_extendqisi2
 779 004c F6B2     		uxtb	r6, r6
 780 004e 042B     		cmp	r3, #4
 781 0050 31D1     		bne	.L52
 401:Middlewares/ST/STM32_USB_Host_Library/Core/Src/usbh_ctlreq.c ****         USBH_ParseInterfaceDesc (pif, (uint8_t *)pdesc);            
 782              		.loc 1 401 0
 783 0052 4FFA86F9 		sxtb	r9, r6
 784 0056 1A20     		movs	r0, #26
 785              	.LVL87:
 786 0058 00FB0950 		mla	r0, r0, r9, r5
 787              	.LVL88:
 402:Middlewares/ST/STM32_USB_Host_Library/Core/Src/usbh_ctlreq.c ****         
 788              		.loc 1 402 0
 789 005c 0A30     		adds	r0, r0, #10
 790              	.LVL89:
 791 005e 2146     		mov	r1, r4
 792 0060 FFF7FEFF 		bl	USBH_ParseInterfaceDesc
 793              	.LVL90:
 404:Middlewares/ST/STM32_USB_Host_Library/Core/Src/usbh_ctlreq.c ****         pep = (USBH_EpDescTypeDef *)0;        
 794              		.loc 1 404 0
 795 0064 4FF00008 		mov	r8, #0
 406:Middlewares/ST/STM32_USB_Host_Library/Core/Src/usbh_ctlreq.c ****         {
 796              		.loc 1 406 0
 797 0068 16E0     		b	.L53
 798              	.LVL91:
 799              	.L56:
 408:Middlewares/ST/STM32_USB_Host_Library/Core/Src/usbh_ctlreq.c ****           if (pdesc->bDescriptorType   == USB_DESC_TYPE_ENDPOINT) 
 800              		.loc 1 408 0
 801 006a 2046     		mov	r0, r4
 802 006c 0DF10601 		add	r1, sp, #6
 803 0070 FFF7FEFF 		bl	USBH_GetNextDesc
 804              	.LVL92:
 805 0074 0446     		mov	r4, r0
 806              	.LVL93:
 409:Middlewares/ST/STM32_USB_Host_Library/Core/Src/usbh_ctlreq.c ****           {  
 807              		.loc 1 409 0
 808 0076 4378     		ldrb	r3, [r0, #1]	@ zero_extendqisi2
 809 0078 052B     		cmp	r3, #5
 810 007a 0DD1     		bne	.L53
 411:Middlewares/ST/STM32_USB_Host_Library/Core/Src/usbh_ctlreq.c ****             USBH_ParseEPDesc (pep, (uint8_t *)pdesc);
 811              		.loc 1 411 0
 812 007c 1A20     		movs	r0, #26
 813              	.LVL94:
 814 007e 00FB09F0 		mul	r0, r0, r9
ARM GAS  /tmp/cchT2erI.s 			page 31


 815              	.LVL95:
 816 0082 00EBC700 		add	r0, r0, r7, lsl #3
 817 0086 2844     		add	r0, r0, r5
 818              	.LVL96:
 412:Middlewares/ST/STM32_USB_Host_Library/Core/Src/usbh_ctlreq.c ****             ep_ix++;
 819              		.loc 1 412 0
 820 0088 1430     		adds	r0, r0, #20
 821              	.LVL97:
 822 008a 2146     		mov	r1, r4
 823 008c FFF7FEFF 		bl	USBH_ParseEPDesc
 824              	.LVL98:
 413:Middlewares/ST/STM32_USB_Host_Library/Core/Src/usbh_ctlreq.c ****           }
 825              		.loc 1 413 0
 826 0090 08F10108 		add	r8, r8, #1
 827              	.LVL99:
 828 0094 5FFA88F8 		uxtb	r8, r8
 829              	.LVL100:
 830              	.L53:
 406:Middlewares/ST/STM32_USB_Host_Library/Core/Src/usbh_ctlreq.c ****         {
 831              		.loc 1 406 0
 832 0098 4FFA88F7 		sxtb	r7, r8
 833 009c 1A23     		movs	r3, #26
 834              	.LVL101:
 835 009e 03FB0953 		mla	r3, r3, r9, r5
 836              	.LVL102:
 837 00a2 9B7B     		ldrb	r3, [r3, #14]	@ zero_extendqisi2
 838 00a4 9F42     		cmp	r7, r3
 839 00a6 04DA     		bge	.L55
 406:Middlewares/ST/STM32_USB_Host_Library/Core/Src/usbh_ctlreq.c ****         {
 840              		.loc 1 406 0 is_stmt 0 discriminator 1
 841 00a8 6A88     		ldrh	r2, [r5, #2]
 842 00aa BDF80630 		ldrh	r3, [sp, #6]
 843 00ae 9A42     		cmp	r2, r3
 844 00b0 DBD8     		bhi	.L56
 845              	.L55:
 416:Middlewares/ST/STM32_USB_Host_Library/Core/Src/usbh_ctlreq.c ****       }
 846              		.loc 1 416 0 is_stmt 1
 847 00b2 0136     		adds	r6, r6, #1
 848              	.LVL103:
 849 00b4 F6B2     		uxtb	r6, r6
 850              	.LVL104:
 851              	.L52:
 396:Middlewares/ST/STM32_USB_Host_Library/Core/Src/usbh_ctlreq.c ****     {
 852              		.loc 1 396 0
 853 00b6 73B2     		sxtb	r3, r6
 854 00b8 012B     		cmp	r3, #1
 855 00ba 04DC     		bgt	.L49
 396:Middlewares/ST/STM32_USB_Host_Library/Core/Src/usbh_ctlreq.c ****     {
 856              		.loc 1 396 0 is_stmt 0 discriminator 1
 857 00bc 6A88     		ldrh	r2, [r5, #2]
 858 00be BDF80630 		ldrh	r3, [sp, #6]
 859 00c2 9A42     		cmp	r2, r3
 860 00c4 BBD8     		bhi	.L57
 861              	.LVL105:
 862              	.L49:
 420:Middlewares/ST/STM32_USB_Host_Library/Core/Src/usbh_ctlreq.c **** 
 863              		.loc 1 420 0 is_stmt 1
ARM GAS  /tmp/cchT2erI.s 			page 32


 864 00c6 03B0     		add	sp, sp, #12
 865              	.LCFI9:
 866              		.cfi_def_cfa_offset 28
 867              		@ sp needed
 868 00c8 BDE8F083 		pop	{r4, r5, r6, r7, r8, r9, pc}
 869              		.cfi_endproc
 870              	.LFE132:
 872              		.section	.text.USBH_CtlReq,"ax",%progbits
 873              		.align	2
 874              		.global	USBH_CtlReq
 875              		.thumb
 876              		.thumb_func
 878              	USBH_CtlReq:
 879              	.LFB137:
 534:Middlewares/ST/STM32_USB_Host_Library/Core/Src/usbh_ctlreq.c ****   USBH_StatusTypeDef status;
 880              		.loc 1 534 0
 881              		.cfi_startproc
 882              		@ args = 0, pretend = 0, frame = 0
 883              		@ frame_needed = 0, uses_anonymous_args = 0
 884              	.LVL106:
 885 0000 10B5     		push	{r4, lr}
 886              	.LCFI10:
 887              		.cfi_def_cfa_offset 8
 888              		.cfi_offset 4, -8
 889              		.cfi_offset 14, -4
 890 0002 0446     		mov	r4, r0
 891              	.LVL107:
 538:Middlewares/ST/STM32_USB_Host_Library/Core/Src/usbh_ctlreq.c ****   {
 892              		.loc 1 538 0
 893 0004 8378     		ldrb	r3, [r0, #2]	@ zero_extendqisi2
 894 0006 012B     		cmp	r3, #1
 895 0008 02D0     		beq	.L61
 896 000a 022B     		cmp	r3, #2
 897 000c 07D0     		beq	.L62
 898 000e 14E0     		b	.L65
 899              	.L61:
 542:Middlewares/ST/STM32_USB_Host_Library/Core/Src/usbh_ctlreq.c ****     phost->Control.length = length;
 900              		.loc 1 542 0
 901 0010 8160     		str	r1, [r0, #8]
 543:Middlewares/ST/STM32_USB_Host_Library/Core/Src/usbh_ctlreq.c ****     phost->Control.state = CTRL_SETUP;  
 902              		.loc 1 543 0
 903 0012 8281     		strh	r2, [r0, #12]	@ movhi
 544:Middlewares/ST/STM32_USB_Host_Library/Core/Src/usbh_ctlreq.c ****     phost->RequestState = CMD_WAIT;
 904              		.loc 1 544 0
 905 0014 0123     		movs	r3, #1
 906 0016 0376     		strb	r3, [r0, #24]
 545:Middlewares/ST/STM32_USB_Host_Library/Core/Src/usbh_ctlreq.c ****     status = USBH_BUSY;
 907              		.loc 1 545 0
 908 0018 0222     		movs	r2, #2
 909              	.LVL108:
 910 001a 8270     		strb	r2, [r0, #2]
 550:Middlewares/ST/STM32_USB_Host_Library/Core/Src/usbh_ctlreq.c ****     
 911              		.loc 1 550 0
 912 001c 0EE0     		b	.L60
 913              	.LVL109:
 914              	.L62:
 553:Middlewares/ST/STM32_USB_Host_Library/Core/Src/usbh_ctlreq.c ****      if (status == USBH_OK) 
ARM GAS  /tmp/cchT2erI.s 			page 33


 915              		.loc 1 553 0
 916 001e FFF7FEFF 		bl	USBH_HandleControl
 917              	.LVL110:
 554:Middlewares/ST/STM32_USB_Host_Library/Core/Src/usbh_ctlreq.c ****     {
 918              		.loc 1 554 0
 919 0022 0346     		mov	r3, r0
 920 0024 20B9     		cbnz	r0, .L63
 557:Middlewares/ST/STM32_USB_Host_Library/Core/Src/usbh_ctlreq.c ****       phost->Control.state =CTRL_IDLE;  
 921              		.loc 1 557 0
 922 0026 0122     		movs	r2, #1
 923 0028 A270     		strb	r2, [r4, #2]
 558:Middlewares/ST/STM32_USB_Host_Library/Core/Src/usbh_ctlreq.c ****       status = USBH_OK;      
 924              		.loc 1 558 0
 925 002a 0022     		movs	r2, #0
 926 002c 2276     		strb	r2, [r4, #24]
 927              	.LVL111:
 928 002e 05E0     		b	.L60
 929              	.LVL112:
 930              	.L63:
 561:Middlewares/ST/STM32_USB_Host_Library/Core/Src/usbh_ctlreq.c ****     {
 931              		.loc 1 561 0
 932 0030 0228     		cmp	r0, #2
 933 0032 03D1     		bne	.L60
 564:Middlewares/ST/STM32_USB_Host_Library/Core/Src/usbh_ctlreq.c ****       status = USBH_FAIL;
 934              		.loc 1 564 0
 935 0034 0122     		movs	r2, #1
 936 0036 A270     		strb	r2, [r4, #2]
 937              	.LVL113:
 938 0038 00E0     		b	.L60
 939              	.LVL114:
 940              	.L65:
 536:Middlewares/ST/STM32_USB_Host_Library/Core/Src/usbh_ctlreq.c ****   
 941              		.loc 1 536 0
 942 003a 0123     		movs	r3, #1
 943              	.LVL115:
 944              	.L60:
 573:Middlewares/ST/STM32_USB_Host_Library/Core/Src/usbh_ctlreq.c **** 
 945              		.loc 1 573 0
 946 003c 1846     		mov	r0, r3
 947 003e 10BD     		pop	{r4, pc}
 948              		.cfi_endproc
 949              	.LFE137:
 951              		.section	.text.USBH_GetDescriptor,"ax",%progbits
 952              		.align	2
 953              		.global	USBH_GetDescriptor
 954              		.thumb
 955              		.thumb_func
 957              	USBH_GetDescriptor:
 958              	.LFB126:
 209:Middlewares/ST/STM32_USB_Host_Library/Core/Src/usbh_ctlreq.c ****   if(phost->RequestState == CMD_SEND)
 959              		.loc 1 209 0
 960              		.cfi_startproc
 961              		@ args = 4, pretend = 0, frame = 0
 962              		@ frame_needed = 0, uses_anonymous_args = 0
 963              	.LVL116:
 964 0000 38B5     		push	{r3, r4, r5, lr}
 965              	.LCFI11:
ARM GAS  /tmp/cchT2erI.s 			page 34


 966              		.cfi_def_cfa_offset 16
 967              		.cfi_offset 3, -16
 968              		.cfi_offset 4, -12
 969              		.cfi_offset 5, -8
 970              		.cfi_offset 14, -4
 971 0002 BDF81050 		ldrh	r5, [sp, #16]
 210:Middlewares/ST/STM32_USB_Host_Library/Core/Src/usbh_ctlreq.c ****   {
 972              		.loc 1 210 0
 973 0006 8478     		ldrb	r4, [r0, #2]	@ zero_extendqisi2
 974 0008 012C     		cmp	r4, #1
 975 000a 11D1     		bne	.L68
 212:Middlewares/ST/STM32_USB_Host_Library/Core/Src/usbh_ctlreq.c ****     phost->Control.setup.b.bRequest = USB_REQ_GET_DESCRIPTOR;
 976              		.loc 1 212 0
 977 000c 61F07F04 		orn	r4, r1, #127
 978 0010 0474     		strb	r4, [r0, #16]
 213:Middlewares/ST/STM32_USB_Host_Library/Core/Src/usbh_ctlreq.c ****     phost->Control.setup.b.wValue.w = value_idx;
 979              		.loc 1 213 0
 980 0012 0621     		movs	r1, #6
 981              	.LVL117:
 982 0014 4174     		strb	r1, [r0, #17]
 214:Middlewares/ST/STM32_USB_Host_Library/Core/Src/usbh_ctlreq.c ****     
 983              		.loc 1 214 0
 984 0016 4282     		strh	r2, [r0, #18]	@ movhi
 216:Middlewares/ST/STM32_USB_Host_Library/Core/Src/usbh_ctlreq.c ****     {
 985              		.loc 1 216 0
 986 0018 02F47F44 		and	r4, r2, #65280
 987 001c B4F5407F 		cmp	r4, #768
 988 0020 03D1     		bne	.L69
 218:Middlewares/ST/STM32_USB_Host_Library/Core/Src/usbh_ctlreq.c ****     }
 989              		.loc 1 218 0
 990 0022 40F20942 		movw	r2, #1033
 991              	.LVL118:
 992 0026 8282     		strh	r2, [r0, #20]	@ movhi
 993 0028 01E0     		b	.L70
 994              	.LVL119:
 995              	.L69:
 222:Middlewares/ST/STM32_USB_Host_Library/Core/Src/usbh_ctlreq.c ****     }
 996              		.loc 1 222 0
 997 002a 0022     		movs	r2, #0
 998              	.LVL120:
 999 002c 8282     		strh	r2, [r0, #20]	@ movhi
 1000              	.L70:
 224:Middlewares/ST/STM32_USB_Host_Library/Core/Src/usbh_ctlreq.c ****   }
 1001              		.loc 1 224 0
 1002 002e C582     		strh	r5, [r0, #22]	@ movhi
 1003              	.LVL121:
 1004              	.L68:
 226:Middlewares/ST/STM32_USB_Host_Library/Core/Src/usbh_ctlreq.c **** }
 1005              		.loc 1 226 0
 1006 0030 1946     		mov	r1, r3
 1007 0032 2A46     		mov	r2, r5
 1008 0034 FFF7FEFF 		bl	USBH_CtlReq
 1009              	.LVL122:
 227:Middlewares/ST/STM32_USB_Host_Library/Core/Src/usbh_ctlreq.c **** 
 1010              		.loc 1 227 0
 1011 0038 38BD     		pop	{r3, r4, r5, pc}
 1012              		.cfi_endproc
ARM GAS  /tmp/cchT2erI.s 			page 35


 1013              	.LFE126:
 1015 003a 00BF     		.section	.text.USBH_Get_DevDesc,"ax",%progbits
 1016              		.align	2
 1017              		.global	USBH_Get_DevDesc
 1018              		.thumb
 1019              		.thumb_func
 1021              	USBH_Get_DevDesc:
 1022              	.LFB123:
 113:Middlewares/ST/STM32_USB_Host_Library/Core/Src/usbh_ctlreq.c ****   USBH_StatusTypeDef status;
 1023              		.loc 1 113 0
 1024              		.cfi_startproc
 1025              		@ args = 0, pretend = 0, frame = 0
 1026              		@ frame_needed = 0, uses_anonymous_args = 0
 1027              	.LVL123:
 1028 0000 F0B5     		push	{r4, r5, r6, r7, lr}
 1029              	.LCFI12:
 1030              		.cfi_def_cfa_offset 20
 1031              		.cfi_offset 4, -20
 1032              		.cfi_offset 5, -16
 1033              		.cfi_offset 6, -12
 1034              		.cfi_offset 7, -8
 1035              		.cfi_offset 14, -4
 1036 0002 83B0     		sub	sp, sp, #12
 1037              	.LCFI13:
 1038              		.cfi_def_cfa_offset 32
 1039 0004 0646     		mov	r6, r0
 119:Middlewares/ST/STM32_USB_Host_Library/Core/Src/usbh_ctlreq.c ****                                   length)) == USBH_OK)
 1040              		.loc 1 119 0
 1041 0006 00F58E75 		add	r5, r0, #284
 116:Middlewares/ST/STM32_USB_Host_Library/Core/Src/usbh_ctlreq.c ****                                   USB_REQ_RECIPIENT_DEVICE | USB_REQ_TYPE_STANDARD,                
 1042              		.loc 1 116 0
 1043 000a 0C46     		mov	r4, r1
 1044 000c 0091     		str	r1, [sp]
 1045 000e 0021     		movs	r1, #0
 1046              	.LVL124:
 1047 0010 4FF48072 		mov	r2, #256
 1048 0014 2B46     		mov	r3, r5
 1049 0016 FFF7FEFF 		bl	USBH_GetDescriptor
 1050              	.LVL125:
 1051 001a 0746     		mov	r7, r0
 1052 001c 28B9     		cbnz	r0, .L73
 123:Middlewares/ST/STM32_USB_Host_Library/Core/Src/usbh_ctlreq.c ****   }
 1053              		.loc 1 123 0
 1054 001e 06F54870 		add	r0, r6, #800
 1055              	.LVL126:
 1056 0022 2946     		mov	r1, r5
 1057 0024 2246     		mov	r2, r4
 1058 0026 FFF7FEFF 		bl	USBH_ParseDevDesc
 1059              	.LVL127:
 1060              	.L73:
 126:Middlewares/ST/STM32_USB_Host_Library/Core/Src/usbh_ctlreq.c **** 
 1061              		.loc 1 126 0
 1062 002a 3846     		mov	r0, r7
 1063 002c 03B0     		add	sp, sp, #12
 1064              	.LCFI14:
 1065              		.cfi_def_cfa_offset 20
 1066              		@ sp needed
ARM GAS  /tmp/cchT2erI.s 			page 36


 1067 002e F0BD     		pop	{r4, r5, r6, r7, pc}
 1068              		.cfi_endproc
 1069              	.LFE123:
 1071              		.section	.text.USBH_Get_CfgDesc,"ax",%progbits
 1072              		.align	2
 1073              		.global	USBH_Get_CfgDesc
 1074              		.thumb
 1075              		.thumb_func
 1077              	USBH_Get_CfgDesc:
 1078              	.LFB124:
 140:Middlewares/ST/STM32_USB_Host_Library/Core/Src/usbh_ctlreq.c ****   USBH_StatusTypeDef status;
 1079              		.loc 1 140 0
 1080              		.cfi_startproc
 1081              		@ args = 0, pretend = 0, frame = 0
 1082              		@ frame_needed = 0, uses_anonymous_args = 0
 1083              	.LVL128:
 1084 0000 F0B5     		push	{r4, r5, r6, r7, lr}
 1085              	.LCFI15:
 1086              		.cfi_def_cfa_offset 20
 1087              		.cfi_offset 4, -20
 1088              		.cfi_offset 5, -16
 1089              		.cfi_offset 6, -12
 1090              		.cfi_offset 7, -8
 1091              		.cfi_offset 14, -4
 1092 0002 83B0     		sub	sp, sp, #12
 1093              	.LCFI16:
 1094              		.cfi_def_cfa_offset 32
 1095 0004 0646     		mov	r6, r0
 1096 0006 0C46     		mov	r4, r1
 144:Middlewares/ST/STM32_USB_Host_Library/Core/Src/usbh_ctlreq.c **** #else
 1097              		.loc 1 144 0
 1098 0008 00F11C05 		add	r5, r0, #28
 1099              	.LVL129:
 148:Middlewares/ST/STM32_USB_Host_Library/Core/Src/usbh_ctlreq.c ****                                   USB_REQ_RECIPIENT_DEVICE | USB_REQ_TYPE_STANDARD,                
 1100              		.loc 1 148 0
 1101 000c 0091     		str	r1, [sp]
 1102 000e 0021     		movs	r1, #0
 1103              	.LVL130:
 1104 0010 4FF40072 		mov	r2, #512
 1105 0014 2B46     		mov	r3, r5
 1106 0016 FFF7FEFF 		bl	USBH_GetDescriptor
 1107              	.LVL131:
 1108 001a 0746     		mov	r7, r0
 1109 001c 28B9     		cbnz	r0, .L76
 156:Middlewares/ST/STM32_USB_Host_Library/Core/Src/usbh_ctlreq.c ****                        pData,
 1110              		.loc 1 156 0
 1111 001e 06F23230 		addw	r0, r6, #818
 1112              	.LVL132:
 1113 0022 2946     		mov	r1, r5
 1114 0024 2246     		mov	r2, r4
 1115 0026 FFF7FEFF 		bl	USBH_ParseCfgDesc
 1116              	.LVL133:
 1117              	.L76:
 162:Middlewares/ST/STM32_USB_Host_Library/Core/Src/usbh_ctlreq.c **** 
 1118              		.loc 1 162 0
 1119 002a 3846     		mov	r0, r7
 1120 002c 03B0     		add	sp, sp, #12
ARM GAS  /tmp/cchT2erI.s 			page 37


 1121              	.LCFI17:
 1122              		.cfi_def_cfa_offset 20
 1123              		@ sp needed
 1124 002e F0BD     		pop	{r4, r5, r6, r7, pc}
 1125              		.cfi_endproc
 1126              	.LFE124:
 1128              		.section	.text.USBH_Get_StringDesc,"ax",%progbits
 1129              		.align	2
 1130              		.global	USBH_Get_StringDesc
 1131              		.thumb
 1132              		.thumb_func
 1134              	USBH_Get_StringDesc:
 1135              	.LFB125:
 179:Middlewares/ST/STM32_USB_Host_Library/Core/Src/usbh_ctlreq.c ****   USBH_StatusTypeDef status;
 1136              		.loc 1 179 0
 1137              		.cfi_startproc
 1138              		@ args = 0, pretend = 0, frame = 0
 1139              		@ frame_needed = 0, uses_anonymous_args = 0
 1140              	.LVL134:
 1141 0000 F0B5     		push	{r4, r5, r6, r7, lr}
 1142              	.LCFI18:
 1143              		.cfi_def_cfa_offset 20
 1144              		.cfi_offset 4, -20
 1145              		.cfi_offset 5, -16
 1146              		.cfi_offset 6, -12
 1147              		.cfi_offset 7, -8
 1148              		.cfi_offset 14, -4
 1149 0002 83B0     		sub	sp, sp, #12
 1150              	.LCFI19:
 1151              		.cfi_def_cfa_offset 32
 1152 0004 1746     		mov	r7, r2
 1153 0006 1C46     		mov	r4, r3
 181:Middlewares/ST/STM32_USB_Host_Library/Core/Src/usbh_ctlreq.c ****                                   USB_REQ_RECIPIENT_DEVICE | USB_REQ_TYPE_STANDARD,                
 1154              		.loc 1 181 0
 1155 0008 41F44072 		orr	r2, r1, #768
 1156              	.LVL135:
 184:Middlewares/ST/STM32_USB_Host_Library/Core/Src/usbh_ctlreq.c ****                                   length)) == USBH_OK)
 1157              		.loc 1 184 0
 1158 000c 00F58E75 		add	r5, r0, #284
 181:Middlewares/ST/STM32_USB_Host_Library/Core/Src/usbh_ctlreq.c ****                                   USB_REQ_RECIPIENT_DEVICE | USB_REQ_TYPE_STANDARD,                
 1159              		.loc 1 181 0
 1160 0010 0093     		str	r3, [sp]
 1161 0012 0021     		movs	r1, #0
 1162              	.LVL136:
 1163 0014 2B46     		mov	r3, r5
 1164              	.LVL137:
 1165 0016 FFF7FEFF 		bl	USBH_GetDescriptor
 1166              	.LVL138:
 1167 001a 0646     		mov	r6, r0
 1168 001c 20B9     		cbnz	r0, .L79
 188:Middlewares/ST/STM32_USB_Host_Library/Core/Src/usbh_ctlreq.c ****   }
 1169              		.loc 1 188 0
 1170 001e 2846     		mov	r0, r5
 1171              	.LVL139:
 1172 0020 3946     		mov	r1, r7
 1173 0022 2246     		mov	r2, r4
 1174 0024 FFF7FEFF 		bl	USBH_ParseStringDesc
ARM GAS  /tmp/cchT2erI.s 			page 38


 1175              	.LVL140:
 1176              	.L79:
 191:Middlewares/ST/STM32_USB_Host_Library/Core/Src/usbh_ctlreq.c **** 
 1177              		.loc 1 191 0
 1178 0028 3046     		mov	r0, r6
 1179 002a 03B0     		add	sp, sp, #12
 1180              	.LCFI20:
 1181              		.cfi_def_cfa_offset 20
 1182              		@ sp needed
 1183 002c F0BD     		pop	{r4, r5, r6, r7, pc}
 1184              		.cfi_endproc
 1185              	.LFE125:
 1187 002e 00BF     		.section	.text.USBH_SetAddress,"ax",%progbits
 1188              		.align	2
 1189              		.global	USBH_SetAddress
 1190              		.thumb
 1191              		.thumb_func
 1193              	USBH_SetAddress:
 1194              	.LFB127:
 238:Middlewares/ST/STM32_USB_Host_Library/Core/Src/usbh_ctlreq.c ****   if(phost->RequestState == CMD_SEND)
 1195              		.loc 1 238 0
 1196              		.cfi_startproc
 1197              		@ args = 0, pretend = 0, frame = 0
 1198              		@ frame_needed = 0, uses_anonymous_args = 0
 1199              	.LVL141:
 1200 0000 08B5     		push	{r3, lr}
 1201              	.LCFI21:
 1202              		.cfi_def_cfa_offset 8
 1203              		.cfi_offset 3, -8
 1204              		.cfi_offset 14, -4
 239:Middlewares/ST/STM32_USB_Host_Library/Core/Src/usbh_ctlreq.c ****   {
 1205              		.loc 1 239 0
 1206 0002 8378     		ldrb	r3, [r0, #2]	@ zero_extendqisi2
 1207 0004 012B     		cmp	r3, #1
 1208 0006 06D1     		bne	.L82
 241:Middlewares/ST/STM32_USB_Host_Library/Core/Src/usbh_ctlreq.c ****       USB_REQ_TYPE_STANDARD;
 1209              		.loc 1 241 0
 1210 0008 0023     		movs	r3, #0
 1211 000a 0374     		strb	r3, [r0, #16]
 244:Middlewares/ST/STM32_USB_Host_Library/Core/Src/usbh_ctlreq.c ****     
 1212              		.loc 1 244 0
 1213 000c 0522     		movs	r2, #5
 1214 000e 4274     		strb	r2, [r0, #17]
 246:Middlewares/ST/STM32_USB_Host_Library/Core/Src/usbh_ctlreq.c ****     phost->Control.setup.b.wIndex.w = 0;
 1215              		.loc 1 246 0
 1216 0010 4182     		strh	r1, [r0, #18]	@ movhi
 247:Middlewares/ST/STM32_USB_Host_Library/Core/Src/usbh_ctlreq.c ****     phost->Control.setup.b.wLength.w = 0;
 1217              		.loc 1 247 0
 1218 0012 8382     		strh	r3, [r0, #20]	@ movhi
 248:Middlewares/ST/STM32_USB_Host_Library/Core/Src/usbh_ctlreq.c ****   }
 1219              		.loc 1 248 0
 1220 0014 C382     		strh	r3, [r0, #22]	@ movhi
 1221              	.L82:
 250:Middlewares/ST/STM32_USB_Host_Library/Core/Src/usbh_ctlreq.c **** }
 1222              		.loc 1 250 0
 1223 0016 0021     		movs	r1, #0
 1224              	.LVL142:
ARM GAS  /tmp/cchT2erI.s 			page 39


 1225 0018 0A46     		mov	r2, r1
 1226 001a FFF7FEFF 		bl	USBH_CtlReq
 1227              	.LVL143:
 251:Middlewares/ST/STM32_USB_Host_Library/Core/Src/usbh_ctlreq.c **** 
 1228              		.loc 1 251 0
 1229 001e 08BD     		pop	{r3, pc}
 1230              		.cfi_endproc
 1231              	.LFE127:
 1233              		.section	.text.USBH_SetCfg,"ax",%progbits
 1234              		.align	2
 1235              		.global	USBH_SetCfg
 1236              		.thumb
 1237              		.thumb_func
 1239              	USBH_SetCfg:
 1240              	.LFB128:
 262:Middlewares/ST/STM32_USB_Host_Library/Core/Src/usbh_ctlreq.c ****   if(phost->RequestState == CMD_SEND)
 1241              		.loc 1 262 0
 1242              		.cfi_startproc
 1243              		@ args = 0, pretend = 0, frame = 0
 1244              		@ frame_needed = 0, uses_anonymous_args = 0
 1245              	.LVL144:
 1246 0000 08B5     		push	{r3, lr}
 1247              	.LCFI22:
 1248              		.cfi_def_cfa_offset 8
 1249              		.cfi_offset 3, -8
 1250              		.cfi_offset 14, -4
 263:Middlewares/ST/STM32_USB_Host_Library/Core/Src/usbh_ctlreq.c ****   {
 1251              		.loc 1 263 0
 1252 0002 8378     		ldrb	r3, [r0, #2]	@ zero_extendqisi2
 1253 0004 012B     		cmp	r3, #1
 1254 0006 06D1     		bne	.L85
 265:Middlewares/ST/STM32_USB_Host_Library/Core/Src/usbh_ctlreq.c ****       USB_REQ_TYPE_STANDARD;
 1255              		.loc 1 265 0
 1256 0008 0023     		movs	r3, #0
 1257 000a 0374     		strb	r3, [r0, #16]
 267:Middlewares/ST/STM32_USB_Host_Library/Core/Src/usbh_ctlreq.c ****     phost->Control.setup.b.wValue.w = cfg_idx;
 1258              		.loc 1 267 0
 1259 000c 0922     		movs	r2, #9
 1260 000e 4274     		strb	r2, [r0, #17]
 268:Middlewares/ST/STM32_USB_Host_Library/Core/Src/usbh_ctlreq.c ****     phost->Control.setup.b.wIndex.w = 0;
 1261              		.loc 1 268 0
 1262 0010 4182     		strh	r1, [r0, #18]	@ movhi
 269:Middlewares/ST/STM32_USB_Host_Library/Core/Src/usbh_ctlreq.c ****     phost->Control.setup.b.wLength.w = 0; 
 1263              		.loc 1 269 0
 1264 0012 8382     		strh	r3, [r0, #20]	@ movhi
 270:Middlewares/ST/STM32_USB_Host_Library/Core/Src/usbh_ctlreq.c ****   }
 1265              		.loc 1 270 0
 1266 0014 C382     		strh	r3, [r0, #22]	@ movhi
 1267              	.L85:
 273:Middlewares/ST/STM32_USB_Host_Library/Core/Src/usbh_ctlreq.c **** }
 1268              		.loc 1 273 0
 1269 0016 0021     		movs	r1, #0
 1270              	.LVL145:
 1271 0018 0A46     		mov	r2, r1
 1272 001a FFF7FEFF 		bl	USBH_CtlReq
 1273              	.LVL146:
 274:Middlewares/ST/STM32_USB_Host_Library/Core/Src/usbh_ctlreq.c **** 
ARM GAS  /tmp/cchT2erI.s 			page 40


 1274              		.loc 1 274 0
 1275 001e 08BD     		pop	{r3, pc}
 1276              		.cfi_endproc
 1277              	.LFE128:
 1279              		.section	.text.USBH_SetInterface,"ax",%progbits
 1280              		.align	2
 1281              		.global	USBH_SetInterface
 1282              		.thumb
 1283              		.thumb_func
 1285              	USBH_SetInterface:
 1286              	.LFB129:
 285:Middlewares/ST/STM32_USB_Host_Library/Core/Src/usbh_ctlreq.c ****   
 1287              		.loc 1 285 0
 1288              		.cfi_startproc
 1289              		@ args = 0, pretend = 0, frame = 0
 1290              		@ frame_needed = 0, uses_anonymous_args = 0
 1291              	.LVL147:
 1292 0000 08B5     		push	{r3, lr}
 1293              	.LCFI23:
 1294              		.cfi_def_cfa_offset 8
 1295              		.cfi_offset 3, -8
 1296              		.cfi_offset 14, -4
 287:Middlewares/ST/STM32_USB_Host_Library/Core/Src/usbh_ctlreq.c ****   {
 1297              		.loc 1 287 0
 1298 0002 8378     		ldrb	r3, [r0, #2]	@ zero_extendqisi2
 1299 0004 012B     		cmp	r3, #1
 1300 0006 06D1     		bne	.L88
 289:Middlewares/ST/STM32_USB_Host_Library/Core/Src/usbh_ctlreq.c ****       USB_REQ_TYPE_STANDARD;
 1301              		.loc 1 289 0
 1302 0008 0374     		strb	r3, [r0, #16]
 292:Middlewares/ST/STM32_USB_Host_Library/Core/Src/usbh_ctlreq.c ****     phost->Control.setup.b.wValue.w = altSetting;
 1303              		.loc 1 292 0
 1304 000a 0B23     		movs	r3, #11
 1305 000c 4374     		strb	r3, [r0, #17]
 293:Middlewares/ST/STM32_USB_Host_Library/Core/Src/usbh_ctlreq.c ****     phost->Control.setup.b.wIndex.w = ep_num;
 1306              		.loc 1 293 0
 1307 000e 4282     		strh	r2, [r0, #18]	@ movhi
 294:Middlewares/ST/STM32_USB_Host_Library/Core/Src/usbh_ctlreq.c ****     phost->Control.setup.b.wLength.w = 0;           
 1308              		.loc 1 294 0
 1309 0010 8182     		strh	r1, [r0, #20]	@ movhi
 295:Middlewares/ST/STM32_USB_Host_Library/Core/Src/usbh_ctlreq.c ****   }
 1310              		.loc 1 295 0
 1311 0012 0023     		movs	r3, #0
 1312 0014 C382     		strh	r3, [r0, #22]	@ movhi
 1313              	.L88:
 297:Middlewares/ST/STM32_USB_Host_Library/Core/Src/usbh_ctlreq.c **** }
 1314              		.loc 1 297 0
 1315 0016 0021     		movs	r1, #0
 1316              	.LVL148:
 1317 0018 0A46     		mov	r2, r1
 1318              	.LVL149:
 1319 001a FFF7FEFF 		bl	USBH_CtlReq
 1320              	.LVL150:
 298:Middlewares/ST/STM32_USB_Host_Library/Core/Src/usbh_ctlreq.c **** 
 1321              		.loc 1 298 0
 1322 001e 08BD     		pop	{r3, pc}
 1323              		.cfi_endproc
ARM GAS  /tmp/cchT2erI.s 			page 41


 1324              	.LFE129:
 1326              		.section	.text.USBH_ClrFeature,"ax",%progbits
 1327              		.align	2
 1328              		.global	USBH_ClrFeature
 1329              		.thumb
 1330              		.thumb_func
 1332              	USBH_ClrFeature:
 1333              	.LFB130:
 310:Middlewares/ST/STM32_USB_Host_Library/Core/Src/usbh_ctlreq.c ****   if(phost->RequestState == CMD_SEND)
 1334              		.loc 1 310 0
 1335              		.cfi_startproc
 1336              		@ args = 0, pretend = 0, frame = 0
 1337              		@ frame_needed = 0, uses_anonymous_args = 0
 1338              	.LVL151:
 1339 0000 08B5     		push	{r3, lr}
 1340              	.LCFI24:
 1341              		.cfi_def_cfa_offset 8
 1342              		.cfi_offset 3, -8
 1343              		.cfi_offset 14, -4
 311:Middlewares/ST/STM32_USB_Host_Library/Core/Src/usbh_ctlreq.c ****   {
 1344              		.loc 1 311 0
 1345 0002 8378     		ldrb	r3, [r0, #2]	@ zero_extendqisi2
 1346 0004 012B     		cmp	r3, #1
 1347 0006 07D1     		bne	.L91
 313:Middlewares/ST/STM32_USB_Host_Library/Core/Src/usbh_ctlreq.c ****       USB_REQ_RECIPIENT_ENDPOINT |
 1348              		.loc 1 313 0
 1349 0008 0223     		movs	r3, #2
 1350 000a 0374     		strb	r3, [r0, #16]
 317:Middlewares/ST/STM32_USB_Host_Library/Core/Src/usbh_ctlreq.c ****     phost->Control.setup.b.wValue.w = FEATURE_SELECTOR_ENDPOINT;
 1351              		.loc 1 317 0
 1352 000c 0123     		movs	r3, #1
 1353 000e 4374     		strb	r3, [r0, #17]
 318:Middlewares/ST/STM32_USB_Host_Library/Core/Src/usbh_ctlreq.c ****     phost->Control.setup.b.wIndex.w = ep_num;
 1354              		.loc 1 318 0
 1355 0010 0023     		movs	r3, #0
 1356 0012 4382     		strh	r3, [r0, #18]	@ movhi
 319:Middlewares/ST/STM32_USB_Host_Library/Core/Src/usbh_ctlreq.c ****     phost->Control.setup.b.wLength.w = 0;           
 1357              		.loc 1 319 0
 1358 0014 8182     		strh	r1, [r0, #20]	@ movhi
 320:Middlewares/ST/STM32_USB_Host_Library/Core/Src/usbh_ctlreq.c ****   }
 1359              		.loc 1 320 0
 1360 0016 C382     		strh	r3, [r0, #22]	@ movhi
 1361              	.L91:
 322:Middlewares/ST/STM32_USB_Host_Library/Core/Src/usbh_ctlreq.c **** }
 1362              		.loc 1 322 0
 1363 0018 0021     		movs	r1, #0
 1364              	.LVL152:
 1365 001a 0A46     		mov	r2, r1
 1366 001c FFF7FEFF 		bl	USBH_CtlReq
 1367              	.LVL153:
 323:Middlewares/ST/STM32_USB_Host_Library/Core/Src/usbh_ctlreq.c **** 
 1368              		.loc 1 323 0
 1369 0020 08BD     		pop	{r3, pc}
 1370              		.cfi_endproc
 1371              	.LFE130:
 1373 0022 00BF     		.text
 1374              	.Letext0:
ARM GAS  /tmp/cchT2erI.s 			page 42


 1375              		.file 2 "/usr/include/newlib/machine/_default_types.h"
 1376              		.file 3 "/usr/include/newlib/sys/_stdint.h"
 1377              		.file 4 "Middlewares/ST/STM32_USB_Host_Library/Core/Inc/usbh_def.h"
 1378              		.file 5 "Middlewares/ST/STM32_USB_Host_Library/Core/Inc/usbh_ioreq.h"
 1379              		.file 6 "Middlewares/ST/STM32_USB_Host_Library/Core/Inc/usbh_core.h"
 1380              		.file 7 "Drivers/CMSIS/Include/core_cm4.h"
ARM GAS  /tmp/cchT2erI.s 			page 43

